
STM32F746ZG_BASE.elf:     file format elf32-littlearm

Sections:
Idx Name          Size      VMA       LMA       File off  Algn
  0 .isr_vector   000001c8  08000000  08000000  00008000  2**0
                  CONTENTS, ALLOC, LOAD, READONLY, DATA
  1 .text         00007854  080001c8  080001c8  000081c8  2**3
                  CONTENTS, ALLOC, LOAD, READONLY, CODE
  2 .rodata       000003b0  08007a20  08007a20  0000fa20  2**3
                  CONTENTS, ALLOC, LOAD, READONLY, DATA
  3 .ARM          00000008  08007dd0  08007dd0  0000fdd0  2**2
                  CONTENTS, ALLOC, LOAD, READONLY, DATA
  4 .init_array   00000004  08007dd8  08007dd8  0000fdd8  2**2
                  CONTENTS, ALLOC, LOAD, DATA
  5 .fini_array   00000004  08007ddc  08007ddc  0000fddc  2**2
                  CONTENTS, ALLOC, LOAD, DATA
  6 .data         00000544  20000000  08007de0  00010000  2**2
                  CONTENTS, ALLOC, LOAD, DATA
  7 .bss          00000228  20000544  08008324  00010544  2**2
                  ALLOC
  8 ._user_heap_stack 00000600  2000076c  08008324  0001076c  2**0
                  ALLOC
  9 .ARM.attributes 00000030  00000000  00000000  00010544  2**0
                  CONTENTS, READONLY
 10 .debug_info   0000e7b6  00000000  00000000  00010574  2**0
                  CONTENTS, READONLY, DEBUGGING
 11 .debug_abbrev 00001d73  00000000  00000000  0001ed2a  2**0
                  CONTENTS, READONLY, DEBUGGING
 12 .debug_aranges 00000a10  00000000  00000000  00020aa0  2**3
                  CONTENTS, READONLY, DEBUGGING
 13 .debug_ranges 000010d0  00000000  00000000  000214b0  2**3
                  CONTENTS, READONLY, DEBUGGING
 14 .debug_line   00004dcd  00000000  00000000  00022580  2**0
                  CONTENTS, READONLY, DEBUGGING
 15 .debug_str    00003a47  00000000  00000000  0002734d  2**0
                  CONTENTS, READONLY, DEBUGGING
 16 .comment      00000082  00000000  00000000  0002ad94  2**0
                  CONTENTS, READONLY
 17 .debug_frame  000023f4  00000000  00000000  0002ae18  2**2
                  CONTENTS, READONLY, DEBUGGING
 18 .debug_loc    00006f07  00000000  00000000  0002d20c  2**0
                  CONTENTS, READONLY, DEBUGGING

Disassembly of section .text:

080001c8 <__do_global_dtors_aux>:
 80001c8:	b510      	push	{r4, lr}
 80001ca:	4c05      	ldr	r4, [pc, #20]	; (80001e0 <__do_global_dtors_aux+0x18>)
 80001cc:	7823      	ldrb	r3, [r4, #0]
 80001ce:	b933      	cbnz	r3, 80001de <__do_global_dtors_aux+0x16>
 80001d0:	4b04      	ldr	r3, [pc, #16]	; (80001e4 <__do_global_dtors_aux+0x1c>)
 80001d2:	b113      	cbz	r3, 80001da <__do_global_dtors_aux+0x12>
 80001d4:	4804      	ldr	r0, [pc, #16]	; (80001e8 <__do_global_dtors_aux+0x20>)
 80001d6:	f3af 8000 	nop.w
 80001da:	2301      	movs	r3, #1
 80001dc:	7023      	strb	r3, [r4, #0]
 80001de:	bd10      	pop	{r4, pc}
 80001e0:	20000544 	.word	0x20000544
 80001e4:	00000000 	.word	0x00000000
 80001e8:	08007a04 	.word	0x08007a04

080001ec <frame_dummy>:
 80001ec:	b508      	push	{r3, lr}
 80001ee:	4b03      	ldr	r3, [pc, #12]	; (80001fc <frame_dummy+0x10>)
 80001f0:	b11b      	cbz	r3, 80001fa <frame_dummy+0xe>
 80001f2:	4803      	ldr	r0, [pc, #12]	; (8000200 <frame_dummy+0x14>)
 80001f4:	4903      	ldr	r1, [pc, #12]	; (8000204 <frame_dummy+0x18>)
 80001f6:	f3af 8000 	nop.w
 80001fa:	bd08      	pop	{r3, pc}
 80001fc:	00000000 	.word	0x00000000
 8000200:	08007a04 	.word	0x08007a04
 8000204:	20000548 	.word	0x20000548

08000208 <__aeabi_drsub>:
 8000208:	f081 4100 	eor.w	r1, r1, #2147483648	; 0x80000000
 800020c:	e002      	b.n	8000214 <__adddf3>
 800020e:	bf00      	nop

08000210 <__aeabi_dsub>:
 8000210:	f083 4300 	eor.w	r3, r3, #2147483648	; 0x80000000

08000214 <__adddf3>:
 8000214:	b530      	push	{r4, r5, lr}
 8000216:	ea4f 0441 	mov.w	r4, r1, lsl #1
 800021a:	ea4f 0543 	mov.w	r5, r3, lsl #1
 800021e:	ea94 0f05 	teq	r4, r5
 8000222:	bf08      	it	eq
 8000224:	ea90 0f02 	teqeq	r0, r2
 8000228:	bf1f      	itttt	ne
 800022a:	ea54 0c00 	orrsne.w	ip, r4, r0
 800022e:	ea55 0c02 	orrsne.w	ip, r5, r2
 8000232:	ea7f 5c64 	mvnsne.w	ip, r4, asr #21
 8000236:	ea7f 5c65 	mvnsne.w	ip, r5, asr #21
 800023a:	f000 80e2 	beq.w	8000402 <__adddf3+0x1ee>
 800023e:	ea4f 5454 	mov.w	r4, r4, lsr #21
 8000242:	ebd4 5555 	rsbs	r5, r4, r5, lsr #21
 8000246:	bfb8      	it	lt
 8000248:	426d      	neglt	r5, r5
 800024a:	dd0c      	ble.n	8000266 <__adddf3+0x52>
 800024c:	442c      	add	r4, r5
 800024e:	ea80 0202 	eor.w	r2, r0, r2
 8000252:	ea81 0303 	eor.w	r3, r1, r3
 8000256:	ea82 0000 	eor.w	r0, r2, r0
 800025a:	ea83 0101 	eor.w	r1, r3, r1
 800025e:	ea80 0202 	eor.w	r2, r0, r2
 8000262:	ea81 0303 	eor.w	r3, r1, r3
 8000266:	2d36      	cmp	r5, #54	; 0x36
 8000268:	bf88      	it	hi
 800026a:	bd30      	pophi	{r4, r5, pc}
 800026c:	f011 4f00 	tst.w	r1, #2147483648	; 0x80000000
 8000270:	ea4f 3101 	mov.w	r1, r1, lsl #12
 8000274:	f44f 1c80 	mov.w	ip, #1048576	; 0x100000
 8000278:	ea4c 3111 	orr.w	r1, ip, r1, lsr #12
 800027c:	d002      	beq.n	8000284 <__adddf3+0x70>
 800027e:	4240      	negs	r0, r0
 8000280:	eb61 0141 	sbc.w	r1, r1, r1, lsl #1
 8000284:	f013 4f00 	tst.w	r3, #2147483648	; 0x80000000
 8000288:	ea4f 3303 	mov.w	r3, r3, lsl #12
 800028c:	ea4c 3313 	orr.w	r3, ip, r3, lsr #12
 8000290:	d002      	beq.n	8000298 <__adddf3+0x84>
 8000292:	4252      	negs	r2, r2
 8000294:	eb63 0343 	sbc.w	r3, r3, r3, lsl #1
 8000298:	ea94 0f05 	teq	r4, r5
 800029c:	f000 80a7 	beq.w	80003ee <__adddf3+0x1da>
 80002a0:	f1a4 0401 	sub.w	r4, r4, #1
 80002a4:	f1d5 0e20 	rsbs	lr, r5, #32
 80002a8:	db0d      	blt.n	80002c6 <__adddf3+0xb2>
 80002aa:	fa02 fc0e 	lsl.w	ip, r2, lr
 80002ae:	fa22 f205 	lsr.w	r2, r2, r5
 80002b2:	1880      	adds	r0, r0, r2
 80002b4:	f141 0100 	adc.w	r1, r1, #0
 80002b8:	fa03 f20e 	lsl.w	r2, r3, lr
 80002bc:	1880      	adds	r0, r0, r2
 80002be:	fa43 f305 	asr.w	r3, r3, r5
 80002c2:	4159      	adcs	r1, r3
 80002c4:	e00e      	b.n	80002e4 <__adddf3+0xd0>
 80002c6:	f1a5 0520 	sub.w	r5, r5, #32
 80002ca:	f10e 0e20 	add.w	lr, lr, #32
 80002ce:	2a01      	cmp	r2, #1
 80002d0:	fa03 fc0e 	lsl.w	ip, r3, lr
 80002d4:	bf28      	it	cs
 80002d6:	f04c 0c02 	orrcs.w	ip, ip, #2
 80002da:	fa43 f305 	asr.w	r3, r3, r5
 80002de:	18c0      	adds	r0, r0, r3
 80002e0:	eb51 71e3 	adcs.w	r1, r1, r3, asr #31
 80002e4:	f001 4500 	and.w	r5, r1, #2147483648	; 0x80000000
 80002e8:	d507      	bpl.n	80002fa <__adddf3+0xe6>
 80002ea:	f04f 0e00 	mov.w	lr, #0
 80002ee:	f1dc 0c00 	rsbs	ip, ip, #0
 80002f2:	eb7e 0000 	sbcs.w	r0, lr, r0
 80002f6:	eb6e 0101 	sbc.w	r1, lr, r1
 80002fa:	f5b1 1f80 	cmp.w	r1, #1048576	; 0x100000
 80002fe:	d31b      	bcc.n	8000338 <__adddf3+0x124>
 8000300:	f5b1 1f00 	cmp.w	r1, #2097152	; 0x200000
 8000304:	d30c      	bcc.n	8000320 <__adddf3+0x10c>
 8000306:	0849      	lsrs	r1, r1, #1
 8000308:	ea5f 0030 	movs.w	r0, r0, rrx
 800030c:	ea4f 0c3c 	mov.w	ip, ip, rrx
 8000310:	f104 0401 	add.w	r4, r4, #1
 8000314:	ea4f 5244 	mov.w	r2, r4, lsl #21
 8000318:	f512 0f80 	cmn.w	r2, #4194304	; 0x400000
 800031c:	f080 809a 	bcs.w	8000454 <__adddf3+0x240>
 8000320:	f1bc 4f00 	cmp.w	ip, #2147483648	; 0x80000000
 8000324:	bf08      	it	eq
 8000326:	ea5f 0c50 	movseq.w	ip, r0, lsr #1
 800032a:	f150 0000 	adcs.w	r0, r0, #0
 800032e:	eb41 5104 	adc.w	r1, r1, r4, lsl #20
 8000332:	ea41 0105 	orr.w	r1, r1, r5
 8000336:	bd30      	pop	{r4, r5, pc}
 8000338:	ea5f 0c4c 	movs.w	ip, ip, lsl #1
 800033c:	4140      	adcs	r0, r0
 800033e:	eb41 0101 	adc.w	r1, r1, r1
 8000342:	f411 1f80 	tst.w	r1, #1048576	; 0x100000
 8000346:	f1a4 0401 	sub.w	r4, r4, #1
 800034a:	d1e9      	bne.n	8000320 <__adddf3+0x10c>
 800034c:	f091 0f00 	teq	r1, #0
 8000350:	bf04      	itt	eq
 8000352:	4601      	moveq	r1, r0
 8000354:	2000      	moveq	r0, #0
 8000356:	fab1 f381 	clz	r3, r1
 800035a:	bf08      	it	eq
 800035c:	3320      	addeq	r3, #32
 800035e:	f1a3 030b 	sub.w	r3, r3, #11
 8000362:	f1b3 0220 	subs.w	r2, r3, #32
 8000366:	da0c      	bge.n	8000382 <__adddf3+0x16e>
 8000368:	320c      	adds	r2, #12
 800036a:	dd08      	ble.n	800037e <__adddf3+0x16a>
 800036c:	f102 0c14 	add.w	ip, r2, #20
 8000370:	f1c2 020c 	rsb	r2, r2, #12
 8000374:	fa01 f00c 	lsl.w	r0, r1, ip
 8000378:	fa21 f102 	lsr.w	r1, r1, r2
 800037c:	e00c      	b.n	8000398 <__adddf3+0x184>
 800037e:	f102 0214 	add.w	r2, r2, #20
 8000382:	bfd8      	it	le
 8000384:	f1c2 0c20 	rsble	ip, r2, #32
 8000388:	fa01 f102 	lsl.w	r1, r1, r2
 800038c:	fa20 fc0c 	lsr.w	ip, r0, ip
 8000390:	bfdc      	itt	le
 8000392:	ea41 010c 	orrle.w	r1, r1, ip
 8000396:	4090      	lslle	r0, r2
 8000398:	1ae4      	subs	r4, r4, r3
 800039a:	bfa2      	ittt	ge
 800039c:	eb01 5104 	addge.w	r1, r1, r4, lsl #20
 80003a0:	4329      	orrge	r1, r5
 80003a2:	bd30      	popge	{r4, r5, pc}
 80003a4:	ea6f 0404 	mvn.w	r4, r4
 80003a8:	3c1f      	subs	r4, #31
 80003aa:	da1c      	bge.n	80003e6 <__adddf3+0x1d2>
 80003ac:	340c      	adds	r4, #12
 80003ae:	dc0e      	bgt.n	80003ce <__adddf3+0x1ba>
 80003b0:	f104 0414 	add.w	r4, r4, #20
 80003b4:	f1c4 0220 	rsb	r2, r4, #32
 80003b8:	fa20 f004 	lsr.w	r0, r0, r4
 80003bc:	fa01 f302 	lsl.w	r3, r1, r2
 80003c0:	ea40 0003 	orr.w	r0, r0, r3
 80003c4:	fa21 f304 	lsr.w	r3, r1, r4
 80003c8:	ea45 0103 	orr.w	r1, r5, r3
 80003cc:	bd30      	pop	{r4, r5, pc}
 80003ce:	f1c4 040c 	rsb	r4, r4, #12
 80003d2:	f1c4 0220 	rsb	r2, r4, #32
 80003d6:	fa20 f002 	lsr.w	r0, r0, r2
 80003da:	fa01 f304 	lsl.w	r3, r1, r4
 80003de:	ea40 0003 	orr.w	r0, r0, r3
 80003e2:	4629      	mov	r1, r5
 80003e4:	bd30      	pop	{r4, r5, pc}
 80003e6:	fa21 f004 	lsr.w	r0, r1, r4
 80003ea:	4629      	mov	r1, r5
 80003ec:	bd30      	pop	{r4, r5, pc}
 80003ee:	f094 0f00 	teq	r4, #0
 80003f2:	f483 1380 	eor.w	r3, r3, #1048576	; 0x100000
 80003f6:	bf06      	itte	eq
 80003f8:	f481 1180 	eoreq.w	r1, r1, #1048576	; 0x100000
 80003fc:	3401      	addeq	r4, #1
 80003fe:	3d01      	subne	r5, #1
 8000400:	e74e      	b.n	80002a0 <__adddf3+0x8c>
 8000402:	ea7f 5c64 	mvns.w	ip, r4, asr #21
 8000406:	bf18      	it	ne
 8000408:	ea7f 5c65 	mvnsne.w	ip, r5, asr #21
 800040c:	d029      	beq.n	8000462 <__adddf3+0x24e>
 800040e:	ea94 0f05 	teq	r4, r5
 8000412:	bf08      	it	eq
 8000414:	ea90 0f02 	teqeq	r0, r2
 8000418:	d005      	beq.n	8000426 <__adddf3+0x212>
 800041a:	ea54 0c00 	orrs.w	ip, r4, r0
 800041e:	bf04      	itt	eq
 8000420:	4619      	moveq	r1, r3
 8000422:	4610      	moveq	r0, r2
 8000424:	bd30      	pop	{r4, r5, pc}
 8000426:	ea91 0f03 	teq	r1, r3
 800042a:	bf1e      	ittt	ne
 800042c:	2100      	movne	r1, #0
 800042e:	2000      	movne	r0, #0
 8000430:	bd30      	popne	{r4, r5, pc}
 8000432:	ea5f 5c54 	movs.w	ip, r4, lsr #21
 8000436:	d105      	bne.n	8000444 <__adddf3+0x230>
 8000438:	0040      	lsls	r0, r0, #1
 800043a:	4149      	adcs	r1, r1
 800043c:	bf28      	it	cs
 800043e:	f041 4100 	orrcs.w	r1, r1, #2147483648	; 0x80000000
 8000442:	bd30      	pop	{r4, r5, pc}
 8000444:	f514 0480 	adds.w	r4, r4, #4194304	; 0x400000
 8000448:	bf3c      	itt	cc
 800044a:	f501 1180 	addcc.w	r1, r1, #1048576	; 0x100000
 800044e:	bd30      	popcc	{r4, r5, pc}
 8000450:	f001 4500 	and.w	r5, r1, #2147483648	; 0x80000000
 8000454:	f045 41fe 	orr.w	r1, r5, #2130706432	; 0x7f000000
 8000458:	f441 0170 	orr.w	r1, r1, #15728640	; 0xf00000
 800045c:	f04f 0000 	mov.w	r0, #0
 8000460:	bd30      	pop	{r4, r5, pc}
 8000462:	ea7f 5c64 	mvns.w	ip, r4, asr #21
 8000466:	bf1a      	itte	ne
 8000468:	4619      	movne	r1, r3
 800046a:	4610      	movne	r0, r2
 800046c:	ea7f 5c65 	mvnseq.w	ip, r5, asr #21
 8000470:	bf1c      	itt	ne
 8000472:	460b      	movne	r3, r1
 8000474:	4602      	movne	r2, r0
 8000476:	ea50 3401 	orrs.w	r4, r0, r1, lsl #12
 800047a:	bf06      	itte	eq
 800047c:	ea52 3503 	orrseq.w	r5, r2, r3, lsl #12
 8000480:	ea91 0f03 	teqeq	r1, r3
 8000484:	f441 2100 	orrne.w	r1, r1, #524288	; 0x80000
 8000488:	bd30      	pop	{r4, r5, pc}
 800048a:	bf00      	nop

0800048c <__aeabi_ui2d>:
 800048c:	f090 0f00 	teq	r0, #0
 8000490:	bf04      	itt	eq
 8000492:	2100      	moveq	r1, #0
 8000494:	4770      	bxeq	lr
 8000496:	b530      	push	{r4, r5, lr}
 8000498:	f44f 6480 	mov.w	r4, #1024	; 0x400
 800049c:	f104 0432 	add.w	r4, r4, #50	; 0x32
 80004a0:	f04f 0500 	mov.w	r5, #0
 80004a4:	f04f 0100 	mov.w	r1, #0
 80004a8:	e750      	b.n	800034c <__adddf3+0x138>
 80004aa:	bf00      	nop

080004ac <__aeabi_i2d>:
 80004ac:	f090 0f00 	teq	r0, #0
 80004b0:	bf04      	itt	eq
 80004b2:	2100      	moveq	r1, #0
 80004b4:	4770      	bxeq	lr
 80004b6:	b530      	push	{r4, r5, lr}
 80004b8:	f44f 6480 	mov.w	r4, #1024	; 0x400
 80004bc:	f104 0432 	add.w	r4, r4, #50	; 0x32
 80004c0:	f010 4500 	ands.w	r5, r0, #2147483648	; 0x80000000
 80004c4:	bf48      	it	mi
 80004c6:	4240      	negmi	r0, r0
 80004c8:	f04f 0100 	mov.w	r1, #0
 80004cc:	e73e      	b.n	800034c <__adddf3+0x138>
 80004ce:	bf00      	nop

080004d0 <__aeabi_f2d>:
 80004d0:	0042      	lsls	r2, r0, #1
 80004d2:	ea4f 01e2 	mov.w	r1, r2, asr #3
 80004d6:	ea4f 0131 	mov.w	r1, r1, rrx
 80004da:	ea4f 7002 	mov.w	r0, r2, lsl #28
 80004de:	bf1f      	itttt	ne
 80004e0:	f012 437f 	andsne.w	r3, r2, #4278190080	; 0xff000000
 80004e4:	f093 4f7f 	teqne	r3, #4278190080	; 0xff000000
 80004e8:	f081 5160 	eorne.w	r1, r1, #939524096	; 0x38000000
 80004ec:	4770      	bxne	lr
 80004ee:	f092 0f00 	teq	r2, #0
 80004f2:	bf14      	ite	ne
 80004f4:	f093 4f7f 	teqne	r3, #4278190080	; 0xff000000
 80004f8:	4770      	bxeq	lr
 80004fa:	b530      	push	{r4, r5, lr}
 80004fc:	f44f 7460 	mov.w	r4, #896	; 0x380
 8000500:	f001 4500 	and.w	r5, r1, #2147483648	; 0x80000000
 8000504:	f021 4100 	bic.w	r1, r1, #2147483648	; 0x80000000
 8000508:	e720      	b.n	800034c <__adddf3+0x138>
 800050a:	bf00      	nop

0800050c <__aeabi_ul2d>:
 800050c:	ea50 0201 	orrs.w	r2, r0, r1
 8000510:	bf08      	it	eq
 8000512:	4770      	bxeq	lr
 8000514:	b530      	push	{r4, r5, lr}
 8000516:	f04f 0500 	mov.w	r5, #0
 800051a:	e00a      	b.n	8000532 <__aeabi_l2d+0x16>

0800051c <__aeabi_l2d>:
 800051c:	ea50 0201 	orrs.w	r2, r0, r1
 8000520:	bf08      	it	eq
 8000522:	4770      	bxeq	lr
 8000524:	b530      	push	{r4, r5, lr}
 8000526:	f011 4500 	ands.w	r5, r1, #2147483648	; 0x80000000
 800052a:	d502      	bpl.n	8000532 <__aeabi_l2d+0x16>
 800052c:	4240      	negs	r0, r0
 800052e:	eb61 0141 	sbc.w	r1, r1, r1, lsl #1
 8000532:	f44f 6480 	mov.w	r4, #1024	; 0x400
 8000536:	f104 0432 	add.w	r4, r4, #50	; 0x32
 800053a:	ea5f 5c91 	movs.w	ip, r1, lsr #22
 800053e:	f43f aedc 	beq.w	80002fa <__adddf3+0xe6>
 8000542:	f04f 0203 	mov.w	r2, #3
 8000546:	ea5f 0cdc 	movs.w	ip, ip, lsr #3
 800054a:	bf18      	it	ne
 800054c:	3203      	addne	r2, #3
 800054e:	ea5f 0cdc 	movs.w	ip, ip, lsr #3
 8000552:	bf18      	it	ne
 8000554:	3203      	addne	r2, #3
 8000556:	eb02 02dc 	add.w	r2, r2, ip, lsr #3
 800055a:	f1c2 0320 	rsb	r3, r2, #32
 800055e:	fa00 fc03 	lsl.w	ip, r0, r3
 8000562:	fa20 f002 	lsr.w	r0, r0, r2
 8000566:	fa01 fe03 	lsl.w	lr, r1, r3
 800056a:	ea40 000e 	orr.w	r0, r0, lr
 800056e:	fa21 f102 	lsr.w	r1, r1, r2
 8000572:	4414      	add	r4, r2
 8000574:	e6c1      	b.n	80002fa <__adddf3+0xe6>
 8000576:	bf00      	nop

08000578 <__aeabi_dmul>:
 8000578:	b570      	push	{r4, r5, r6, lr}
 800057a:	f04f 0cff 	mov.w	ip, #255	; 0xff
 800057e:	f44c 6ce0 	orr.w	ip, ip, #1792	; 0x700
 8000582:	ea1c 5411 	ands.w	r4, ip, r1, lsr #20
 8000586:	bf1d      	ittte	ne
 8000588:	ea1c 5513 	andsne.w	r5, ip, r3, lsr #20
 800058c:	ea94 0f0c 	teqne	r4, ip
 8000590:	ea95 0f0c 	teqne	r5, ip
 8000594:	f000 f8de 	bleq	8000754 <__aeabi_dmul+0x1dc>
 8000598:	442c      	add	r4, r5
 800059a:	ea81 0603 	eor.w	r6, r1, r3
 800059e:	ea21 514c 	bic.w	r1, r1, ip, lsl #21
 80005a2:	ea23 534c 	bic.w	r3, r3, ip, lsl #21
 80005a6:	ea50 3501 	orrs.w	r5, r0, r1, lsl #12
 80005aa:	bf18      	it	ne
 80005ac:	ea52 3503 	orrsne.w	r5, r2, r3, lsl #12
 80005b0:	f441 1180 	orr.w	r1, r1, #1048576	; 0x100000
 80005b4:	f443 1380 	orr.w	r3, r3, #1048576	; 0x100000
 80005b8:	d038      	beq.n	800062c <__aeabi_dmul+0xb4>
 80005ba:	fba0 ce02 	umull	ip, lr, r0, r2
 80005be:	f04f 0500 	mov.w	r5, #0
 80005c2:	fbe1 e502 	umlal	lr, r5, r1, r2
 80005c6:	f006 4200 	and.w	r2, r6, #2147483648	; 0x80000000
 80005ca:	fbe0 e503 	umlal	lr, r5, r0, r3
 80005ce:	f04f 0600 	mov.w	r6, #0
 80005d2:	fbe1 5603 	umlal	r5, r6, r1, r3
 80005d6:	f09c 0f00 	teq	ip, #0
 80005da:	bf18      	it	ne
 80005dc:	f04e 0e01 	orrne.w	lr, lr, #1
 80005e0:	f1a4 04ff 	sub.w	r4, r4, #255	; 0xff
 80005e4:	f5b6 7f00 	cmp.w	r6, #512	; 0x200
 80005e8:	f564 7440 	sbc.w	r4, r4, #768	; 0x300
 80005ec:	d204      	bcs.n	80005f8 <__aeabi_dmul+0x80>
 80005ee:	ea5f 0e4e 	movs.w	lr, lr, lsl #1
 80005f2:	416d      	adcs	r5, r5
 80005f4:	eb46 0606 	adc.w	r6, r6, r6
 80005f8:	ea42 21c6 	orr.w	r1, r2, r6, lsl #11
 80005fc:	ea41 5155 	orr.w	r1, r1, r5, lsr #21
 8000600:	ea4f 20c5 	mov.w	r0, r5, lsl #11
 8000604:	ea40 505e 	orr.w	r0, r0, lr, lsr #21
 8000608:	ea4f 2ece 	mov.w	lr, lr, lsl #11
 800060c:	f1b4 0cfd 	subs.w	ip, r4, #253	; 0xfd
 8000610:	bf88      	it	hi
 8000612:	f5bc 6fe0 	cmphi.w	ip, #1792	; 0x700
 8000616:	d81e      	bhi.n	8000656 <__aeabi_dmul+0xde>
 8000618:	f1be 4f00 	cmp.w	lr, #2147483648	; 0x80000000
 800061c:	bf08      	it	eq
 800061e:	ea5f 0e50 	movseq.w	lr, r0, lsr #1
 8000622:	f150 0000 	adcs.w	r0, r0, #0
 8000626:	eb41 5104 	adc.w	r1, r1, r4, lsl #20
 800062a:	bd70      	pop	{r4, r5, r6, pc}
 800062c:	f006 4600 	and.w	r6, r6, #2147483648	; 0x80000000
 8000630:	ea46 0101 	orr.w	r1, r6, r1
 8000634:	ea40 0002 	orr.w	r0, r0, r2
 8000638:	ea81 0103 	eor.w	r1, r1, r3
 800063c:	ebb4 045c 	subs.w	r4, r4, ip, lsr #1
 8000640:	bfc2      	ittt	gt
 8000642:	ebd4 050c 	rsbsgt	r5, r4, ip
 8000646:	ea41 5104 	orrgt.w	r1, r1, r4, lsl #20
 800064a:	bd70      	popgt	{r4, r5, r6, pc}
 800064c:	f441 1180 	orr.w	r1, r1, #1048576	; 0x100000
 8000650:	f04f 0e00 	mov.w	lr, #0
 8000654:	3c01      	subs	r4, #1
 8000656:	f300 80ab 	bgt.w	80007b0 <__aeabi_dmul+0x238>
 800065a:	f114 0f36 	cmn.w	r4, #54	; 0x36
 800065e:	bfde      	ittt	le
 8000660:	2000      	movle	r0, #0
 8000662:	f001 4100 	andle.w	r1, r1, #2147483648	; 0x80000000
 8000666:	bd70      	pople	{r4, r5, r6, pc}
 8000668:	f1c4 0400 	rsb	r4, r4, #0
 800066c:	3c20      	subs	r4, #32
 800066e:	da35      	bge.n	80006dc <__aeabi_dmul+0x164>
 8000670:	340c      	adds	r4, #12
 8000672:	dc1b      	bgt.n	80006ac <__aeabi_dmul+0x134>
 8000674:	f104 0414 	add.w	r4, r4, #20
 8000678:	f1c4 0520 	rsb	r5, r4, #32
 800067c:	fa00 f305 	lsl.w	r3, r0, r5
 8000680:	fa20 f004 	lsr.w	r0, r0, r4
 8000684:	fa01 f205 	lsl.w	r2, r1, r5
 8000688:	ea40 0002 	orr.w	r0, r0, r2
 800068c:	f001 4200 	and.w	r2, r1, #2147483648	; 0x80000000
 8000690:	f021 4100 	bic.w	r1, r1, #2147483648	; 0x80000000
 8000694:	eb10 70d3 	adds.w	r0, r0, r3, lsr #31
 8000698:	fa21 f604 	lsr.w	r6, r1, r4
 800069c:	eb42 0106 	adc.w	r1, r2, r6
 80006a0:	ea5e 0e43 	orrs.w	lr, lr, r3, lsl #1
 80006a4:	bf08      	it	eq
 80006a6:	ea20 70d3 	biceq.w	r0, r0, r3, lsr #31
 80006aa:	bd70      	pop	{r4, r5, r6, pc}
 80006ac:	f1c4 040c 	rsb	r4, r4, #12
 80006b0:	f1c4 0520 	rsb	r5, r4, #32
 80006b4:	fa00 f304 	lsl.w	r3, r0, r4
 80006b8:	fa20 f005 	lsr.w	r0, r0, r5
 80006bc:	fa01 f204 	lsl.w	r2, r1, r4
 80006c0:	ea40 0002 	orr.w	r0, r0, r2
 80006c4:	f001 4100 	and.w	r1, r1, #2147483648	; 0x80000000
 80006c8:	eb10 70d3 	adds.w	r0, r0, r3, lsr #31
 80006cc:	f141 0100 	adc.w	r1, r1, #0
 80006d0:	ea5e 0e43 	orrs.w	lr, lr, r3, lsl #1
 80006d4:	bf08      	it	eq
 80006d6:	ea20 70d3 	biceq.w	r0, r0, r3, lsr #31
 80006da:	bd70      	pop	{r4, r5, r6, pc}
 80006dc:	f1c4 0520 	rsb	r5, r4, #32
 80006e0:	fa00 f205 	lsl.w	r2, r0, r5
 80006e4:	ea4e 0e02 	orr.w	lr, lr, r2
 80006e8:	fa20 f304 	lsr.w	r3, r0, r4
 80006ec:	fa01 f205 	lsl.w	r2, r1, r5
 80006f0:	ea43 0302 	orr.w	r3, r3, r2
 80006f4:	fa21 f004 	lsr.w	r0, r1, r4
 80006f8:	f001 4100 	and.w	r1, r1, #2147483648	; 0x80000000
 80006fc:	fa21 f204 	lsr.w	r2, r1, r4
 8000700:	ea20 0002 	bic.w	r0, r0, r2
 8000704:	eb00 70d3 	add.w	r0, r0, r3, lsr #31
 8000708:	ea5e 0e43 	orrs.w	lr, lr, r3, lsl #1
 800070c:	bf08      	it	eq
 800070e:	ea20 70d3 	biceq.w	r0, r0, r3, lsr #31
 8000712:	bd70      	pop	{r4, r5, r6, pc}
 8000714:	f094 0f00 	teq	r4, #0
 8000718:	d10f      	bne.n	800073a <__aeabi_dmul+0x1c2>
 800071a:	f001 4600 	and.w	r6, r1, #2147483648	; 0x80000000
 800071e:	0040      	lsls	r0, r0, #1
 8000720:	eb41 0101 	adc.w	r1, r1, r1
 8000724:	f411 1f80 	tst.w	r1, #1048576	; 0x100000
 8000728:	bf08      	it	eq
 800072a:	3c01      	subeq	r4, #1
 800072c:	d0f7      	beq.n	800071e <__aeabi_dmul+0x1a6>
 800072e:	ea41 0106 	orr.w	r1, r1, r6
 8000732:	f095 0f00 	teq	r5, #0
 8000736:	bf18      	it	ne
 8000738:	4770      	bxne	lr
 800073a:	f003 4600 	and.w	r6, r3, #2147483648	; 0x80000000
 800073e:	0052      	lsls	r2, r2, #1
 8000740:	eb43 0303 	adc.w	r3, r3, r3
 8000744:	f413 1f80 	tst.w	r3, #1048576	; 0x100000
 8000748:	bf08      	it	eq
 800074a:	3d01      	subeq	r5, #1
 800074c:	d0f7      	beq.n	800073e <__aeabi_dmul+0x1c6>
 800074e:	ea43 0306 	orr.w	r3, r3, r6
 8000752:	4770      	bx	lr
 8000754:	ea94 0f0c 	teq	r4, ip
 8000758:	ea0c 5513 	and.w	r5, ip, r3, lsr #20
 800075c:	bf18      	it	ne
 800075e:	ea95 0f0c 	teqne	r5, ip
 8000762:	d00c      	beq.n	800077e <__aeabi_dmul+0x206>
 8000764:	ea50 0641 	orrs.w	r6, r0, r1, lsl #1
 8000768:	bf18      	it	ne
 800076a:	ea52 0643 	orrsne.w	r6, r2, r3, lsl #1
 800076e:	d1d1      	bne.n	8000714 <__aeabi_dmul+0x19c>
 8000770:	ea81 0103 	eor.w	r1, r1, r3
 8000774:	f001 4100 	and.w	r1, r1, #2147483648	; 0x80000000
 8000778:	f04f 0000 	mov.w	r0, #0
 800077c:	bd70      	pop	{r4, r5, r6, pc}
 800077e:	ea50 0641 	orrs.w	r6, r0, r1, lsl #1
 8000782:	bf06      	itte	eq
 8000784:	4610      	moveq	r0, r2
 8000786:	4619      	moveq	r1, r3
 8000788:	ea52 0643 	orrsne.w	r6, r2, r3, lsl #1
 800078c:	d019      	beq.n	80007c2 <__aeabi_dmul+0x24a>
 800078e:	ea94 0f0c 	teq	r4, ip
 8000792:	d102      	bne.n	800079a <__aeabi_dmul+0x222>
 8000794:	ea50 3601 	orrs.w	r6, r0, r1, lsl #12
 8000798:	d113      	bne.n	80007c2 <__aeabi_dmul+0x24a>
 800079a:	ea95 0f0c 	teq	r5, ip
 800079e:	d105      	bne.n	80007ac <__aeabi_dmul+0x234>
 80007a0:	ea52 3603 	orrs.w	r6, r2, r3, lsl #12
 80007a4:	bf1c      	itt	ne
 80007a6:	4610      	movne	r0, r2
 80007a8:	4619      	movne	r1, r3
 80007aa:	d10a      	bne.n	80007c2 <__aeabi_dmul+0x24a>
 80007ac:	ea81 0103 	eor.w	r1, r1, r3
 80007b0:	f001 4100 	and.w	r1, r1, #2147483648	; 0x80000000
 80007b4:	f041 41fe 	orr.w	r1, r1, #2130706432	; 0x7f000000
 80007b8:	f441 0170 	orr.w	r1, r1, #15728640	; 0xf00000
 80007bc:	f04f 0000 	mov.w	r0, #0
 80007c0:	bd70      	pop	{r4, r5, r6, pc}
 80007c2:	f041 41fe 	orr.w	r1, r1, #2130706432	; 0x7f000000
 80007c6:	f441 0178 	orr.w	r1, r1, #16252928	; 0xf80000
 80007ca:	bd70      	pop	{r4, r5, r6, pc}

080007cc <__aeabi_ddiv>:
 80007cc:	b570      	push	{r4, r5, r6, lr}
 80007ce:	f04f 0cff 	mov.w	ip, #255	; 0xff
 80007d2:	f44c 6ce0 	orr.w	ip, ip, #1792	; 0x700
 80007d6:	ea1c 5411 	ands.w	r4, ip, r1, lsr #20
 80007da:	bf1d      	ittte	ne
 80007dc:	ea1c 5513 	andsne.w	r5, ip, r3, lsr #20
 80007e0:	ea94 0f0c 	teqne	r4, ip
 80007e4:	ea95 0f0c 	teqne	r5, ip
 80007e8:	f000 f8a7 	bleq	800093a <__aeabi_ddiv+0x16e>
 80007ec:	eba4 0405 	sub.w	r4, r4, r5
 80007f0:	ea81 0e03 	eor.w	lr, r1, r3
 80007f4:	ea52 3503 	orrs.w	r5, r2, r3, lsl #12
 80007f8:	ea4f 3101 	mov.w	r1, r1, lsl #12
 80007fc:	f000 8088 	beq.w	8000910 <__aeabi_ddiv+0x144>
 8000800:	ea4f 3303 	mov.w	r3, r3, lsl #12
 8000804:	f04f 5580 	mov.w	r5, #268435456	; 0x10000000
 8000808:	ea45 1313 	orr.w	r3, r5, r3, lsr #4
 800080c:	ea43 6312 	orr.w	r3, r3, r2, lsr #24
 8000810:	ea4f 2202 	mov.w	r2, r2, lsl #8
 8000814:	ea45 1511 	orr.w	r5, r5, r1, lsr #4
 8000818:	ea45 6510 	orr.w	r5, r5, r0, lsr #24
 800081c:	ea4f 2600 	mov.w	r6, r0, lsl #8
 8000820:	f00e 4100 	and.w	r1, lr, #2147483648	; 0x80000000
 8000824:	429d      	cmp	r5, r3
 8000826:	bf08      	it	eq
 8000828:	4296      	cmpeq	r6, r2
 800082a:	f144 04fd 	adc.w	r4, r4, #253	; 0xfd
 800082e:	f504 7440 	add.w	r4, r4, #768	; 0x300
 8000832:	d202      	bcs.n	800083a <__aeabi_ddiv+0x6e>
 8000834:	085b      	lsrs	r3, r3, #1
 8000836:	ea4f 0232 	mov.w	r2, r2, rrx
 800083a:	1ab6      	subs	r6, r6, r2
 800083c:	eb65 0503 	sbc.w	r5, r5, r3
 8000840:	085b      	lsrs	r3, r3, #1
 8000842:	ea4f 0232 	mov.w	r2, r2, rrx
 8000846:	f44f 1080 	mov.w	r0, #1048576	; 0x100000
 800084a:	f44f 2c00 	mov.w	ip, #524288	; 0x80000
 800084e:	ebb6 0e02 	subs.w	lr, r6, r2
 8000852:	eb75 0e03 	sbcs.w	lr, r5, r3
 8000856:	bf22      	ittt	cs
 8000858:	1ab6      	subcs	r6, r6, r2
 800085a:	4675      	movcs	r5, lr
 800085c:	ea40 000c 	orrcs.w	r0, r0, ip
 8000860:	085b      	lsrs	r3, r3, #1
 8000862:	ea4f 0232 	mov.w	r2, r2, rrx
 8000866:	ebb6 0e02 	subs.w	lr, r6, r2
 800086a:	eb75 0e03 	sbcs.w	lr, r5, r3
 800086e:	bf22      	ittt	cs
 8000870:	1ab6      	subcs	r6, r6, r2
 8000872:	4675      	movcs	r5, lr
 8000874:	ea40 005c 	orrcs.w	r0, r0, ip, lsr #1
 8000878:	085b      	lsrs	r3, r3, #1
 800087a:	ea4f 0232 	mov.w	r2, r2, rrx
 800087e:	ebb6 0e02 	subs.w	lr, r6, r2
 8000882:	eb75 0e03 	sbcs.w	lr, r5, r3
 8000886:	bf22      	ittt	cs
 8000888:	1ab6      	subcs	r6, r6, r2
 800088a:	4675      	movcs	r5, lr
 800088c:	ea40 009c 	orrcs.w	r0, r0, ip, lsr #2
 8000890:	085b      	lsrs	r3, r3, #1
 8000892:	ea4f 0232 	mov.w	r2, r2, rrx
 8000896:	ebb6 0e02 	subs.w	lr, r6, r2
 800089a:	eb75 0e03 	sbcs.w	lr, r5, r3
 800089e:	bf22      	ittt	cs
 80008a0:	1ab6      	subcs	r6, r6, r2
 80008a2:	4675      	movcs	r5, lr
 80008a4:	ea40 00dc 	orrcs.w	r0, r0, ip, lsr #3
 80008a8:	ea55 0e06 	orrs.w	lr, r5, r6
 80008ac:	d018      	beq.n	80008e0 <__aeabi_ddiv+0x114>
 80008ae:	ea4f 1505 	mov.w	r5, r5, lsl #4
 80008b2:	ea45 7516 	orr.w	r5, r5, r6, lsr #28
 80008b6:	ea4f 1606 	mov.w	r6, r6, lsl #4
 80008ba:	ea4f 03c3 	mov.w	r3, r3, lsl #3
 80008be:	ea43 7352 	orr.w	r3, r3, r2, lsr #29
 80008c2:	ea4f 02c2 	mov.w	r2, r2, lsl #3
 80008c6:	ea5f 1c1c 	movs.w	ip, ip, lsr #4
 80008ca:	d1c0      	bne.n	800084e <__aeabi_ddiv+0x82>
 80008cc:	f411 1f80 	tst.w	r1, #1048576	; 0x100000
 80008d0:	d10b      	bne.n	80008ea <__aeabi_ddiv+0x11e>
 80008d2:	ea41 0100 	orr.w	r1, r1, r0
 80008d6:	f04f 0000 	mov.w	r0, #0
 80008da:	f04f 4c00 	mov.w	ip, #2147483648	; 0x80000000
 80008de:	e7b6      	b.n	800084e <__aeabi_ddiv+0x82>
 80008e0:	f411 1f80 	tst.w	r1, #1048576	; 0x100000
 80008e4:	bf04      	itt	eq
 80008e6:	4301      	orreq	r1, r0
 80008e8:	2000      	moveq	r0, #0
 80008ea:	f1b4 0cfd 	subs.w	ip, r4, #253	; 0xfd
 80008ee:	bf88      	it	hi
 80008f0:	f5bc 6fe0 	cmphi.w	ip, #1792	; 0x700
 80008f4:	f63f aeaf 	bhi.w	8000656 <__aeabi_dmul+0xde>
 80008f8:	ebb5 0c03 	subs.w	ip, r5, r3
 80008fc:	bf04      	itt	eq
 80008fe:	ebb6 0c02 	subseq.w	ip, r6, r2
 8000902:	ea5f 0c50 	movseq.w	ip, r0, lsr #1
 8000906:	f150 0000 	adcs.w	r0, r0, #0
 800090a:	eb41 5104 	adc.w	r1, r1, r4, lsl #20
 800090e:	bd70      	pop	{r4, r5, r6, pc}
 8000910:	f00e 4e00 	and.w	lr, lr, #2147483648	; 0x80000000
 8000914:	ea4e 3111 	orr.w	r1, lr, r1, lsr #12
 8000918:	eb14 045c 	adds.w	r4, r4, ip, lsr #1
 800091c:	bfc2      	ittt	gt
 800091e:	ebd4 050c 	rsbsgt	r5, r4, ip
 8000922:	ea41 5104 	orrgt.w	r1, r1, r4, lsl #20
 8000926:	bd70      	popgt	{r4, r5, r6, pc}
 8000928:	f441 1180 	orr.w	r1, r1, #1048576	; 0x100000
 800092c:	f04f 0e00 	mov.w	lr, #0
 8000930:	3c01      	subs	r4, #1
 8000932:	e690      	b.n	8000656 <__aeabi_dmul+0xde>
 8000934:	ea45 0e06 	orr.w	lr, r5, r6
 8000938:	e68d      	b.n	8000656 <__aeabi_dmul+0xde>
 800093a:	ea0c 5513 	and.w	r5, ip, r3, lsr #20
 800093e:	ea94 0f0c 	teq	r4, ip
 8000942:	bf08      	it	eq
 8000944:	ea95 0f0c 	teqeq	r5, ip
 8000948:	f43f af3b 	beq.w	80007c2 <__aeabi_dmul+0x24a>
 800094c:	ea94 0f0c 	teq	r4, ip
 8000950:	d10a      	bne.n	8000968 <__aeabi_ddiv+0x19c>
 8000952:	ea50 3401 	orrs.w	r4, r0, r1, lsl #12
 8000956:	f47f af34 	bne.w	80007c2 <__aeabi_dmul+0x24a>
 800095a:	ea95 0f0c 	teq	r5, ip
 800095e:	f47f af25 	bne.w	80007ac <__aeabi_dmul+0x234>
 8000962:	4610      	mov	r0, r2
 8000964:	4619      	mov	r1, r3
 8000966:	e72c      	b.n	80007c2 <__aeabi_dmul+0x24a>
 8000968:	ea95 0f0c 	teq	r5, ip
 800096c:	d106      	bne.n	800097c <__aeabi_ddiv+0x1b0>
 800096e:	ea52 3503 	orrs.w	r5, r2, r3, lsl #12
 8000972:	f43f aefd 	beq.w	8000770 <__aeabi_dmul+0x1f8>
 8000976:	4610      	mov	r0, r2
 8000978:	4619      	mov	r1, r3
 800097a:	e722      	b.n	80007c2 <__aeabi_dmul+0x24a>
 800097c:	ea50 0641 	orrs.w	r6, r0, r1, lsl #1
 8000980:	bf18      	it	ne
 8000982:	ea52 0643 	orrsne.w	r6, r2, r3, lsl #1
 8000986:	f47f aec5 	bne.w	8000714 <__aeabi_dmul+0x19c>
 800098a:	ea50 0441 	orrs.w	r4, r0, r1, lsl #1
 800098e:	f47f af0d 	bne.w	80007ac <__aeabi_dmul+0x234>
 8000992:	ea52 0543 	orrs.w	r5, r2, r3, lsl #1
 8000996:	f47f aeeb 	bne.w	8000770 <__aeabi_dmul+0x1f8>
 800099a:	e712      	b.n	80007c2 <__aeabi_dmul+0x24a>

0800099c <__gedf2>:
 800099c:	f04f 3cff 	mov.w	ip, #4294967295
 80009a0:	e006      	b.n	80009b0 <__cmpdf2+0x4>
 80009a2:	bf00      	nop

080009a4 <__ledf2>:
 80009a4:	f04f 0c01 	mov.w	ip, #1
 80009a8:	e002      	b.n	80009b0 <__cmpdf2+0x4>
 80009aa:	bf00      	nop

080009ac <__cmpdf2>:
 80009ac:	f04f 0c01 	mov.w	ip, #1
 80009b0:	f84d cd04 	str.w	ip, [sp, #-4]!
 80009b4:	ea4f 0c41 	mov.w	ip, r1, lsl #1
 80009b8:	ea7f 5c6c 	mvns.w	ip, ip, asr #21
 80009bc:	ea4f 0c43 	mov.w	ip, r3, lsl #1
 80009c0:	bf18      	it	ne
 80009c2:	ea7f 5c6c 	mvnsne.w	ip, ip, asr #21
 80009c6:	d01b      	beq.n	8000a00 <__cmpdf2+0x54>
 80009c8:	b001      	add	sp, #4
 80009ca:	ea50 0c41 	orrs.w	ip, r0, r1, lsl #1
 80009ce:	bf0c      	ite	eq
 80009d0:	ea52 0c43 	orrseq.w	ip, r2, r3, lsl #1
 80009d4:	ea91 0f03 	teqne	r1, r3
 80009d8:	bf02      	ittt	eq
 80009da:	ea90 0f02 	teqeq	r0, r2
 80009de:	2000      	moveq	r0, #0
 80009e0:	4770      	bxeq	lr
 80009e2:	f110 0f00 	cmn.w	r0, #0
 80009e6:	ea91 0f03 	teq	r1, r3
 80009ea:	bf58      	it	pl
 80009ec:	4299      	cmppl	r1, r3
 80009ee:	bf08      	it	eq
 80009f0:	4290      	cmpeq	r0, r2
 80009f2:	bf2c      	ite	cs
 80009f4:	17d8      	asrcs	r0, r3, #31
 80009f6:	ea6f 70e3 	mvncc.w	r0, r3, asr #31
 80009fa:	f040 0001 	orr.w	r0, r0, #1
 80009fe:	4770      	bx	lr
 8000a00:	ea4f 0c41 	mov.w	ip, r1, lsl #1
 8000a04:	ea7f 5c6c 	mvns.w	ip, ip, asr #21
 8000a08:	d102      	bne.n	8000a10 <__cmpdf2+0x64>
 8000a0a:	ea50 3c01 	orrs.w	ip, r0, r1, lsl #12
 8000a0e:	d107      	bne.n	8000a20 <__cmpdf2+0x74>
 8000a10:	ea4f 0c43 	mov.w	ip, r3, lsl #1
 8000a14:	ea7f 5c6c 	mvns.w	ip, ip, asr #21
 8000a18:	d1d6      	bne.n	80009c8 <__cmpdf2+0x1c>
 8000a1a:	ea52 3c03 	orrs.w	ip, r2, r3, lsl #12
 8000a1e:	d0d3      	beq.n	80009c8 <__cmpdf2+0x1c>
 8000a20:	f85d 0b04 	ldr.w	r0, [sp], #4
 8000a24:	4770      	bx	lr
 8000a26:	bf00      	nop

08000a28 <__aeabi_cdrcmple>:
 8000a28:	4684      	mov	ip, r0
 8000a2a:	4610      	mov	r0, r2
 8000a2c:	4662      	mov	r2, ip
 8000a2e:	468c      	mov	ip, r1
 8000a30:	4619      	mov	r1, r3
 8000a32:	4663      	mov	r3, ip
 8000a34:	e000      	b.n	8000a38 <__aeabi_cdcmpeq>
 8000a36:	bf00      	nop

08000a38 <__aeabi_cdcmpeq>:
 8000a38:	b501      	push	{r0, lr}
 8000a3a:	f7ff ffb7 	bl	80009ac <__cmpdf2>
 8000a3e:	2800      	cmp	r0, #0
 8000a40:	bf48      	it	mi
 8000a42:	f110 0f00 	cmnmi.w	r0, #0
 8000a46:	bd01      	pop	{r0, pc}

08000a48 <__aeabi_dcmpeq>:
 8000a48:	f84d ed08 	str.w	lr, [sp, #-8]!
 8000a4c:	f7ff fff4 	bl	8000a38 <__aeabi_cdcmpeq>
 8000a50:	bf0c      	ite	eq
 8000a52:	2001      	moveq	r0, #1
 8000a54:	2000      	movne	r0, #0
 8000a56:	f85d fb08 	ldr.w	pc, [sp], #8
 8000a5a:	bf00      	nop

08000a5c <__aeabi_dcmplt>:
 8000a5c:	f84d ed08 	str.w	lr, [sp, #-8]!
 8000a60:	f7ff ffea 	bl	8000a38 <__aeabi_cdcmpeq>
 8000a64:	bf34      	ite	cc
 8000a66:	2001      	movcc	r0, #1
 8000a68:	2000      	movcs	r0, #0
 8000a6a:	f85d fb08 	ldr.w	pc, [sp], #8
 8000a6e:	bf00      	nop

08000a70 <__aeabi_dcmple>:
 8000a70:	f84d ed08 	str.w	lr, [sp, #-8]!
 8000a74:	f7ff ffe0 	bl	8000a38 <__aeabi_cdcmpeq>
 8000a78:	bf94      	ite	ls
 8000a7a:	2001      	movls	r0, #1
 8000a7c:	2000      	movhi	r0, #0
 8000a7e:	f85d fb08 	ldr.w	pc, [sp], #8
 8000a82:	bf00      	nop

08000a84 <__aeabi_dcmpge>:
 8000a84:	f84d ed08 	str.w	lr, [sp, #-8]!
 8000a88:	f7ff ffce 	bl	8000a28 <__aeabi_cdrcmple>
 8000a8c:	bf94      	ite	ls
 8000a8e:	2001      	movls	r0, #1
 8000a90:	2000      	movhi	r0, #0
 8000a92:	f85d fb08 	ldr.w	pc, [sp], #8
 8000a96:	bf00      	nop

08000a98 <__aeabi_dcmpgt>:
 8000a98:	f84d ed08 	str.w	lr, [sp, #-8]!
 8000a9c:	f7ff ffc4 	bl	8000a28 <__aeabi_cdrcmple>
 8000aa0:	bf34      	ite	cc
 8000aa2:	2001      	movcc	r0, #1
 8000aa4:	2000      	movcs	r0, #0
 8000aa6:	f85d fb08 	ldr.w	pc, [sp], #8
 8000aaa:	bf00      	nop

08000aac <__aeabi_d2iz>:
 8000aac:	ea4f 0241 	mov.w	r2, r1, lsl #1
 8000ab0:	f512 1200 	adds.w	r2, r2, #2097152	; 0x200000
 8000ab4:	d215      	bcs.n	8000ae2 <__aeabi_d2iz+0x36>
 8000ab6:	d511      	bpl.n	8000adc <__aeabi_d2iz+0x30>
 8000ab8:	f46f 7378 	mvn.w	r3, #992	; 0x3e0
 8000abc:	ebb3 5262 	subs.w	r2, r3, r2, asr #21
 8000ac0:	d912      	bls.n	8000ae8 <__aeabi_d2iz+0x3c>
 8000ac2:	ea4f 23c1 	mov.w	r3, r1, lsl #11
 8000ac6:	f043 4300 	orr.w	r3, r3, #2147483648	; 0x80000000
 8000aca:	ea43 5350 	orr.w	r3, r3, r0, lsr #21
 8000ace:	f011 4f00 	tst.w	r1, #2147483648	; 0x80000000
 8000ad2:	fa23 f002 	lsr.w	r0, r3, r2
 8000ad6:	bf18      	it	ne
 8000ad8:	4240      	negne	r0, r0
 8000ada:	4770      	bx	lr
 8000adc:	f04f 0000 	mov.w	r0, #0
 8000ae0:	4770      	bx	lr
 8000ae2:	ea50 3001 	orrs.w	r0, r0, r1, lsl #12
 8000ae6:	d105      	bne.n	8000af4 <__aeabi_d2iz+0x48>
 8000ae8:	f011 4000 	ands.w	r0, r1, #2147483648	; 0x80000000
 8000aec:	bf08      	it	eq
 8000aee:	f06f 4000 	mvneq.w	r0, #2147483648	; 0x80000000
 8000af2:	4770      	bx	lr
 8000af4:	f04f 0000 	mov.w	r0, #0
 8000af8:	4770      	bx	lr
 8000afa:	bf00      	nop

08000afc <__aeabi_uldivmod>:
 8000afc:	b94b      	cbnz	r3, 8000b12 <__aeabi_uldivmod+0x16>
 8000afe:	b942      	cbnz	r2, 8000b12 <__aeabi_uldivmod+0x16>
 8000b00:	2900      	cmp	r1, #0
 8000b02:	bf08      	it	eq
 8000b04:	2800      	cmpeq	r0, #0
 8000b06:	d002      	beq.n	8000b0e <__aeabi_uldivmod+0x12>
 8000b08:	f04f 31ff 	mov.w	r1, #4294967295
 8000b0c:	4608      	mov	r0, r1
 8000b0e:	f000 b83b 	b.w	8000b88 <__aeabi_idiv0>
 8000b12:	b082      	sub	sp, #8
 8000b14:	46ec      	mov	ip, sp
 8000b16:	e92d 5000 	stmdb	sp!, {ip, lr}
 8000b1a:	f000 f81d 	bl	8000b58 <__gnu_uldivmod_helper>
 8000b1e:	f8dd e004 	ldr.w	lr, [sp, #4]
 8000b22:	b002      	add	sp, #8
 8000b24:	bc0c      	pop	{r2, r3}
 8000b26:	4770      	bx	lr

08000b28 <__gnu_ldivmod_helper>:
 8000b28:	e92d 4370 	stmdb	sp!, {r4, r5, r6, r8, r9, lr}
 8000b2c:	9e06      	ldr	r6, [sp, #24]
 8000b2e:	4614      	mov	r4, r2
 8000b30:	461d      	mov	r5, r3
 8000b32:	4680      	mov	r8, r0
 8000b34:	4689      	mov	r9, r1
 8000b36:	f000 f829 	bl	8000b8c <__divdi3>
 8000b3a:	fb04 f301 	mul.w	r3, r4, r1
 8000b3e:	fb00 3305 	mla	r3, r0, r5, r3
 8000b42:	fba4 4500 	umull	r4, r5, r4, r0
 8000b46:	441d      	add	r5, r3
 8000b48:	ebb8 0404 	subs.w	r4, r8, r4
 8000b4c:	eb69 0505 	sbc.w	r5, r9, r5
 8000b50:	e9c6 4500 	strd	r4, r5, [r6]
 8000b54:	e8bd 8370 	ldmia.w	sp!, {r4, r5, r6, r8, r9, pc}

08000b58 <__gnu_uldivmod_helper>:
 8000b58:	e92d 4370 	stmdb	sp!, {r4, r5, r6, r8, r9, lr}
 8000b5c:	9e06      	ldr	r6, [sp, #24]
 8000b5e:	4614      	mov	r4, r2
 8000b60:	4680      	mov	r8, r0
 8000b62:	4689      	mov	r9, r1
 8000b64:	461d      	mov	r5, r3
 8000b66:	f000 f95d 	bl	8000e24 <__udivdi3>
 8000b6a:	fb00 f505 	mul.w	r5, r0, r5
 8000b6e:	fb04 5301 	mla	r3, r4, r1, r5
 8000b72:	fba0 4504 	umull	r4, r5, r0, r4
 8000b76:	441d      	add	r5, r3
 8000b78:	ebb8 0404 	subs.w	r4, r8, r4
 8000b7c:	eb69 0505 	sbc.w	r5, r9, r5
 8000b80:	e9c6 4500 	strd	r4, r5, [r6]
 8000b84:	e8bd 8370 	ldmia.w	sp!, {r4, r5, r6, r8, r9, pc}

08000b88 <__aeabi_idiv0>:
 8000b88:	4770      	bx	lr
 8000b8a:	bf00      	nop

08000b8c <__divdi3>:
 8000b8c:	2900      	cmp	r1, #0
 8000b8e:	e92d 0ff0 	stmdb	sp!, {r4, r5, r6, r7, r8, r9, sl, fp}
 8000b92:	f2c0 809f 	blt.w	8000cd4 <__divdi3+0x148>
 8000b96:	2400      	movs	r4, #0
 8000b98:	2b00      	cmp	r3, #0
 8000b9a:	f2c0 8096 	blt.w	8000cca <__divdi3+0x13e>
 8000b9e:	4615      	mov	r5, r2
 8000ba0:	4606      	mov	r6, r0
 8000ba2:	460f      	mov	r7, r1
 8000ba4:	2b00      	cmp	r3, #0
 8000ba6:	d13e      	bne.n	8000c26 <__divdi3+0x9a>
 8000ba8:	428a      	cmp	r2, r1
 8000baa:	d957      	bls.n	8000c5c <__divdi3+0xd0>
 8000bac:	fab2 f382 	clz	r3, r2
 8000bb0:	b14b      	cbz	r3, 8000bc6 <__divdi3+0x3a>
 8000bb2:	f1c3 0220 	rsb	r2, r3, #32
 8000bb6:	fa01 f703 	lsl.w	r7, r1, r3
 8000bba:	fa20 f202 	lsr.w	r2, r0, r2
 8000bbe:	409d      	lsls	r5, r3
 8000bc0:	4317      	orrs	r7, r2
 8000bc2:	fa00 f603 	lsl.w	r6, r0, r3
 8000bc6:	0c29      	lsrs	r1, r5, #16
 8000bc8:	fbb7 f2f1 	udiv	r2, r7, r1
 8000bcc:	0c33      	lsrs	r3, r6, #16
 8000bce:	fb01 7c12 	mls	ip, r1, r2, r7
 8000bd2:	b2a8      	uxth	r0, r5
 8000bd4:	ea43 470c 	orr.w	r7, r3, ip, lsl #16
 8000bd8:	fb00 f302 	mul.w	r3, r0, r2
 8000bdc:	42bb      	cmp	r3, r7
 8000bde:	d909      	bls.n	8000bf4 <__divdi3+0x68>
 8000be0:	197f      	adds	r7, r7, r5
 8000be2:	f102 3cff 	add.w	ip, r2, #4294967295
 8000be6:	f080 8101 	bcs.w	8000dec <__divdi3+0x260>
 8000bea:	42bb      	cmp	r3, r7
 8000bec:	f240 80fe 	bls.w	8000dec <__divdi3+0x260>
 8000bf0:	3a02      	subs	r2, #2
 8000bf2:	442f      	add	r7, r5
 8000bf4:	1aff      	subs	r7, r7, r3
 8000bf6:	fbb7 f3f1 	udiv	r3, r7, r1
 8000bfa:	b2b6      	uxth	r6, r6
 8000bfc:	fb01 7113 	mls	r1, r1, r3, r7
 8000c00:	ea46 4101 	orr.w	r1, r6, r1, lsl #16
 8000c04:	fb00 f003 	mul.w	r0, r0, r3
 8000c08:	4288      	cmp	r0, r1
 8000c0a:	d908      	bls.n	8000c1e <__divdi3+0x92>
 8000c0c:	1949      	adds	r1, r1, r5
 8000c0e:	f103 37ff 	add.w	r7, r3, #4294967295
 8000c12:	f080 80ed 	bcs.w	8000df0 <__divdi3+0x264>
 8000c16:	4288      	cmp	r0, r1
 8000c18:	f240 80ea 	bls.w	8000df0 <__divdi3+0x264>
 8000c1c:	3b02      	subs	r3, #2
 8000c1e:	ea43 4202 	orr.w	r2, r3, r2, lsl #16
 8000c22:	2300      	movs	r3, #0
 8000c24:	e003      	b.n	8000c2e <__divdi3+0xa2>
 8000c26:	428b      	cmp	r3, r1
 8000c28:	d90a      	bls.n	8000c40 <__divdi3+0xb4>
 8000c2a:	2300      	movs	r3, #0
 8000c2c:	461a      	mov	r2, r3
 8000c2e:	4610      	mov	r0, r2
 8000c30:	4619      	mov	r1, r3
 8000c32:	b114      	cbz	r4, 8000c3a <__divdi3+0xae>
 8000c34:	4240      	negs	r0, r0
 8000c36:	eb61 0141 	sbc.w	r1, r1, r1, lsl #1
 8000c3a:	e8bd 0ff0 	ldmia.w	sp!, {r4, r5, r6, r7, r8, r9, sl, fp}
 8000c3e:	4770      	bx	lr
 8000c40:	fab3 f883 	clz	r8, r3
 8000c44:	f1b8 0f00 	cmp.w	r8, #0
 8000c48:	f040 8084 	bne.w	8000d54 <__divdi3+0x1c8>
 8000c4c:	428b      	cmp	r3, r1
 8000c4e:	d302      	bcc.n	8000c56 <__divdi3+0xca>
 8000c50:	4282      	cmp	r2, r0
 8000c52:	f200 80de 	bhi.w	8000e12 <__divdi3+0x286>
 8000c56:	2300      	movs	r3, #0
 8000c58:	2201      	movs	r2, #1
 8000c5a:	e7e8      	b.n	8000c2e <__divdi3+0xa2>
 8000c5c:	b912      	cbnz	r2, 8000c64 <__divdi3+0xd8>
 8000c5e:	2301      	movs	r3, #1
 8000c60:	fbb3 f5f2 	udiv	r5, r3, r2
 8000c64:	fab5 f285 	clz	r2, r5
 8000c68:	2a00      	cmp	r2, #0
 8000c6a:	d139      	bne.n	8000ce0 <__divdi3+0x154>
 8000c6c:	1b7f      	subs	r7, r7, r5
 8000c6e:	0c28      	lsrs	r0, r5, #16
 8000c70:	fa1f fc85 	uxth.w	ip, r5
 8000c74:	2301      	movs	r3, #1
 8000c76:	fbb7 f1f0 	udiv	r1, r7, r0
 8000c7a:	0c32      	lsrs	r2, r6, #16
 8000c7c:	fb00 7711 	mls	r7, r0, r1, r7
 8000c80:	ea42 4707 	orr.w	r7, r2, r7, lsl #16
 8000c84:	fb0c f201 	mul.w	r2, ip, r1
 8000c88:	42ba      	cmp	r2, r7
 8000c8a:	d907      	bls.n	8000c9c <__divdi3+0x110>
 8000c8c:	197f      	adds	r7, r7, r5
 8000c8e:	f101 38ff 	add.w	r8, r1, #4294967295
 8000c92:	d202      	bcs.n	8000c9a <__divdi3+0x10e>
 8000c94:	42ba      	cmp	r2, r7
 8000c96:	f200 80c1 	bhi.w	8000e1c <__divdi3+0x290>
 8000c9a:	4641      	mov	r1, r8
 8000c9c:	1abf      	subs	r7, r7, r2
 8000c9e:	fbb7 f2f0 	udiv	r2, r7, r0
 8000ca2:	b2b6      	uxth	r6, r6
 8000ca4:	fb00 7012 	mls	r0, r0, r2, r7
 8000ca8:	ea46 4000 	orr.w	r0, r6, r0, lsl #16
 8000cac:	fb0c fc02 	mul.w	ip, ip, r2
 8000cb0:	4584      	cmp	ip, r0
 8000cb2:	d907      	bls.n	8000cc4 <__divdi3+0x138>
 8000cb4:	1940      	adds	r0, r0, r5
 8000cb6:	f102 37ff 	add.w	r7, r2, #4294967295
 8000cba:	d202      	bcs.n	8000cc2 <__divdi3+0x136>
 8000cbc:	4584      	cmp	ip, r0
 8000cbe:	f200 80ab 	bhi.w	8000e18 <__divdi3+0x28c>
 8000cc2:	463a      	mov	r2, r7
 8000cc4:	ea42 4201 	orr.w	r2, r2, r1, lsl #16
 8000cc8:	e7b1      	b.n	8000c2e <__divdi3+0xa2>
 8000cca:	43e4      	mvns	r4, r4
 8000ccc:	4252      	negs	r2, r2
 8000cce:	eb63 0343 	sbc.w	r3, r3, r3, lsl #1
 8000cd2:	e764      	b.n	8000b9e <__divdi3+0x12>
 8000cd4:	4240      	negs	r0, r0
 8000cd6:	eb61 0141 	sbc.w	r1, r1, r1, lsl #1
 8000cda:	f04f 34ff 	mov.w	r4, #4294967295
 8000cde:	e75b      	b.n	8000b98 <__divdi3+0xc>
 8000ce0:	4095      	lsls	r5, r2
 8000ce2:	f1c2 0320 	rsb	r3, r2, #32
 8000ce6:	fa27 f103 	lsr.w	r1, r7, r3
 8000cea:	0c28      	lsrs	r0, r5, #16
 8000cec:	fa26 f303 	lsr.w	r3, r6, r3
 8000cf0:	4097      	lsls	r7, r2
 8000cf2:	fbb1 f8f0 	udiv	r8, r1, r0
 8000cf6:	431f      	orrs	r7, r3
 8000cf8:	0c3b      	lsrs	r3, r7, #16
 8000cfa:	fb00 1118 	mls	r1, r0, r8, r1
 8000cfe:	fa1f fc85 	uxth.w	ip, r5
 8000d02:	ea43 4101 	orr.w	r1, r3, r1, lsl #16
 8000d06:	fb0c f308 	mul.w	r3, ip, r8
 8000d0a:	428b      	cmp	r3, r1
 8000d0c:	fa06 f602 	lsl.w	r6, r6, r2
 8000d10:	d908      	bls.n	8000d24 <__divdi3+0x198>
 8000d12:	1949      	adds	r1, r1, r5
 8000d14:	f108 32ff 	add.w	r2, r8, #4294967295
 8000d18:	d279      	bcs.n	8000e0e <__divdi3+0x282>
 8000d1a:	428b      	cmp	r3, r1
 8000d1c:	d977      	bls.n	8000e0e <__divdi3+0x282>
 8000d1e:	f1a8 0802 	sub.w	r8, r8, #2
 8000d22:	4429      	add	r1, r5
 8000d24:	1ac9      	subs	r1, r1, r3
 8000d26:	fbb1 f3f0 	udiv	r3, r1, r0
 8000d2a:	b2bf      	uxth	r7, r7
 8000d2c:	fb00 1113 	mls	r1, r0, r3, r1
 8000d30:	ea47 4701 	orr.w	r7, r7, r1, lsl #16
 8000d34:	fb0c f203 	mul.w	r2, ip, r3
 8000d38:	42ba      	cmp	r2, r7
 8000d3a:	d907      	bls.n	8000d4c <__divdi3+0x1c0>
 8000d3c:	197f      	adds	r7, r7, r5
 8000d3e:	f103 31ff 	add.w	r1, r3, #4294967295
 8000d42:	d260      	bcs.n	8000e06 <__divdi3+0x27a>
 8000d44:	42ba      	cmp	r2, r7
 8000d46:	d95e      	bls.n	8000e06 <__divdi3+0x27a>
 8000d48:	3b02      	subs	r3, #2
 8000d4a:	442f      	add	r7, r5
 8000d4c:	1abf      	subs	r7, r7, r2
 8000d4e:	ea43 4308 	orr.w	r3, r3, r8, lsl #16
 8000d52:	e790      	b.n	8000c76 <__divdi3+0xea>
 8000d54:	f1c8 0220 	rsb	r2, r8, #32
 8000d58:	fa03 fc08 	lsl.w	ip, r3, r8
 8000d5c:	fa25 f302 	lsr.w	r3, r5, r2
 8000d60:	ea43 0c0c 	orr.w	ip, r3, ip
 8000d64:	ea4f 491c 	mov.w	r9, ip, lsr #16
 8000d68:	fa21 f302 	lsr.w	r3, r1, r2
 8000d6c:	fa01 f708 	lsl.w	r7, r1, r8
 8000d70:	fa20 f202 	lsr.w	r2, r0, r2
 8000d74:	fbb3 f1f9 	udiv	r1, r3, r9
 8000d78:	4317      	orrs	r7, r2
 8000d7a:	fb09 3311 	mls	r3, r9, r1, r3
 8000d7e:	0c3a      	lsrs	r2, r7, #16
 8000d80:	fa1f fb8c 	uxth.w	fp, ip
 8000d84:	ea42 4303 	orr.w	r3, r2, r3, lsl #16
 8000d88:	fb0b fa01 	mul.w	sl, fp, r1
 8000d8c:	459a      	cmp	sl, r3
 8000d8e:	fa05 f008 	lsl.w	r0, r5, r8
 8000d92:	d908      	bls.n	8000da6 <__divdi3+0x21a>
 8000d94:	eb13 030c 	adds.w	r3, r3, ip
 8000d98:	f101 32ff 	add.w	r2, r1, #4294967295
 8000d9c:	d235      	bcs.n	8000e0a <__divdi3+0x27e>
 8000d9e:	459a      	cmp	sl, r3
 8000da0:	d933      	bls.n	8000e0a <__divdi3+0x27e>
 8000da2:	3902      	subs	r1, #2
 8000da4:	4463      	add	r3, ip
 8000da6:	ebca 0303 	rsb	r3, sl, r3
 8000daa:	fbb3 f2f9 	udiv	r2, r3, r9
 8000dae:	fb09 3312 	mls	r3, r9, r2, r3
 8000db2:	b2bf      	uxth	r7, r7
 8000db4:	ea47 4703 	orr.w	r7, r7, r3, lsl #16
 8000db8:	fb0b f902 	mul.w	r9, fp, r2
 8000dbc:	45b9      	cmp	r9, r7
 8000dbe:	d908      	bls.n	8000dd2 <__divdi3+0x246>
 8000dc0:	eb17 070c 	adds.w	r7, r7, ip
 8000dc4:	f102 33ff 	add.w	r3, r2, #4294967295
 8000dc8:	d21b      	bcs.n	8000e02 <__divdi3+0x276>
 8000dca:	45b9      	cmp	r9, r7
 8000dcc:	d919      	bls.n	8000e02 <__divdi3+0x276>
 8000dce:	3a02      	subs	r2, #2
 8000dd0:	4467      	add	r7, ip
 8000dd2:	ea42 4501 	orr.w	r5, r2, r1, lsl #16
 8000dd6:	fba5 0100 	umull	r0, r1, r5, r0
 8000dda:	ebc9 0707 	rsb	r7, r9, r7
 8000dde:	428f      	cmp	r7, r1
 8000de0:	f04f 0300 	mov.w	r3, #0
 8000de4:	d30a      	bcc.n	8000dfc <__divdi3+0x270>
 8000de6:	d005      	beq.n	8000df4 <__divdi3+0x268>
 8000de8:	462a      	mov	r2, r5
 8000dea:	e720      	b.n	8000c2e <__divdi3+0xa2>
 8000dec:	4662      	mov	r2, ip
 8000dee:	e701      	b.n	8000bf4 <__divdi3+0x68>
 8000df0:	463b      	mov	r3, r7
 8000df2:	e714      	b.n	8000c1e <__divdi3+0x92>
 8000df4:	fa06 f608 	lsl.w	r6, r6, r8
 8000df8:	4286      	cmp	r6, r0
 8000dfa:	d2f5      	bcs.n	8000de8 <__divdi3+0x25c>
 8000dfc:	1e6a      	subs	r2, r5, #1
 8000dfe:	2300      	movs	r3, #0
 8000e00:	e715      	b.n	8000c2e <__divdi3+0xa2>
 8000e02:	461a      	mov	r2, r3
 8000e04:	e7e5      	b.n	8000dd2 <__divdi3+0x246>
 8000e06:	460b      	mov	r3, r1
 8000e08:	e7a0      	b.n	8000d4c <__divdi3+0x1c0>
 8000e0a:	4611      	mov	r1, r2
 8000e0c:	e7cb      	b.n	8000da6 <__divdi3+0x21a>
 8000e0e:	4690      	mov	r8, r2
 8000e10:	e788      	b.n	8000d24 <__divdi3+0x198>
 8000e12:	4643      	mov	r3, r8
 8000e14:	4642      	mov	r2, r8
 8000e16:	e70a      	b.n	8000c2e <__divdi3+0xa2>
 8000e18:	3a02      	subs	r2, #2
 8000e1a:	e753      	b.n	8000cc4 <__divdi3+0x138>
 8000e1c:	3902      	subs	r1, #2
 8000e1e:	442f      	add	r7, r5
 8000e20:	e73c      	b.n	8000c9c <__divdi3+0x110>
 8000e22:	bf00      	nop

08000e24 <__udivdi3>:
 8000e24:	e92d 0ff0 	stmdb	sp!, {r4, r5, r6, r7, r8, r9, sl, fp}
 8000e28:	4614      	mov	r4, r2
 8000e2a:	4605      	mov	r5, r0
 8000e2c:	460e      	mov	r6, r1
 8000e2e:	2b00      	cmp	r3, #0
 8000e30:	d143      	bne.n	8000eba <__udivdi3+0x96>
 8000e32:	428a      	cmp	r2, r1
 8000e34:	d953      	bls.n	8000ede <__udivdi3+0xba>
 8000e36:	fab2 f782 	clz	r7, r2
 8000e3a:	b157      	cbz	r7, 8000e52 <__udivdi3+0x2e>
 8000e3c:	f1c7 0620 	rsb	r6, r7, #32
 8000e40:	fa20 f606 	lsr.w	r6, r0, r6
 8000e44:	fa01 f307 	lsl.w	r3, r1, r7
 8000e48:	fa02 f407 	lsl.w	r4, r2, r7
 8000e4c:	431e      	orrs	r6, r3
 8000e4e:	fa00 f507 	lsl.w	r5, r0, r7
 8000e52:	0c21      	lsrs	r1, r4, #16
 8000e54:	fbb6 f2f1 	udiv	r2, r6, r1
 8000e58:	0c2b      	lsrs	r3, r5, #16
 8000e5a:	fb01 6712 	mls	r7, r1, r2, r6
 8000e5e:	b2a0      	uxth	r0, r4
 8000e60:	ea43 4607 	orr.w	r6, r3, r7, lsl #16
 8000e64:	fb00 f302 	mul.w	r3, r0, r2
 8000e68:	42b3      	cmp	r3, r6
 8000e6a:	d909      	bls.n	8000e80 <__udivdi3+0x5c>
 8000e6c:	1936      	adds	r6, r6, r4
 8000e6e:	f102 37ff 	add.w	r7, r2, #4294967295
 8000e72:	f080 80f6 	bcs.w	8001062 <__udivdi3+0x23e>
 8000e76:	42b3      	cmp	r3, r6
 8000e78:	f240 80f3 	bls.w	8001062 <__udivdi3+0x23e>
 8000e7c:	3a02      	subs	r2, #2
 8000e7e:	4426      	add	r6, r4
 8000e80:	1af6      	subs	r6, r6, r3
 8000e82:	fbb6 f3f1 	udiv	r3, r6, r1
 8000e86:	b2ad      	uxth	r5, r5
 8000e88:	fb01 6113 	mls	r1, r1, r3, r6
 8000e8c:	ea45 4101 	orr.w	r1, r5, r1, lsl #16
 8000e90:	fb00 f003 	mul.w	r0, r0, r3
 8000e94:	4288      	cmp	r0, r1
 8000e96:	d908      	bls.n	8000eaa <__udivdi3+0x86>
 8000e98:	1909      	adds	r1, r1, r4
 8000e9a:	f103 36ff 	add.w	r6, r3, #4294967295
 8000e9e:	f080 80e2 	bcs.w	8001066 <__udivdi3+0x242>
 8000ea2:	4288      	cmp	r0, r1
 8000ea4:	f240 80df 	bls.w	8001066 <__udivdi3+0x242>
 8000ea8:	3b02      	subs	r3, #2
 8000eaa:	ea43 4202 	orr.w	r2, r3, r2, lsl #16
 8000eae:	2300      	movs	r3, #0
 8000eb0:	4610      	mov	r0, r2
 8000eb2:	4619      	mov	r1, r3
 8000eb4:	e8bd 0ff0 	ldmia.w	sp!, {r4, r5, r6, r7, r8, r9, sl, fp}
 8000eb8:	4770      	bx	lr
 8000eba:	428b      	cmp	r3, r1
 8000ebc:	d84a      	bhi.n	8000f54 <__udivdi3+0x130>
 8000ebe:	fab3 f683 	clz	r6, r3
 8000ec2:	2e00      	cmp	r6, #0
 8000ec4:	d14d      	bne.n	8000f62 <__udivdi3+0x13e>
 8000ec6:	428b      	cmp	r3, r1
 8000ec8:	d302      	bcc.n	8000ed0 <__udivdi3+0xac>
 8000eca:	4282      	cmp	r2, r0
 8000ecc:	f200 80d6 	bhi.w	800107c <__udivdi3+0x258>
 8000ed0:	2300      	movs	r3, #0
 8000ed2:	2201      	movs	r2, #1
 8000ed4:	4610      	mov	r0, r2
 8000ed6:	4619      	mov	r1, r3
 8000ed8:	e8bd 0ff0 	ldmia.w	sp!, {r4, r5, r6, r7, r8, r9, sl, fp}
 8000edc:	4770      	bx	lr
 8000ede:	b912      	cbnz	r2, 8000ee6 <__udivdi3+0xc2>
 8000ee0:	2401      	movs	r4, #1
 8000ee2:	fbb4 f4f2 	udiv	r4, r4, r2
 8000ee6:	fab4 f284 	clz	r2, r4
 8000eea:	2a00      	cmp	r2, #0
 8000eec:	d17c      	bne.n	8000fe8 <__udivdi3+0x1c4>
 8000eee:	1b09      	subs	r1, r1, r4
 8000ef0:	0c26      	lsrs	r6, r4, #16
 8000ef2:	b2a7      	uxth	r7, r4
 8000ef4:	2301      	movs	r3, #1
 8000ef6:	fbb1 f0f6 	udiv	r0, r1, r6
 8000efa:	0c2a      	lsrs	r2, r5, #16
 8000efc:	fb06 1110 	mls	r1, r6, r0, r1
 8000f00:	ea42 4101 	orr.w	r1, r2, r1, lsl #16
 8000f04:	fb07 f200 	mul.w	r2, r7, r0
 8000f08:	428a      	cmp	r2, r1
 8000f0a:	d907      	bls.n	8000f1c <__udivdi3+0xf8>
 8000f0c:	1909      	adds	r1, r1, r4
 8000f0e:	f100 3cff 	add.w	ip, r0, #4294967295
 8000f12:	d202      	bcs.n	8000f1a <__udivdi3+0xf6>
 8000f14:	428a      	cmp	r2, r1
 8000f16:	f200 80c3 	bhi.w	80010a0 <__udivdi3+0x27c>
 8000f1a:	4660      	mov	r0, ip
 8000f1c:	1a89      	subs	r1, r1, r2
 8000f1e:	fbb1 f2f6 	udiv	r2, r1, r6
 8000f22:	b2ad      	uxth	r5, r5
 8000f24:	fb06 1112 	mls	r1, r6, r2, r1
 8000f28:	ea45 4501 	orr.w	r5, r5, r1, lsl #16
 8000f2c:	fb07 f702 	mul.w	r7, r7, r2
 8000f30:	42af      	cmp	r7, r5
 8000f32:	d908      	bls.n	8000f46 <__udivdi3+0x122>
 8000f34:	192c      	adds	r4, r5, r4
 8000f36:	f102 31ff 	add.w	r1, r2, #4294967295
 8000f3a:	f080 8096 	bcs.w	800106a <__udivdi3+0x246>
 8000f3e:	42a7      	cmp	r7, r4
 8000f40:	f240 8093 	bls.w	800106a <__udivdi3+0x246>
 8000f44:	3a02      	subs	r2, #2
 8000f46:	ea42 4200 	orr.w	r2, r2, r0, lsl #16
 8000f4a:	4610      	mov	r0, r2
 8000f4c:	4619      	mov	r1, r3
 8000f4e:	e8bd 0ff0 	ldmia.w	sp!, {r4, r5, r6, r7, r8, r9, sl, fp}
 8000f52:	4770      	bx	lr
 8000f54:	2300      	movs	r3, #0
 8000f56:	461a      	mov	r2, r3
 8000f58:	4610      	mov	r0, r2
 8000f5a:	4619      	mov	r1, r3
 8000f5c:	e8bd 0ff0 	ldmia.w	sp!, {r4, r5, r6, r7, r8, r9, sl, fp}
 8000f60:	4770      	bx	lr
 8000f62:	f1c6 0520 	rsb	r5, r6, #32
 8000f66:	fa22 f405 	lsr.w	r4, r2, r5
 8000f6a:	40b3      	lsls	r3, r6
 8000f6c:	431c      	orrs	r4, r3
 8000f6e:	ea4f 4814 	mov.w	r8, r4, lsr #16
 8000f72:	fa21 f305 	lsr.w	r3, r1, r5
 8000f76:	fa01 f706 	lsl.w	r7, r1, r6
 8000f7a:	fa20 f505 	lsr.w	r5, r0, r5
 8000f7e:	fbb3 fcf8 	udiv	ip, r3, r8
 8000f82:	432f      	orrs	r7, r5
 8000f84:	fb08 331c 	mls	r3, r8, ip, r3
 8000f88:	0c3d      	lsrs	r5, r7, #16
 8000f8a:	fa1f fa84 	uxth.w	sl, r4
 8000f8e:	ea45 4303 	orr.w	r3, r5, r3, lsl #16
 8000f92:	fb0a f90c 	mul.w	r9, sl, ip
 8000f96:	4599      	cmp	r9, r3
 8000f98:	fa02 fb06 	lsl.w	fp, r2, r6
 8000f9c:	d904      	bls.n	8000fa8 <__udivdi3+0x184>
 8000f9e:	191b      	adds	r3, r3, r4
 8000fa0:	f10c 32ff 	add.w	r2, ip, #4294967295
 8000fa4:	d36d      	bcc.n	8001082 <__udivdi3+0x25e>
 8000fa6:	4694      	mov	ip, r2
 8000fa8:	ebc9 0303 	rsb	r3, r9, r3
 8000fac:	fbb3 f5f8 	udiv	r5, r3, r8
 8000fb0:	fb08 3315 	mls	r3, r8, r5, r3
 8000fb4:	b2bf      	uxth	r7, r7
 8000fb6:	ea47 4703 	orr.w	r7, r7, r3, lsl #16
 8000fba:	fb0a f805 	mul.w	r8, sl, r5
 8000fbe:	45b8      	cmp	r8, r7
 8000fc0:	d904      	bls.n	8000fcc <__udivdi3+0x1a8>
 8000fc2:	193f      	adds	r7, r7, r4
 8000fc4:	f105 33ff 	add.w	r3, r5, #4294967295
 8000fc8:	d361      	bcc.n	800108e <__udivdi3+0x26a>
 8000fca:	461d      	mov	r5, r3
 8000fcc:	ea45 4c0c 	orr.w	ip, r5, ip, lsl #16
 8000fd0:	fbac 230b 	umull	r2, r3, ip, fp
 8000fd4:	ebc8 0707 	rsb	r7, r8, r7
 8000fd8:	429f      	cmp	r7, r3
 8000fda:	f04f 0500 	mov.w	r5, #0
 8000fde:	d349      	bcc.n	8001074 <__udivdi3+0x250>
 8000fe0:	d045      	beq.n	800106e <__udivdi3+0x24a>
 8000fe2:	4662      	mov	r2, ip
 8000fe4:	462b      	mov	r3, r5
 8000fe6:	e763      	b.n	8000eb0 <__udivdi3+0x8c>
 8000fe8:	4094      	lsls	r4, r2
 8000fea:	f1c2 0320 	rsb	r3, r2, #32
 8000fee:	fa21 fc03 	lsr.w	ip, r1, r3
 8000ff2:	0c26      	lsrs	r6, r4, #16
 8000ff4:	fa20 f303 	lsr.w	r3, r0, r3
 8000ff8:	fa01 f502 	lsl.w	r5, r1, r2
 8000ffc:	fbbc f8f6 	udiv	r8, ip, r6
 8001000:	ea43 0105 	orr.w	r1, r3, r5
 8001004:	0c0b      	lsrs	r3, r1, #16
 8001006:	fb06 cc18 	mls	ip, r6, r8, ip
 800100a:	b2a7      	uxth	r7, r4
 800100c:	ea43 4c0c 	orr.w	ip, r3, ip, lsl #16
 8001010:	fb07 f308 	mul.w	r3, r7, r8
 8001014:	4563      	cmp	r3, ip
 8001016:	fa00 f502 	lsl.w	r5, r0, r2
 800101a:	d909      	bls.n	8001030 <__udivdi3+0x20c>
 800101c:	eb1c 0c04 	adds.w	ip, ip, r4
 8001020:	f108 32ff 	add.w	r2, r8, #4294967295
 8001024:	d23a      	bcs.n	800109c <__udivdi3+0x278>
 8001026:	4563      	cmp	r3, ip
 8001028:	d938      	bls.n	800109c <__udivdi3+0x278>
 800102a:	f1a8 0802 	sub.w	r8, r8, #2
 800102e:	44a4      	add	ip, r4
 8001030:	ebc3 0c0c 	rsb	ip, r3, ip
 8001034:	fbbc f3f6 	udiv	r3, ip, r6
 8001038:	b289      	uxth	r1, r1
 800103a:	fb06 cc13 	mls	ip, r6, r3, ip
 800103e:	ea41 410c 	orr.w	r1, r1, ip, lsl #16
 8001042:	fb07 f203 	mul.w	r2, r7, r3
 8001046:	428a      	cmp	r2, r1
 8001048:	d907      	bls.n	800105a <__udivdi3+0x236>
 800104a:	1909      	adds	r1, r1, r4
 800104c:	f103 30ff 	add.w	r0, r3, #4294967295
 8001050:	d222      	bcs.n	8001098 <__udivdi3+0x274>
 8001052:	428a      	cmp	r2, r1
 8001054:	d920      	bls.n	8001098 <__udivdi3+0x274>
 8001056:	3b02      	subs	r3, #2
 8001058:	4421      	add	r1, r4
 800105a:	1a89      	subs	r1, r1, r2
 800105c:	ea43 4308 	orr.w	r3, r3, r8, lsl #16
 8001060:	e749      	b.n	8000ef6 <__udivdi3+0xd2>
 8001062:	463a      	mov	r2, r7
 8001064:	e70c      	b.n	8000e80 <__udivdi3+0x5c>
 8001066:	4633      	mov	r3, r6
 8001068:	e71f      	b.n	8000eaa <__udivdi3+0x86>
 800106a:	460a      	mov	r2, r1
 800106c:	e76b      	b.n	8000f46 <__udivdi3+0x122>
 800106e:	40b0      	lsls	r0, r6
 8001070:	4290      	cmp	r0, r2
 8001072:	d2b6      	bcs.n	8000fe2 <__udivdi3+0x1be>
 8001074:	f10c 32ff 	add.w	r2, ip, #4294967295
 8001078:	2300      	movs	r3, #0
 800107a:	e719      	b.n	8000eb0 <__udivdi3+0x8c>
 800107c:	4633      	mov	r3, r6
 800107e:	4632      	mov	r2, r6
 8001080:	e716      	b.n	8000eb0 <__udivdi3+0x8c>
 8001082:	4599      	cmp	r9, r3
 8001084:	d98f      	bls.n	8000fa6 <__udivdi3+0x182>
 8001086:	f1ac 0c02 	sub.w	ip, ip, #2
 800108a:	4423      	add	r3, r4
 800108c:	e78c      	b.n	8000fa8 <__udivdi3+0x184>
 800108e:	45b8      	cmp	r8, r7
 8001090:	d99b      	bls.n	8000fca <__udivdi3+0x1a6>
 8001092:	3d02      	subs	r5, #2
 8001094:	4427      	add	r7, r4
 8001096:	e799      	b.n	8000fcc <__udivdi3+0x1a8>
 8001098:	4603      	mov	r3, r0
 800109a:	e7de      	b.n	800105a <__udivdi3+0x236>
 800109c:	4690      	mov	r8, r2
 800109e:	e7c7      	b.n	8001030 <__udivdi3+0x20c>
 80010a0:	3802      	subs	r0, #2
 80010a2:	4421      	add	r1, r4
 80010a4:	e73a      	b.n	8000f1c <__udivdi3+0xf8>
 80010a6:	bf00      	nop

080010a8 <SysTick_Handler>:

/**
* @brief This function handles System tick timer.
*/
void SysTick_Handler(void)
{
 80010a8:	b508      	push	{r3, lr}
  /* USER CODE BEGIN SysTick_IRQn 0 */

  /* USER CODE END SysTick_IRQn 0 */
  HAL_IncTick();
 80010aa:	f002 fa4d 	bl	8003548 <HAL_IncTick>
  HAL_SYSTICK_IRQHandler();
  /* USER CODE BEGIN SysTick_IRQn 1 */

  /* USER CODE END SysTick_IRQn 1 */
}
 80010ae:	e8bd 4008 	ldmia.w	sp!, {r3, lr}
{
  /* USER CODE BEGIN SysTick_IRQn 0 */

  /* USER CODE END SysTick_IRQn 0 */
  HAL_IncTick();
  HAL_SYSTICK_IRQHandler();
 80010b2:	f002 ba20 	b.w	80034f6 <HAL_SYSTICK_IRQHandler>

080010b6 <RCC_IRQHandler>:

/**
* @brief This function handles RCC global interrupt.
*/
void RCC_IRQHandler(void)
{
 80010b6:	4770      	bx	lr

080010b8 <TIM3_IRQHandler>:
void TIM3_IRQHandler(void)
{
  /* USER CODE BEGIN TIM3_IRQn 0 */

  /* USER CODE END TIM3_IRQn 0 */
  HAL_TIM_IRQHandler(&htim3);
 80010b8:	4801      	ldr	r0, [pc, #4]	; (80010c0 <TIM3_IRQHandler+0x8>)
 80010ba:	f000 bfc1 	b.w	8002040 <HAL_TIM_IRQHandler>
 80010be:	bf00      	nop
 80010c0:	200006a0 	.word	0x200006a0

080010c4 <TIM4_IRQHandler>:
void TIM4_IRQHandler(void)
{
  /* USER CODE BEGIN TIM4_IRQn 0 */

  /* USER CODE END TIM4_IRQn 0 */
  HAL_TIM_IRQHandler(&htim4);
 80010c4:	4801      	ldr	r0, [pc, #4]	; (80010cc <TIM4_IRQHandler+0x8>)
 80010c6:	f000 bfbb 	b.w	8002040 <HAL_TIM_IRQHandler>
 80010ca:	bf00      	nop
 80010cc:	200005a0 	.word	0x200005a0

080010d0 <USART3_IRQHandler>:
void USART3_IRQHandler(void)
{
  /* USER CODE BEGIN USART3_IRQn 0 */

  /* USER CODE END USART3_IRQn 0 */
  HAL_UART_IRQHandler(&huart3);
 80010d0:	4801      	ldr	r0, [pc, #4]	; (80010d8 <USART3_IRQHandler+0x8>)
 80010d2:	f000 bca1 	b.w	8001a18 <HAL_UART_IRQHandler>
 80010d6:	bf00      	nop
 80010d8:	200005e8 	.word	0x200005e8

080010dc <TIM5_IRQHandler>:
void TIM5_IRQHandler(void)
{
  /* USER CODE BEGIN TIM5_IRQn 0 */

  /* USER CODE END TIM5_IRQn 0 */
  HAL_TIM_IRQHandler(&htim5);
 80010dc:	4801      	ldr	r0, [pc, #4]	; (80010e4 <TIM5_IRQHandler+0x8>)
 80010de:	f000 bfaf 	b.w	8002040 <HAL_TIM_IRQHandler>
 80010e2:	bf00      	nop
 80010e4:	20000664 	.word	0x20000664

080010e8 <UART5_IRQHandler>:
void UART5_IRQHandler(void)
{
  /* USER CODE BEGIN UART5_IRQn 0 */

  /* USER CODE END UART5_IRQn 0 */
  HAL_UART_IRQHandler(&huart5);
 80010e8:	4801      	ldr	r0, [pc, #4]	; (80010f0 <UART5_IRQHandler+0x8>)
 80010ea:	f000 bc95 	b.w	8001a18 <HAL_UART_IRQHandler>
 80010ee:	bf00      	nop
 80010f0:	200006e0 	.word	0x200006e0

080010f4 <HAL_MspInit>:

/**
  * Initializes the Global MSP.
  */
void HAL_MspInit(void)
{
 80010f4:	b508      	push	{r3, lr}
  /* USER CODE BEGIN MspInit 0 */

  /* USER CODE END MspInit 0 */

  HAL_NVIC_SetPriorityGrouping(NVIC_PRIORITYGROUP_4);
 80010f6:	2003      	movs	r0, #3
 80010f8:	f002 f98a 	bl	8003410 <HAL_NVIC_SetPriorityGrouping>

  /* System interrupt init*/
  /* MemoryManagement_IRQn interrupt configuration */
  HAL_NVIC_SetPriority(MemoryManagement_IRQn, 0, 0);
 80010fc:	2100      	movs	r1, #0
 80010fe:	460a      	mov	r2, r1
 8001100:	f06f 000b 	mvn.w	r0, #11
 8001104:	f002 f996 	bl	8003434 <HAL_NVIC_SetPriority>
  /* BusFault_IRQn interrupt configuration */
  HAL_NVIC_SetPriority(BusFault_IRQn, 0, 0);
 8001108:	2100      	movs	r1, #0
 800110a:	460a      	mov	r2, r1
 800110c:	f06f 000a 	mvn.w	r0, #10
 8001110:	f002 f990 	bl	8003434 <HAL_NVIC_SetPriority>
  /* UsageFault_IRQn interrupt configuration */
  HAL_NVIC_SetPriority(UsageFault_IRQn, 0, 0);
 8001114:	2100      	movs	r1, #0
 8001116:	460a      	mov	r2, r1
 8001118:	f06f 0009 	mvn.w	r0, #9
 800111c:	f002 f98a 	bl	8003434 <HAL_NVIC_SetPriority>
  /* DebugMonitor_IRQn interrupt configuration */
  HAL_NVIC_SetPriority(DebugMonitor_IRQn, 0, 0);
 8001120:	2100      	movs	r1, #0
 8001122:	460a      	mov	r2, r1
 8001124:	f06f 0003 	mvn.w	r0, #3
 8001128:	f002 f984 	bl	8003434 <HAL_NVIC_SetPriority>
  /* SysTick_IRQn interrupt configuration */
  HAL_NVIC_SetPriority(SysTick_IRQn, 0, 0);
 800112c:	2100      	movs	r1, #0
 800112e:	460a      	mov	r2, r1
 8001130:	f04f 30ff 	mov.w	r0, #4294967295
 8001134:	f002 f97e 	bl	8003434 <HAL_NVIC_SetPriority>

  /* Peripheral interrupt init*/
  /* RCC_IRQn interrupt configuration */
  HAL_NVIC_SetPriority(RCC_IRQn, 0, 0);
 8001138:	2100      	movs	r1, #0
 800113a:	2005      	movs	r0, #5
 800113c:	460a      	mov	r2, r1
 800113e:	f002 f979 	bl	8003434 <HAL_NVIC_SetPriority>
  HAL_NVIC_EnableIRQ(RCC_IRQn);
 8001142:	2005      	movs	r0, #5

  /* USER CODE BEGIN MspInit 1 */

  /* USER CODE END MspInit 1 */
}
 8001144:	e8bd 4008 	ldmia.w	sp!, {r3, lr}
  HAL_NVIC_SetPriority(SysTick_IRQn, 0, 0);

  /* Peripheral interrupt init*/
  /* RCC_IRQn interrupt configuration */
  HAL_NVIC_SetPriority(RCC_IRQn, 0, 0);
  HAL_NVIC_EnableIRQ(RCC_IRQn);
 8001148:	f002 b9a6 	b.w	8003498 <HAL_NVIC_EnableIRQ>

0800114c <HAL_TIM_Base_MspInit>:

  /* USER CODE END MspInit 1 */
}

void HAL_TIM_Base_MspInit(TIM_HandleTypeDef* htim_base)
{
 800114c:	b51f      	push	{r0, r1, r2, r3, r4, lr}

  if(htim_base->Instance==TIM3)
 800114e:	6803      	ldr	r3, [r0, #0]
 8001150:	4a21      	ldr	r2, [pc, #132]	; (80011d8 <HAL_TIM_Base_MspInit+0x8c>)
 8001152:	4293      	cmp	r3, r2
 8001154:	d111      	bne.n	800117a <HAL_TIM_Base_MspInit+0x2e>
  {
  /* USER CODE BEGIN TIM3_MspInit 0 */

  /* USER CODE END TIM3_MspInit 0 */
    /* Peripheral clock enable */
    __HAL_RCC_TIM3_CLK_ENABLE();
 8001156:	2100      	movs	r1, #0
 8001158:	4b20      	ldr	r3, [pc, #128]	; (80011dc <HAL_TIM_Base_MspInit+0x90>)
 800115a:	9101      	str	r1, [sp, #4]
 800115c:	6c1a      	ldr	r2, [r3, #64]	; 0x40
 800115e:	f042 0202 	orr.w	r2, r2, #2
 8001162:	641a      	str	r2, [r3, #64]	; 0x40
 8001164:	6c1b      	ldr	r3, [r3, #64]	; 0x40
 8001166:	f003 0302 	and.w	r3, r3, #2
 800116a:	9301      	str	r3, [sp, #4]
    /* Peripheral interrupt init */
    HAL_NVIC_SetPriority(TIM3_IRQn, 0, 0);
 800116c:	201d      	movs	r0, #29
 800116e:	460a      	mov	r2, r1
  {
  /* USER CODE BEGIN TIM3_MspInit 0 */

  /* USER CODE END TIM3_MspInit 0 */
    /* Peripheral clock enable */
    __HAL_RCC_TIM3_CLK_ENABLE();
 8001170:	9b01      	ldr	r3, [sp, #4]
    /* Peripheral interrupt init */
    HAL_NVIC_SetPriority(TIM3_IRQn, 0, 0);
 8001172:	f002 f95f 	bl	8003434 <HAL_NVIC_SetPriority>
    HAL_NVIC_EnableIRQ(TIM3_IRQn);
 8001176:	201d      	movs	r0, #29
 8001178:	e028      	b.n	80011cc <HAL_TIM_Base_MspInit+0x80>
  /* USER CODE BEGIN TIM3_MspInit 1 */

  /* USER CODE END TIM3_MspInit 1 */
  }
  else if(htim_base->Instance==TIM4)
 800117a:	4a19      	ldr	r2, [pc, #100]	; (80011e0 <HAL_TIM_Base_MspInit+0x94>)
 800117c:	4293      	cmp	r3, r2
 800117e:	d111      	bne.n	80011a4 <HAL_TIM_Base_MspInit+0x58>
  {
  /* USER CODE BEGIN TIM4_MspInit 0 */

  /* USER CODE END TIM4_MspInit 0 */
    /* Peripheral clock enable */
    __HAL_RCC_TIM4_CLK_ENABLE();
 8001180:	2100      	movs	r1, #0
 8001182:	4b16      	ldr	r3, [pc, #88]	; (80011dc <HAL_TIM_Base_MspInit+0x90>)
 8001184:	9102      	str	r1, [sp, #8]
 8001186:	6c1a      	ldr	r2, [r3, #64]	; 0x40
 8001188:	f042 0204 	orr.w	r2, r2, #4
 800118c:	641a      	str	r2, [r3, #64]	; 0x40
 800118e:	6c1b      	ldr	r3, [r3, #64]	; 0x40
 8001190:	f003 0304 	and.w	r3, r3, #4
 8001194:	9302      	str	r3, [sp, #8]
    /* Peripheral interrupt init */
    HAL_NVIC_SetPriority(TIM4_IRQn, 0, 0);
 8001196:	201e      	movs	r0, #30
 8001198:	460a      	mov	r2, r1
  {
  /* USER CODE BEGIN TIM4_MspInit 0 */

  /* USER CODE END TIM4_MspInit 0 */
    /* Peripheral clock enable */
    __HAL_RCC_TIM4_CLK_ENABLE();
 800119a:	9b02      	ldr	r3, [sp, #8]
    /* Peripheral interrupt init */
    HAL_NVIC_SetPriority(TIM4_IRQn, 0, 0);
 800119c:	f002 f94a 	bl	8003434 <HAL_NVIC_SetPriority>
    HAL_NVIC_EnableIRQ(TIM4_IRQn);
 80011a0:	201e      	movs	r0, #30
 80011a2:	e013      	b.n	80011cc <HAL_TIM_Base_MspInit+0x80>
  /* USER CODE BEGIN TIM4_MspInit 1 */

  /* USER CODE END TIM4_MspInit 1 */
  }
  else if(htim_base->Instance==TIM5)
 80011a4:	4a0f      	ldr	r2, [pc, #60]	; (80011e4 <HAL_TIM_Base_MspInit+0x98>)
 80011a6:	4293      	cmp	r3, r2
 80011a8:	d112      	bne.n	80011d0 <HAL_TIM_Base_MspInit+0x84>
  {
  /* USER CODE BEGIN TIM5_MspInit 0 */

  /* USER CODE END TIM5_MspInit 0 */
    /* Peripheral clock enable */
    __HAL_RCC_TIM5_CLK_ENABLE();
 80011aa:	2100      	movs	r1, #0
 80011ac:	4b0b      	ldr	r3, [pc, #44]	; (80011dc <HAL_TIM_Base_MspInit+0x90>)
 80011ae:	9103      	str	r1, [sp, #12]
 80011b0:	6c1a      	ldr	r2, [r3, #64]	; 0x40
 80011b2:	f042 0208 	orr.w	r2, r2, #8
 80011b6:	641a      	str	r2, [r3, #64]	; 0x40
 80011b8:	6c1b      	ldr	r3, [r3, #64]	; 0x40
 80011ba:	f003 0308 	and.w	r3, r3, #8
 80011be:	9303      	str	r3, [sp, #12]
    /* Peripheral interrupt init */
    HAL_NVIC_SetPriority(TIM5_IRQn, 0, 0);
 80011c0:	2032      	movs	r0, #50	; 0x32
 80011c2:	460a      	mov	r2, r1
  {
  /* USER CODE BEGIN TIM5_MspInit 0 */

  /* USER CODE END TIM5_MspInit 0 */
    /* Peripheral clock enable */
    __HAL_RCC_TIM5_CLK_ENABLE();
 80011c4:	9b03      	ldr	r3, [sp, #12]
    /* Peripheral interrupt init */
    HAL_NVIC_SetPriority(TIM5_IRQn, 0, 0);
 80011c6:	f002 f935 	bl	8003434 <HAL_NVIC_SetPriority>
    HAL_NVIC_EnableIRQ(TIM5_IRQn);
 80011ca:	2032      	movs	r0, #50	; 0x32
 80011cc:	f002 f964 	bl	8003498 <HAL_NVIC_EnableIRQ>
  /* USER CODE BEGIN TIM5_MspInit 1 */

  /* USER CODE END TIM5_MspInit 1 */
  }

}
 80011d0:	b005      	add	sp, #20
 80011d2:	f85d fb04 	ldr.w	pc, [sp], #4
 80011d6:	bf00      	nop
 80011d8:	40000400 	.word	0x40000400
 80011dc:	40023800 	.word	0x40023800
 80011e0:	40000800 	.word	0x40000800
 80011e4:	40000c00 	.word	0x40000c00

080011e8 <HAL_UART_MspInit>:
  }

}

void HAL_UART_MspInit(UART_HandleTypeDef* huart)
{
 80011e8:	e92d 41f0 	stmdb	sp!, {r4, r5, r6, r7, r8, lr}

  GPIO_InitTypeDef GPIO_InitStruct;
  if(huart->Instance==UART5)
 80011ec:	6803      	ldr	r3, [r0, #0]
 80011ee:	4a2e      	ldr	r2, [pc, #184]	; (80012a8 <HAL_UART_MspInit+0xc0>)
 80011f0:	4293      	cmp	r3, r2
  }

}

void HAL_UART_MspInit(UART_HandleTypeDef* huart)
{
 80011f2:	b088      	sub	sp, #32

  GPIO_InitTypeDef GPIO_InitStruct;
  if(huart->Instance==UART5)
 80011f4:	d12e      	bne.n	8001254 <HAL_UART_MspInit+0x6c>
  {
  /* USER CODE BEGIN UART5_MspInit 0 */

  /* USER CODE END UART5_MspInit 0 */
    /* Peripheral clock enable */
    __HAL_RCC_UART5_CLK_ENABLE();
 80011f6:	2400      	movs	r4, #0
 80011f8:	4b2c      	ldr	r3, [pc, #176]	; (80012ac <HAL_UART_MspInit+0xc4>)
 80011fa:	9401      	str	r4, [sp, #4]
 80011fc:	6c1a      	ldr	r2, [r3, #64]	; 0x40
    GPIO_InitStruct.Pin = GPIO_PIN_12;
    GPIO_InitStruct.Mode = GPIO_MODE_AF_PP;
    GPIO_InitStruct.Pull = GPIO_PULLUP;
    GPIO_InitStruct.Speed = GPIO_SPEED_FREQ_VERY_HIGH;
    GPIO_InitStruct.Alternate = GPIO_AF8_UART5;
    HAL_GPIO_Init(GPIOC, &GPIO_InitStruct);
 80011fe:	482c      	ldr	r0, [pc, #176]	; (80012b0 <HAL_UART_MspInit+0xc8>)
  {
  /* USER CODE BEGIN UART5_MspInit 0 */

  /* USER CODE END UART5_MspInit 0 */
    /* Peripheral clock enable */
    __HAL_RCC_UART5_CLK_ENABLE();
 8001200:	f442 1280 	orr.w	r2, r2, #1048576	; 0x100000
 8001204:	641a      	str	r2, [r3, #64]	; 0x40
 8001206:	6c1b      	ldr	r3, [r3, #64]	; 0x40
 8001208:	f403 1380 	and.w	r3, r3, #1048576	; 0x100000
 800120c:	9301      	str	r3, [sp, #4]
 800120e:	9b01      	ldr	r3, [sp, #4]
    /**UART5 GPIO Configuration    
    PC12     ------> UART5_TX
    PD2     ------> UART5_RX 
    */
    GPIO_InitStruct.Pin = GPIO_PIN_12;
    GPIO_InitStruct.Mode = GPIO_MODE_AF_PP;
 8001210:	f04f 0802 	mov.w	r8, #2
  
    /**UART5 GPIO Configuration    
    PC12     ------> UART5_TX
    PD2     ------> UART5_RX 
    */
    GPIO_InitStruct.Pin = GPIO_PIN_12;
 8001214:	f44f 5380 	mov.w	r3, #4096	; 0x1000
    GPIO_InitStruct.Mode = GPIO_MODE_AF_PP;
    GPIO_InitStruct.Pull = GPIO_PULLUP;
 8001218:	2701      	movs	r7, #1
    GPIO_InitStruct.Speed = GPIO_SPEED_FREQ_VERY_HIGH;
 800121a:	2603      	movs	r6, #3
    GPIO_InitStruct.Alternate = GPIO_AF8_UART5;
 800121c:	2508      	movs	r5, #8
    HAL_GPIO_Init(GPIOC, &GPIO_InitStruct);
 800121e:	a903      	add	r1, sp, #12
  
    /**UART5 GPIO Configuration    
    PC12     ------> UART5_TX
    PD2     ------> UART5_RX 
    */
    GPIO_InitStruct.Pin = GPIO_PIN_12;
 8001220:	9303      	str	r3, [sp, #12]
    GPIO_InitStruct.Mode = GPIO_MODE_AF_PP;
 8001222:	f8cd 8010 	str.w	r8, [sp, #16]
    GPIO_InitStruct.Pull = GPIO_PULLUP;
 8001226:	9705      	str	r7, [sp, #20]
    GPIO_InitStruct.Speed = GPIO_SPEED_FREQ_VERY_HIGH;
 8001228:	9606      	str	r6, [sp, #24]
    GPIO_InitStruct.Alternate = GPIO_AF8_UART5;
 800122a:	9507      	str	r5, [sp, #28]
    HAL_GPIO_Init(GPIOC, &GPIO_InitStruct);
 800122c:	f001 fff4 	bl	8003218 <HAL_GPIO_Init>

    GPIO_InitStruct.Pin = GPIO_PIN_2;
 8001230:	2304      	movs	r3, #4
    GPIO_InitStruct.Mode = GPIO_MODE_AF_PP;
    GPIO_InitStruct.Pull = GPIO_PULLUP;
    GPIO_InitStruct.Speed = GPIO_SPEED_FREQ_VERY_HIGH;
    GPIO_InitStruct.Alternate = GPIO_AF8_UART5;
    HAL_GPIO_Init(GPIOD, &GPIO_InitStruct);
 8001232:	4820      	ldr	r0, [pc, #128]	; (80012b4 <HAL_UART_MspInit+0xcc>)
    GPIO_InitStruct.Pull = GPIO_PULLUP;
    GPIO_InitStruct.Speed = GPIO_SPEED_FREQ_VERY_HIGH;
    GPIO_InitStruct.Alternate = GPIO_AF8_UART5;
    HAL_GPIO_Init(GPIOC, &GPIO_InitStruct);

    GPIO_InitStruct.Pin = GPIO_PIN_2;
 8001234:	9303      	str	r3, [sp, #12]
    GPIO_InitStruct.Mode = GPIO_MODE_AF_PP;
    GPIO_InitStruct.Pull = GPIO_PULLUP;
    GPIO_InitStruct.Speed = GPIO_SPEED_FREQ_VERY_HIGH;
    GPIO_InitStruct.Alternate = GPIO_AF8_UART5;
    HAL_GPIO_Init(GPIOD, &GPIO_InitStruct);
 8001236:	a903      	add	r1, sp, #12
    GPIO_InitStruct.Speed = GPIO_SPEED_FREQ_VERY_HIGH;
    GPIO_InitStruct.Alternate = GPIO_AF8_UART5;
    HAL_GPIO_Init(GPIOC, &GPIO_InitStruct);

    GPIO_InitStruct.Pin = GPIO_PIN_2;
    GPIO_InitStruct.Mode = GPIO_MODE_AF_PP;
 8001238:	f8cd 8010 	str.w	r8, [sp, #16]
    GPIO_InitStruct.Pull = GPIO_PULLUP;
 800123c:	9705      	str	r7, [sp, #20]
    GPIO_InitStruct.Speed = GPIO_SPEED_FREQ_VERY_HIGH;
 800123e:	9606      	str	r6, [sp, #24]
    GPIO_InitStruct.Alternate = GPIO_AF8_UART5;
 8001240:	9507      	str	r5, [sp, #28]
    HAL_GPIO_Init(GPIOD, &GPIO_InitStruct);
 8001242:	f001 ffe9 	bl	8003218 <HAL_GPIO_Init>

    /* Peripheral interrupt init */
    HAL_NVIC_SetPriority(UART5_IRQn, 0, 0);
 8001246:	2035      	movs	r0, #53	; 0x35
 8001248:	4621      	mov	r1, r4
 800124a:	4622      	mov	r2, r4
 800124c:	f002 f8f2 	bl	8003434 <HAL_NVIC_SetPriority>
    HAL_NVIC_EnableIRQ(UART5_IRQn);
 8001250:	2035      	movs	r0, #53	; 0x35
 8001252:	e023      	b.n	800129c <HAL_UART_MspInit+0xb4>
  /* USER CODE BEGIN UART5_MspInit 1 */

  /* USER CODE END UART5_MspInit 1 */
  }
  else if(huart->Instance==USART3)
 8001254:	4a18      	ldr	r2, [pc, #96]	; (80012b8 <HAL_UART_MspInit+0xd0>)
 8001256:	4293      	cmp	r3, r2
 8001258:	d122      	bne.n	80012a0 <HAL_UART_MspInit+0xb8>
  {
  /* USER CODE BEGIN USART3_MspInit 0 */

  /* USER CODE END USART3_MspInit 0 */
    /* Peripheral clock enable */
    __HAL_RCC_USART3_CLK_ENABLE();
 800125a:	2400      	movs	r4, #0
 800125c:	4b13      	ldr	r3, [pc, #76]	; (80012ac <HAL_UART_MspInit+0xc4>)
 800125e:	9402      	str	r4, [sp, #8]
 8001260:	6c1a      	ldr	r2, [r3, #64]	; 0x40
    GPIO_InitStruct.Pin = STLK_RX_Pin|STLK_TX_Pin;
    GPIO_InitStruct.Mode = GPIO_MODE_AF_PP;
    GPIO_InitStruct.Pull = GPIO_PULLUP;
    GPIO_InitStruct.Speed = GPIO_SPEED_FREQ_VERY_HIGH;
    GPIO_InitStruct.Alternate = GPIO_AF7_USART3;
    HAL_GPIO_Init(GPIOD, &GPIO_InitStruct);
 8001262:	4814      	ldr	r0, [pc, #80]	; (80012b4 <HAL_UART_MspInit+0xcc>)
  {
  /* USER CODE BEGIN USART3_MspInit 0 */

  /* USER CODE END USART3_MspInit 0 */
    /* Peripheral clock enable */
    __HAL_RCC_USART3_CLK_ENABLE();
 8001264:	f442 2280 	orr.w	r2, r2, #262144	; 0x40000
 8001268:	641a      	str	r2, [r3, #64]	; 0x40
 800126a:	6c1b      	ldr	r3, [r3, #64]	; 0x40
 800126c:	f403 2380 	and.w	r3, r3, #262144	; 0x40000
 8001270:	9302      	str	r3, [sp, #8]
 8001272:	9b02      	ldr	r3, [sp, #8]
  
    /**USART3 GPIO Configuration    
    PD8     ------> USART3_TX
    PD9     ------> USART3_RX 
    */
    GPIO_InitStruct.Pin = STLK_RX_Pin|STLK_TX_Pin;
 8001274:	f44f 7340 	mov.w	r3, #768	; 0x300
 8001278:	9303      	str	r3, [sp, #12]
    GPIO_InitStruct.Mode = GPIO_MODE_AF_PP;
 800127a:	2302      	movs	r3, #2
 800127c:	9304      	str	r3, [sp, #16]
    GPIO_InitStruct.Pull = GPIO_PULLUP;
 800127e:	2301      	movs	r3, #1
 8001280:	9305      	str	r3, [sp, #20]
    GPIO_InitStruct.Speed = GPIO_SPEED_FREQ_VERY_HIGH;
 8001282:	2303      	movs	r3, #3
 8001284:	9306      	str	r3, [sp, #24]
    GPIO_InitStruct.Alternate = GPIO_AF7_USART3;
    HAL_GPIO_Init(GPIOD, &GPIO_InitStruct);
 8001286:	a903      	add	r1, sp, #12
    */
    GPIO_InitStruct.Pin = STLK_RX_Pin|STLK_TX_Pin;
    GPIO_InitStruct.Mode = GPIO_MODE_AF_PP;
    GPIO_InitStruct.Pull = GPIO_PULLUP;
    GPIO_InitStruct.Speed = GPIO_SPEED_FREQ_VERY_HIGH;
    GPIO_InitStruct.Alternate = GPIO_AF7_USART3;
 8001288:	2307      	movs	r3, #7
 800128a:	9307      	str	r3, [sp, #28]
    HAL_GPIO_Init(GPIOD, &GPIO_InitStruct);
 800128c:	f001 ffc4 	bl	8003218 <HAL_GPIO_Init>

    /* Peripheral interrupt init */
    HAL_NVIC_SetPriority(USART3_IRQn, 0, 0);
 8001290:	2027      	movs	r0, #39	; 0x27
 8001292:	4621      	mov	r1, r4
 8001294:	4622      	mov	r2, r4
 8001296:	f002 f8cd 	bl	8003434 <HAL_NVIC_SetPriority>
    HAL_NVIC_EnableIRQ(USART3_IRQn);
 800129a:	2027      	movs	r0, #39	; 0x27
 800129c:	f002 f8fc 	bl	8003498 <HAL_NVIC_EnableIRQ>
  /* USER CODE BEGIN USART3_MspInit 1 */

  /* USER CODE END USART3_MspInit 1 */
  }

}
 80012a0:	b008      	add	sp, #32
 80012a2:	e8bd 81f0 	ldmia.w	sp!, {r4, r5, r6, r7, r8, pc}
 80012a6:	bf00      	nop
 80012a8:	40005000 	.word	0x40005000
 80012ac:	40023800 	.word	0x40023800
 80012b0:	40020800 	.word	0x40020800
 80012b4:	40020c00 	.word	0x40020c00
 80012b8:	40004800 	.word	0x40004800
 80012bc:	00000000 	.word	0x00000000

080012c0 <HAL_TIM_PeriodElapsedCallback>:

/* USER CODE END PFP */

/* USER CODE BEGIN 0 */
void HAL_TIM_PeriodElapsedCallback(TIM_HandleTypeDef *htim)
{
 80012c0:	b530      	push	{r4, r5, lr}
	static int	n=0;
	char s[20];

	if(htim->Instance==TIM3) {
 80012c2:	6803      	ldr	r3, [r0, #0]
 80012c4:	4a34      	ldr	r2, [pc, #208]	; (8001398 <HAL_TIM_PeriodElapsedCallback+0xd8>)
 80012c6:	4c35      	ldr	r4, [pc, #212]	; (800139c <HAL_TIM_PeriodElapsedCallback+0xdc>)
 80012c8:	4293      	cmp	r3, r2

/* USER CODE END PFP */

/* USER CODE BEGIN 0 */
void HAL_TIM_PeriodElapsedCallback(TIM_HandleTypeDef *htim)
{
 80012ca:	b089      	sub	sp, #36	; 0x24
	static int	n=0;
	char s[20];

	if(htim->Instance==TIM3) {
 80012cc:	d116      	bne.n	80012fc <HAL_TIM_PeriodElapsedCallback+0x3c>
		HAL_GPIO_TogglePin(GPIOB,  GPIO_PIN_15 | GPIO_PIN_0);
 80012ce:	4834      	ldr	r0, [pc, #208]	; (80013a0 <HAL_TIM_PeriodElapsedCallback+0xe0>)
 80012d0:	f248 0101 	movw	r1, #32769	; 0x8001
 80012d4:	f002 f898 	bl	8003408 <HAL_GPIO_TogglePin>
	    sprintf(s,"%3d : %10.5lf\r\n",n,sin(n*PI/180));
 80012d8:	6825      	ldr	r5, [r4, #0]
 80012da:	4628      	mov	r0, r5
 80012dc:	f7ff f8e6 	bl	80004ac <__aeabi_i2d>
 80012e0:	a32b      	add	r3, pc, #172	; (adr r3, 8001390 <HAL_TIM_PeriodElapsedCallback+0xd0>)
 80012e2:	e9d3 2300 	ldrd	r2, r3, [r3]
 80012e6:	f7ff f947 	bl	8000578 <__aeabi_dmul>
 80012ea:	2200      	movs	r2, #0
 80012ec:	4b2d      	ldr	r3, [pc, #180]	; (80013a4 <HAL_TIM_PeriodElapsedCallback+0xe4>)
 80012ee:	f7ff fa6d 	bl	80007cc <__aeabi_ddiv>
 80012f2:	ec41 0b10 	vmov	d0, r0, r1
 80012f6:	f005 f8ff 	bl	80064f8 <sin>
 80012fa:	e032      	b.n	8001362 <HAL_TIM_PeriodElapsedCallback+0xa2>
		HAL_UART_Transmit(&huart3, (uint8_t *)s,18 ,1000);
	}
	else if(htim->Instance==TIM4) {
 80012fc:	4a2a      	ldr	r2, [pc, #168]	; (80013a8 <HAL_TIM_PeriodElapsedCallback+0xe8>)
 80012fe:	4293      	cmp	r3, r2
 8001300:	d116      	bne.n	8001330 <HAL_TIM_PeriodElapsedCallback+0x70>
		HAL_GPIO_TogglePin(GPIOB,  LD2_Pin | GPIO_PIN_13);
 8001302:	4827      	ldr	r0, [pc, #156]	; (80013a0 <HAL_TIM_PeriodElapsedCallback+0xe0>)
 8001304:	f44f 5102 	mov.w	r1, #8320	; 0x2080
 8001308:	f002 f87e 	bl	8003408 <HAL_GPIO_TogglePin>
	    sprintf(s,"%3d : %10.5lf\r\n",n,cos(n*PI/180));
 800130c:	6825      	ldr	r5, [r4, #0]
 800130e:	4628      	mov	r0, r5
 8001310:	f7ff f8cc 	bl	80004ac <__aeabi_i2d>
 8001314:	a31e      	add	r3, pc, #120	; (adr r3, 8001390 <HAL_TIM_PeriodElapsedCallback+0xd0>)
 8001316:	e9d3 2300 	ldrd	r2, r3, [r3]
 800131a:	f7ff f92d 	bl	8000578 <__aeabi_dmul>
 800131e:	2200      	movs	r2, #0
 8001320:	4b20      	ldr	r3, [pc, #128]	; (80013a4 <HAL_TIM_PeriodElapsedCallback+0xe4>)
 8001322:	f7ff fa53 	bl	80007cc <__aeabi_ddiv>
 8001326:	ec41 0b10 	vmov	d0, r0, r1
 800132a:	f005 f8a1 	bl	8006470 <cos>
 800132e:	e018      	b.n	8001362 <HAL_TIM_PeriodElapsedCallback+0xa2>
		HAL_UART_Transmit(&huart3, (uint8_t *)s,18 ,1000);
	}
	else if(htim->Instance==TIM5) {
 8001330:	4a1e      	ldr	r2, [pc, #120]	; (80013ac <HAL_TIM_PeriodElapsedCallback+0xec>)
 8001332:	4293      	cmp	r3, r2
 8001334:	d123      	bne.n	800137e <HAL_TIM_PeriodElapsedCallback+0xbe>
		HAL_GPIO_TogglePin(GPIOB,  LD3_Pin | GPIO_PIN_12);
 8001336:	481a      	ldr	r0, [pc, #104]	; (80013a0 <HAL_TIM_PeriodElapsedCallback+0xe0>)
 8001338:	f44f 41a0 	mov.w	r1, #20480	; 0x5000
 800133c:	f002 f864 	bl	8003408 <HAL_GPIO_TogglePin>
	    sprintf(s,"%3d : %10.5lf\r\n",n,exp(n*PI/180));
 8001340:	6825      	ldr	r5, [r4, #0]
 8001342:	4628      	mov	r0, r5
 8001344:	f7ff f8b2 	bl	80004ac <__aeabi_i2d>
 8001348:	a311      	add	r3, pc, #68	; (adr r3, 8001390 <HAL_TIM_PeriodElapsedCallback+0xd0>)
 800134a:	e9d3 2300 	ldrd	r2, r3, [r3]
 800134e:	f7ff f913 	bl	8000578 <__aeabi_dmul>
 8001352:	2200      	movs	r2, #0
 8001354:	4b13      	ldr	r3, [pc, #76]	; (80013a4 <HAL_TIM_PeriodElapsedCallback+0xe4>)
 8001356:	f7ff fa39 	bl	80007cc <__aeabi_ddiv>
 800135a:	ec41 0b10 	vmov	d0, r0, r1
 800135e:	f005 f913 	bl	8006588 <exp>
 8001362:	4913      	ldr	r1, [pc, #76]	; (80013b0 <HAL_TIM_PeriodElapsedCallback+0xf0>)
 8001364:	462a      	mov	r2, r5
 8001366:	ed8d 0b00 	vstr	d0, [sp]
 800136a:	a803      	add	r0, sp, #12
 800136c:	f002 f982 	bl	8003674 <sprintf>
		HAL_UART_Transmit(&huart3, (uint8_t *)s,18 ,1000);
 8001370:	4810      	ldr	r0, [pc, #64]	; (80013b4 <HAL_TIM_PeriodElapsedCallback+0xf4>)
 8001372:	a903      	add	r1, sp, #12
 8001374:	2212      	movs	r2, #18
 8001376:	f44f 737a 	mov.w	r3, #1000	; 0x3e8
 800137a:	f000 faef 	bl	800195c <HAL_UART_Transmit>
	}
	if(++n==91) n = 0;
 800137e:	6822      	ldr	r2, [r4, #0]
 8001380:	4b06      	ldr	r3, [pc, #24]	; (800139c <HAL_TIM_PeriodElapsedCallback+0xdc>)
 8001382:	3201      	adds	r2, #1
 8001384:	2a5b      	cmp	r2, #91	; 0x5b
 8001386:	bf08      	it	eq
 8001388:	2200      	moveq	r2, #0
 800138a:	601a      	str	r2, [r3, #0]

}
 800138c:	b009      	add	sp, #36	; 0x24
 800138e:	bd30      	pop	{r4, r5, pc}
 8001390:	fc8b007a 	.word	0xfc8b007a
 8001394:	400921fa 	.word	0x400921fa
 8001398:	40000400 	.word	0x40000400
 800139c:	20000560 	.word	0x20000560
 80013a0:	40020400 	.word	0x40020400
 80013a4:	40668000 	.word	0x40668000
 80013a8:	40000800 	.word	0x40000800
 80013ac:	40000c00 	.word	0x40000c00
 80013b0:	08007a20 	.word	0x08007a20
 80013b4:	200005e8 	.word	0x200005e8

080013b8 <HAL_UART_RxCpltCallback>:

void HAL_UART_RxCpltCallback(UART_HandleTypeDef *huart)
{
	uint8_t	i;

	if(huart->Instance==USART3)
 80013b8:	6803      	ldr	r3, [r0, #0]
 80013ba:	4a28      	ldr	r2, [pc, #160]	; (800145c <HAL_UART_RxCpltCallback+0xa4>)
 80013bc:	4293      	cmp	r3, r2
	if(++n==91) n = 0;

}

void HAL_UART_RxCpltCallback(UART_HandleTypeDef *huart)
{
 80013be:	b510      	push	{r4, lr}
	uint8_t	i;

	if(huart->Instance==USART3)
 80013c0:	d120      	bne.n	8001404 <HAL_UART_RxCpltCallback+0x4c>
	{
		if(Rx_Indx3==0)
 80013c2:	4927      	ldr	r1, [pc, #156]	; (8001460 <HAL_UART_RxCpltCallback+0xa8>)
 80013c4:	780b      	ldrb	r3, [r1, #0]
 80013c6:	b143      	cbz	r3, 80013da <HAL_UART_RxCpltCallback+0x22>
		{
			for(i=0;i<DATA;i++) Rx_Buffer3[i] = 0;
		}
		if(Rx_Data3[0]!=0x0d)
 80013c8:	4a26      	ldr	r2, [pc, #152]	; (8001464 <HAL_UART_RxCpltCallback+0xac>)
 80013ca:	7812      	ldrb	r2, [r2, #0]
 80013cc:	2a0d      	cmp	r2, #13
 80013ce:	d00c      	beq.n	80013ea <HAL_UART_RxCpltCallback+0x32>
		{
			Rx_Buffer3[Rx_Indx3++]=Rx_Data3[0];
 80013d0:	1c58      	adds	r0, r3, #1
 80013d2:	7008      	strb	r0, [r1, #0]
 80013d4:	4924      	ldr	r1, [pc, #144]	; (8001468 <HAL_UART_RxCpltCallback+0xb0>)
 80013d6:	54ca      	strb	r2, [r1, r3]
 80013d8:	e00c      	b.n	80013f4 <HAL_UART_RxCpltCallback+0x3c>
{
	uint8_t	i;

	if(huart->Instance==USART3)
	{
		if(Rx_Indx3==0)
 80013da:	461a      	mov	r2, r3
		{
			for(i=0;i<DATA;i++) Rx_Buffer3[i] = 0;
 80013dc:	4822      	ldr	r0, [pc, #136]	; (8001468 <HAL_UART_RxCpltCallback+0xb0>)
 80013de:	2400      	movs	r4, #0
 80013e0:	5414      	strb	r4, [r2, r0]
 80013e2:	3201      	adds	r2, #1
 80013e4:	2a0a      	cmp	r2, #10
 80013e6:	d1f9      	bne.n	80013dc <HAL_UART_RxCpltCallback+0x24>
 80013e8:	e7ee      	b.n	80013c8 <HAL_UART_RxCpltCallback+0x10>
		{
			Rx_Buffer3[Rx_Indx3++]=Rx_Data3[0];
		}
		else
		{
			Rx_Indx3 = 0;
 80013ea:	2300      	movs	r3, #0
 80013ec:	700b      	strb	r3, [r1, #0]
			Transfer_cplt3 = 1;
 80013ee:	4b1f      	ldr	r3, [pc, #124]	; (800146c <HAL_UART_RxCpltCallback+0xb4>)
 80013f0:	2201      	movs	r2, #1
 80013f2:	701a      	strb	r2, [r3, #0]
		}
		HAL_UART_Receive_IT(&huart3, Rx_Data3, 1);
 80013f4:	491b      	ldr	r1, [pc, #108]	; (8001464 <HAL_UART_RxCpltCallback+0xac>)
 80013f6:	481e      	ldr	r0, [pc, #120]	; (8001470 <HAL_UART_RxCpltCallback+0xb8>)
 80013f8:	2201      	movs	r2, #1
 80013fa:	f000 fa19 	bl	8001830 <HAL_UART_Receive_IT>
		HAL_UART_Transmit(&huart3, Rx_Data3, 1,1000);
 80013fe:	481c      	ldr	r0, [pc, #112]	; (8001470 <HAL_UART_RxCpltCallback+0xb8>)
 8001400:	4918      	ldr	r1, [pc, #96]	; (8001464 <HAL_UART_RxCpltCallback+0xac>)
 8001402:	e022      	b.n	800144a <HAL_UART_RxCpltCallback+0x92>
			Transfer_cplt4 = 1;
		}
		HAL_UART_Receive_IT(&huart4, Rx_Data4, 1);
		HAL_UART_Transmit(&huart4, Rx_Data4, 1,1000);
	} */
	else if(huart->Instance==UART5)
 8001404:	4a1b      	ldr	r2, [pc, #108]	; (8001474 <HAL_UART_RxCpltCallback+0xbc>)
 8001406:	4293      	cmp	r3, r2
 8001408:	d126      	bne.n	8001458 <HAL_UART_RxCpltCallback+0xa0>
	{
		if(Rx_Indx5==0)
 800140a:	491b      	ldr	r1, [pc, #108]	; (8001478 <HAL_UART_RxCpltCallback+0xc0>)
 800140c:	780b      	ldrb	r3, [r1, #0]
 800140e:	b143      	cbz	r3, 8001422 <HAL_UART_RxCpltCallback+0x6a>
		{
			for(i=0;i<DATA;i++) Rx_Buffer5[i] = 0;
		}
		if(Rx_Data5[0]!=0x0d)
 8001410:	4a1a      	ldr	r2, [pc, #104]	; (800147c <HAL_UART_RxCpltCallback+0xc4>)
 8001412:	7812      	ldrb	r2, [r2, #0]
 8001414:	2a0d      	cmp	r2, #13
 8001416:	d00c      	beq.n	8001432 <HAL_UART_RxCpltCallback+0x7a>
		{
			Rx_Buffer5[Rx_Indx5++]=Rx_Data5[0];
 8001418:	1c58      	adds	r0, r3, #1
 800141a:	7008      	strb	r0, [r1, #0]
 800141c:	4918      	ldr	r1, [pc, #96]	; (8001480 <HAL_UART_RxCpltCallback+0xc8>)
 800141e:	54ca      	strb	r2, [r1, r3]
 8001420:	e00c      	b.n	800143c <HAL_UART_RxCpltCallback+0x84>
		HAL_UART_Receive_IT(&huart4, Rx_Data4, 1);
		HAL_UART_Transmit(&huart4, Rx_Data4, 1,1000);
	} */
	else if(huart->Instance==UART5)
	{
		if(Rx_Indx5==0)
 8001422:	461a      	mov	r2, r3
		{
			for(i=0;i<DATA;i++) Rx_Buffer5[i] = 0;
 8001424:	4816      	ldr	r0, [pc, #88]	; (8001480 <HAL_UART_RxCpltCallback+0xc8>)
 8001426:	2400      	movs	r4, #0
 8001428:	5414      	strb	r4, [r2, r0]
 800142a:	3201      	adds	r2, #1
 800142c:	2a0a      	cmp	r2, #10
 800142e:	d1f9      	bne.n	8001424 <HAL_UART_RxCpltCallback+0x6c>
 8001430:	e7ee      	b.n	8001410 <HAL_UART_RxCpltCallback+0x58>
		{
			Rx_Buffer5[Rx_Indx5++]=Rx_Data5[0];
		}
		else
		{
			Rx_Indx5 = 0;
 8001432:	2300      	movs	r3, #0
 8001434:	700b      	strb	r3, [r1, #0]
			Transfer_cplt5 = 1;
 8001436:	4b13      	ldr	r3, [pc, #76]	; (8001484 <HAL_UART_RxCpltCallback+0xcc>)
 8001438:	2201      	movs	r2, #1
 800143a:	701a      	strb	r2, [r3, #0]
		}
		HAL_UART_Receive_IT(&huart5, Rx_Data5, 1);
 800143c:	490f      	ldr	r1, [pc, #60]	; (800147c <HAL_UART_RxCpltCallback+0xc4>)
 800143e:	4812      	ldr	r0, [pc, #72]	; (8001488 <HAL_UART_RxCpltCallback+0xd0>)
 8001440:	2201      	movs	r2, #1
 8001442:	f000 f9f5 	bl	8001830 <HAL_UART_Receive_IT>
		HAL_UART_Transmit(&huart5, Rx_Data5, 1,1000);
 8001446:	4810      	ldr	r0, [pc, #64]	; (8001488 <HAL_UART_RxCpltCallback+0xd0>)
 8001448:	490c      	ldr	r1, [pc, #48]	; (800147c <HAL_UART_RxCpltCallback+0xc4>)
 800144a:	2201      	movs	r2, #1
 800144c:	f44f 737a 	mov.w	r3, #1000	; 0x3e8
	}
}
 8001450:	e8bd 4010 	ldmia.w	sp!, {r4, lr}
		{
			Rx_Indx5 = 0;
			Transfer_cplt5 = 1;
		}
		HAL_UART_Receive_IT(&huart5, Rx_Data5, 1);
		HAL_UART_Transmit(&huart5, Rx_Data5, 1,1000);
 8001454:	f000 ba82 	b.w	800195c <HAL_UART_Transmit>
 8001458:	bd10      	pop	{r4, pc}
 800145a:	bf00      	nop
 800145c:	40004800 	.word	0x40004800
 8001460:	20000756 	.word	0x20000756
 8001464:	20000753 	.word	0x20000753
 8001468:	200005dc 	.word	0x200005dc
 800146c:	2000075a 	.word	0x2000075a
 8001470:	200005e8 	.word	0x200005e8
 8001474:	40005000 	.word	0x40005000
 8001478:	200006dc 	.word	0x200006dc
 800147c:	20000758 	.word	0x20000758
 8001480:	20000658 	.word	0x20000658
 8001484:	20000755 	.word	0x20000755
 8001488:	200006e0 	.word	0x200006e0

0800148c <SystemClock_Config>:
}

/** System Clock Configuration
*/
void SystemClock_Config(void)
{
 800148c:	b570      	push	{r4, r5, r6, lr}
 800148e:	b0b4      	sub	sp, #208	; 0xd0

  RCC_OscInitTypeDef RCC_OscInitStruct;
  RCC_ClkInitTypeDef RCC_ClkInitStruct;
  RCC_PeriphCLKInitTypeDef PeriphClkInitStruct;

  __HAL_RCC_PWR_CLK_ENABLE();
 8001490:	2400      	movs	r4, #0
 8001492:	4b2a      	ldr	r3, [pc, #168]	; (800153c <SystemClock_Config+0xb0>)
 8001494:	9400      	str	r4, [sp, #0]
 8001496:	6c1a      	ldr	r2, [r3, #64]	; 0x40
 8001498:	f042 5280 	orr.w	r2, r2, #268435456	; 0x10000000
 800149c:	641a      	str	r2, [r3, #64]	; 0x40
 800149e:	6c1b      	ldr	r3, [r3, #64]	; 0x40
 80014a0:	f003 5380 	and.w	r3, r3, #268435456	; 0x10000000
 80014a4:	9300      	str	r3, [sp, #0]
 80014a6:	9b00      	ldr	r3, [sp, #0]

  __HAL_PWR_VOLTAGESCALING_CONFIG(PWR_REGULATOR_VOLTAGE_SCALE1);
 80014a8:	4b25      	ldr	r3, [pc, #148]	; (8001540 <SystemClock_Config+0xb4>)
 80014aa:	9401      	str	r4, [sp, #4]
 80014ac:	681a      	ldr	r2, [r3, #0]
 80014ae:	f442 4240 	orr.w	r2, r2, #49152	; 0xc000
 80014b2:	601a      	str	r2, [r3, #0]
 80014b4:	681b      	ldr	r3, [r3, #0]
 80014b6:	f403 4340 	and.w	r3, r3, #49152	; 0xc000
 80014ba:	9301      	str	r3, [sp, #4]
 80014bc:	9b01      	ldr	r3, [sp, #4]

  RCC_OscInitStruct.OscillatorType = RCC_OSCILLATORTYPE_HSE;
 80014be:	2301      	movs	r3, #1
 80014c0:	9307      	str	r3, [sp, #28]
  RCC_OscInitStruct.HSEState = RCC_HSE_ON;
 80014c2:	f44f 3380 	mov.w	r3, #65536	; 0x10000
 80014c6:	9308      	str	r3, [sp, #32]
  RCC_OscInitStruct.PLL.PLLState = RCC_PLL_ON;
  RCC_OscInitStruct.PLL.PLLSource = RCC_PLLSOURCE_HSE;
 80014c8:	f44f 0380 	mov.w	r3, #4194304	; 0x400000

  __HAL_PWR_VOLTAGESCALING_CONFIG(PWR_REGULATOR_VOLTAGE_SCALE1);

  RCC_OscInitStruct.OscillatorType = RCC_OSCILLATORTYPE_HSE;
  RCC_OscInitStruct.HSEState = RCC_HSE_ON;
  RCC_OscInitStruct.PLL.PLLState = RCC_PLL_ON;
 80014cc:	2502      	movs	r5, #2
  RCC_OscInitStruct.PLL.PLLSource = RCC_PLLSOURCE_HSE;
 80014ce:	930e      	str	r3, [sp, #56]	; 0x38
  RCC_OscInitStruct.PLL.PLLM = 4;
 80014d0:	2604      	movs	r6, #4
  RCC_OscInitStruct.PLL.PLLN = 216;
 80014d2:	23d8      	movs	r3, #216	; 0xd8
  RCC_OscInitStruct.PLL.PLLP = RCC_PLLP_DIV2;
  RCC_OscInitStruct.PLL.PLLQ = 2;
  HAL_RCC_OscConfig(&RCC_OscInitStruct);
 80014d4:	a807      	add	r0, sp, #28
  RCC_OscInitStruct.OscillatorType = RCC_OSCILLATORTYPE_HSE;
  RCC_OscInitStruct.HSEState = RCC_HSE_ON;
  RCC_OscInitStruct.PLL.PLLState = RCC_PLL_ON;
  RCC_OscInitStruct.PLL.PLLSource = RCC_PLLSOURCE_HSE;
  RCC_OscInitStruct.PLL.PLLM = 4;
  RCC_OscInitStruct.PLL.PLLN = 216;
 80014d6:	9310      	str	r3, [sp, #64]	; 0x40

  __HAL_PWR_VOLTAGESCALING_CONFIG(PWR_REGULATOR_VOLTAGE_SCALE1);

  RCC_OscInitStruct.OscillatorType = RCC_OSCILLATORTYPE_HSE;
  RCC_OscInitStruct.HSEState = RCC_HSE_ON;
  RCC_OscInitStruct.PLL.PLLState = RCC_PLL_ON;
 80014d8:	950d      	str	r5, [sp, #52]	; 0x34
  RCC_OscInitStruct.PLL.PLLSource = RCC_PLLSOURCE_HSE;
  RCC_OscInitStruct.PLL.PLLM = 4;
 80014da:	960f      	str	r6, [sp, #60]	; 0x3c
  RCC_OscInitStruct.PLL.PLLN = 216;
  RCC_OscInitStruct.PLL.PLLP = RCC_PLLP_DIV2;
 80014dc:	9511      	str	r5, [sp, #68]	; 0x44
  RCC_OscInitStruct.PLL.PLLQ = 2;
 80014de:	9512      	str	r5, [sp, #72]	; 0x48
  HAL_RCC_OscConfig(&RCC_OscInitStruct);
 80014e0:	f001 fb20 	bl	8002b24 <HAL_RCC_OscConfig>

  HAL_PWREx_EnableOverDrive();
 80014e4:	f001 fe5e 	bl	80031a4 <HAL_PWREx_EnableOverDrive>

  RCC_ClkInitStruct.ClockType = RCC_CLOCKTYPE_HCLK|RCC_CLOCKTYPE_SYSCLK
 80014e8:	230f      	movs	r3, #15
 80014ea:	9302      	str	r3, [sp, #8]
                              |RCC_CLOCKTYPE_PCLK1|RCC_CLOCKTYPE_PCLK2;
  RCC_ClkInitStruct.SYSCLKSource = RCC_SYSCLKSOURCE_PLLCLK;
  RCC_ClkInitStruct.AHBCLKDivider = RCC_SYSCLK_DIV1;
  RCC_ClkInitStruct.APB1CLKDivider = RCC_HCLK_DIV4;
 80014ec:	f44f 53a0 	mov.w	r3, #5120	; 0x1400
  RCC_ClkInitStruct.APB2CLKDivider = RCC_HCLK_DIV2;
  HAL_RCC_ClockConfig(&RCC_ClkInitStruct, FLASH_LATENCY_7);
 80014f0:	2107      	movs	r1, #7

  RCC_ClkInitStruct.ClockType = RCC_CLOCKTYPE_HCLK|RCC_CLOCKTYPE_SYSCLK
                              |RCC_CLOCKTYPE_PCLK1|RCC_CLOCKTYPE_PCLK2;
  RCC_ClkInitStruct.SYSCLKSource = RCC_SYSCLKSOURCE_PLLCLK;
  RCC_ClkInitStruct.AHBCLKDivider = RCC_SYSCLK_DIV1;
  RCC_ClkInitStruct.APB1CLKDivider = RCC_HCLK_DIV4;
 80014f2:	9305      	str	r3, [sp, #20]
  RCC_ClkInitStruct.APB2CLKDivider = RCC_HCLK_DIV2;
  HAL_RCC_ClockConfig(&RCC_ClkInitStruct, FLASH_LATENCY_7);
 80014f4:	a802      	add	r0, sp, #8
  RCC_ClkInitStruct.ClockType = RCC_CLOCKTYPE_HCLK|RCC_CLOCKTYPE_SYSCLK
                              |RCC_CLOCKTYPE_PCLK1|RCC_CLOCKTYPE_PCLK2;
  RCC_ClkInitStruct.SYSCLKSource = RCC_SYSCLKSOURCE_PLLCLK;
  RCC_ClkInitStruct.AHBCLKDivider = RCC_SYSCLK_DIV1;
  RCC_ClkInitStruct.APB1CLKDivider = RCC_HCLK_DIV4;
  RCC_ClkInitStruct.APB2CLKDivider = RCC_HCLK_DIV2;
 80014f6:	f44f 5380 	mov.w	r3, #4096	; 0x1000
 80014fa:	9306      	str	r3, [sp, #24]

  HAL_PWREx_EnableOverDrive();

  RCC_ClkInitStruct.ClockType = RCC_CLOCKTYPE_HCLK|RCC_CLOCKTYPE_SYSCLK
                              |RCC_CLOCKTYPE_PCLK1|RCC_CLOCKTYPE_PCLK2;
  RCC_ClkInitStruct.SYSCLKSource = RCC_SYSCLKSOURCE_PLLCLK;
 80014fc:	9503      	str	r5, [sp, #12]
  RCC_ClkInitStruct.AHBCLKDivider = RCC_SYSCLK_DIV1;
 80014fe:	9404      	str	r4, [sp, #16]
  RCC_ClkInitStruct.APB1CLKDivider = RCC_HCLK_DIV4;
  RCC_ClkInitStruct.APB2CLKDivider = RCC_HCLK_DIV2;
  HAL_RCC_ClockConfig(&RCC_ClkInitStruct, FLASH_LATENCY_7);
 8001500:	f001 fcdc 	bl	8002ebc <HAL_RCC_ClockConfig>

  PeriphClkInitStruct.PeriphClockSelection = RCC_PERIPHCLK_USART3|RCC_PERIPHCLK_UART5;
 8001504:	f44f 63a0 	mov.w	r3, #1280	; 0x500
  PeriphClkInitStruct.Usart3ClockSelection = RCC_USART3CLKSOURCE_PCLK1;
  PeriphClkInitStruct.Uart5ClockSelection = RCC_UART5CLKSOURCE_PCLK1;
  HAL_RCCEx_PeriphCLKConfig(&PeriphClkInitStruct);
 8001508:	a813      	add	r0, sp, #76	; 0x4c
  RCC_ClkInitStruct.AHBCLKDivider = RCC_SYSCLK_DIV1;
  RCC_ClkInitStruct.APB1CLKDivider = RCC_HCLK_DIV4;
  RCC_ClkInitStruct.APB2CLKDivider = RCC_HCLK_DIV2;
  HAL_RCC_ClockConfig(&RCC_ClkInitStruct, FLASH_LATENCY_7);

  PeriphClkInitStruct.PeriphClockSelection = RCC_PERIPHCLK_USART3|RCC_PERIPHCLK_UART5;
 800150a:	9313      	str	r3, [sp, #76]	; 0x4c
  PeriphClkInitStruct.Usart3ClockSelection = RCC_USART3CLKSOURCE_PCLK1;
 800150c:	9426      	str	r4, [sp, #152]	; 0x98
  PeriphClkInitStruct.Uart5ClockSelection = RCC_UART5CLKSOURCE_PCLK1;
 800150e:	9428      	str	r4, [sp, #160]	; 0xa0
  HAL_RCCEx_PeriphCLKConfig(&PeriphClkInitStruct);
 8001510:	f000 ff5a 	bl	80023c8 <HAL_RCCEx_PeriphCLKConfig>

  HAL_SYSTICK_Config(HAL_RCC_GetHCLKFreq()/1000);
 8001514:	f001 fe00 	bl	8003118 <HAL_RCC_GetHCLKFreq>
 8001518:	f44f 737a 	mov.w	r3, #1000	; 0x3e8
 800151c:	fbb0 f0f3 	udiv	r0, r0, r3
 8001520:	f001 ffc6 	bl	80034b0 <HAL_SYSTICK_Config>

  HAL_SYSTICK_CLKSourceConfig(SYSTICK_CLKSOURCE_HCLK);
 8001524:	4630      	mov	r0, r6
 8001526:	f001 ffd9 	bl	80034dc <HAL_SYSTICK_CLKSourceConfig>

  /* SysTick_IRQn interrupt configuration */
  HAL_NVIC_SetPriority(SysTick_IRQn, 0, 0);
 800152a:	f04f 30ff 	mov.w	r0, #4294967295
 800152e:	4621      	mov	r1, r4
 8001530:	4622      	mov	r2, r4
 8001532:	f001 ff7f 	bl	8003434 <HAL_NVIC_SetPriority>
}
 8001536:	b034      	add	sp, #208	; 0xd0
 8001538:	bd70      	pop	{r4, r5, r6, pc}
 800153a:	bf00      	nop
 800153c:	40023800 	.word	0x40023800
 8001540:	40007000 	.word	0x40007000

08001544 <main>:
}

/* USER CODE END 0 */

int main(void)
{
 8001544:	e92d 4880 	stmdb	sp!, {r7, fp, lr}
 8001548:	b08f      	sub	sp, #60	; 0x3c
{

  GPIO_InitTypeDef GPIO_InitStruct;

  /* GPIO Ports Clock Enable */
  __HAL_RCC_GPIOC_CLK_ENABLE();
 800154a:	2400      	movs	r4, #0
  /* USER CODE END 1 */

  /* MCU Configuration----------------------------------------------------------*/

  /* Reset of all peripherals, Initializes the Flash interface and the Systick. */
  HAL_Init();
 800154c:	f001 ffea 	bl	8003524 <HAL_Init>

  /* Configure the system clock */
  SystemClock_Config();
 8001550:	f7ff ff9c 	bl	800148c <SystemClock_Config>
{

  GPIO_InitTypeDef GPIO_InitStruct;

  /* GPIO Ports Clock Enable */
  __HAL_RCC_GPIOC_CLK_ENABLE();
 8001554:	4ba3      	ldr	r3, [pc, #652]	; (80017e4 <main+0x2a0>)
 8001556:	9400      	str	r4, [sp, #0]
 8001558:	6b1a      	ldr	r2, [r3, #48]	; 0x30

  /*Configure GPIO pin : User_Blue_Button_Pin */
  GPIO_InitStruct.Pin = User_Blue_Button_Pin;
  GPIO_InitStruct.Mode = GPIO_MODE_INPUT;
  GPIO_InitStruct.Pull = GPIO_NOPULL;
  HAL_GPIO_Init(User_Blue_Button_GPIO_Port, &GPIO_InitStruct);
 800155a:	48a3      	ldr	r0, [pc, #652]	; (80017e8 <main+0x2a4>)
{

  GPIO_InitTypeDef GPIO_InitStruct;

  /* GPIO Ports Clock Enable */
  __HAL_RCC_GPIOC_CLK_ENABLE();
 800155c:	f042 0204 	orr.w	r2, r2, #4
 8001560:	631a      	str	r2, [r3, #48]	; 0x30
 8001562:	6b1a      	ldr	r2, [r3, #48]	; 0x30
 8001564:	f002 0204 	and.w	r2, r2, #4
 8001568:	9200      	str	r2, [sp, #0]
 800156a:	9a00      	ldr	r2, [sp, #0]
  __HAL_RCC_GPIOH_CLK_ENABLE();
 800156c:	9401      	str	r4, [sp, #4]
 800156e:	6b1a      	ldr	r2, [r3, #48]	; 0x30
 8001570:	f042 0280 	orr.w	r2, r2, #128	; 0x80
 8001574:	631a      	str	r2, [r3, #48]	; 0x30
 8001576:	6b1a      	ldr	r2, [r3, #48]	; 0x30
 8001578:	f002 0280 	and.w	r2, r2, #128	; 0x80
 800157c:	9201      	str	r2, [sp, #4]
 800157e:	9a01      	ldr	r2, [sp, #4]
  __HAL_RCC_GPIOA_CLK_ENABLE();
 8001580:	9402      	str	r4, [sp, #8]
 8001582:	6b1a      	ldr	r2, [r3, #48]	; 0x30
 8001584:	f042 0201 	orr.w	r2, r2, #1
 8001588:	631a      	str	r2, [r3, #48]	; 0x30
 800158a:	6b1a      	ldr	r2, [r3, #48]	; 0x30
 800158c:	f002 0201 	and.w	r2, r2, #1
 8001590:	9202      	str	r2, [sp, #8]
 8001592:	9a02      	ldr	r2, [sp, #8]
  __HAL_RCC_GPIOB_CLK_ENABLE();
 8001594:	9403      	str	r4, [sp, #12]
 8001596:	6b1a      	ldr	r2, [r3, #48]	; 0x30
 8001598:	f042 0202 	orr.w	r2, r2, #2
 800159c:	631a      	str	r2, [r3, #48]	; 0x30
 800159e:	6b1a      	ldr	r2, [r3, #48]	; 0x30
 80015a0:	f002 0202 	and.w	r2, r2, #2
 80015a4:	9203      	str	r2, [sp, #12]
 80015a6:	9a03      	ldr	r2, [sp, #12]
  __HAL_RCC_GPIOD_CLK_ENABLE();
 80015a8:	9404      	str	r4, [sp, #16]
 80015aa:	6b1a      	ldr	r2, [r3, #48]	; 0x30
 80015ac:	f042 0208 	orr.w	r2, r2, #8
 80015b0:	631a      	str	r2, [r3, #48]	; 0x30
 80015b2:	6b1a      	ldr	r2, [r3, #48]	; 0x30
 80015b4:	f002 0208 	and.w	r2, r2, #8
 80015b8:	9204      	str	r2, [sp, #16]
 80015ba:	9a04      	ldr	r2, [sp, #16]
  __HAL_RCC_GPIOG_CLK_ENABLE();
 80015bc:	9405      	str	r4, [sp, #20]
 80015be:	6b1a      	ldr	r2, [r3, #48]	; 0x30
 80015c0:	f042 0240 	orr.w	r2, r2, #64	; 0x40
 80015c4:	631a      	str	r2, [r3, #48]	; 0x30
 80015c6:	6b1b      	ldr	r3, [r3, #48]	; 0x30
 80015c8:	f003 0340 	and.w	r3, r3, #64	; 0x40
 80015cc:	9305      	str	r3, [sp, #20]

  /*Configure GPIO pin : User_Blue_Button_Pin */
  GPIO_InitStruct.Pin = User_Blue_Button_Pin;
  GPIO_InitStruct.Mode = GPIO_MODE_INPUT;
  GPIO_InitStruct.Pull = GPIO_NOPULL;
  HAL_GPIO_Init(User_Blue_Button_GPIO_Port, &GPIO_InitStruct);
 80015ce:	a909      	add	r1, sp, #36	; 0x24
  __HAL_RCC_GPIOC_CLK_ENABLE();
  __HAL_RCC_GPIOH_CLK_ENABLE();
  __HAL_RCC_GPIOA_CLK_ENABLE();
  __HAL_RCC_GPIOB_CLK_ENABLE();
  __HAL_RCC_GPIOD_CLK_ENABLE();
  __HAL_RCC_GPIOG_CLK_ENABLE();
 80015d0:	9b05      	ldr	r3, [sp, #20]

  /*Configure GPIO pin : User_Blue_Button_Pin */
  GPIO_InitStruct.Pin = User_Blue_Button_Pin;
  GPIO_InitStruct.Mode = GPIO_MODE_INPUT;
 80015d2:	940a      	str	r4, [sp, #40]	; 0x28
  __HAL_RCC_GPIOB_CLK_ENABLE();
  __HAL_RCC_GPIOD_CLK_ENABLE();
  __HAL_RCC_GPIOG_CLK_ENABLE();

  /*Configure GPIO pin : User_Blue_Button_Pin */
  GPIO_InitStruct.Pin = User_Blue_Button_Pin;
 80015d4:	f44f 5300 	mov.w	r3, #8192	; 0x2000
  GPIO_InitStruct.Pull = GPIO_NOPULL;
  HAL_GPIO_Init(User_Blue_Button_GPIO_Port, &GPIO_InitStruct);

  /*Configure GPIO pins : RMII_MDC_Pin RMII_RXD0_Pin RMII_RXD1_Pin */
  GPIO_InitStruct.Pin = RMII_MDC_Pin|RMII_RXD0_Pin|RMII_RXD1_Pin;
  GPIO_InitStruct.Mode = GPIO_MODE_AF_PP;
 80015d8:	2602      	movs	r6, #2
  GPIO_InitStruct.Pull = GPIO_NOPULL;
  GPIO_InitStruct.Speed = GPIO_SPEED_FREQ_VERY_HIGH;
 80015da:	2503      	movs	r5, #3
  GPIO_InitStruct.Alternate = GPIO_AF11_ETH;
 80015dc:	270b      	movs	r7, #11
  __HAL_RCC_GPIOB_CLK_ENABLE();
  __HAL_RCC_GPIOD_CLK_ENABLE();
  __HAL_RCC_GPIOG_CLK_ENABLE();

  /*Configure GPIO pin : User_Blue_Button_Pin */
  GPIO_InitStruct.Pin = User_Blue_Button_Pin;
 80015de:	9309      	str	r3, [sp, #36]	; 0x24
  GPIO_InitStruct.Mode = GPIO_MODE_INPUT;
  GPIO_InitStruct.Pull = GPIO_NOPULL;
 80015e0:	940b      	str	r4, [sp, #44]	; 0x2c
  HAL_GPIO_Init(User_Blue_Button_GPIO_Port, &GPIO_InitStruct);
 80015e2:	f001 fe19 	bl	8003218 <HAL_GPIO_Init>

  /*Configure GPIO pins : RMII_MDC_Pin RMII_RXD0_Pin RMII_RXD1_Pin */
  GPIO_InitStruct.Pin = RMII_MDC_Pin|RMII_RXD0_Pin|RMII_RXD1_Pin;
 80015e6:	2332      	movs	r3, #50	; 0x32
  GPIO_InitStruct.Mode = GPIO_MODE_AF_PP;
  GPIO_InitStruct.Pull = GPIO_NOPULL;
  GPIO_InitStruct.Speed = GPIO_SPEED_FREQ_VERY_HIGH;
  GPIO_InitStruct.Alternate = GPIO_AF11_ETH;
  HAL_GPIO_Init(GPIOC, &GPIO_InitStruct);
 80015e8:	487f      	ldr	r0, [pc, #508]	; (80017e8 <main+0x2a4>)
  GPIO_InitStruct.Mode = GPIO_MODE_INPUT;
  GPIO_InitStruct.Pull = GPIO_NOPULL;
  HAL_GPIO_Init(User_Blue_Button_GPIO_Port, &GPIO_InitStruct);

  /*Configure GPIO pins : RMII_MDC_Pin RMII_RXD0_Pin RMII_RXD1_Pin */
  GPIO_InitStruct.Pin = RMII_MDC_Pin|RMII_RXD0_Pin|RMII_RXD1_Pin;
 80015ea:	9309      	str	r3, [sp, #36]	; 0x24
  GPIO_InitStruct.Mode = GPIO_MODE_AF_PP;
  GPIO_InitStruct.Pull = GPIO_NOPULL;
  GPIO_InitStruct.Speed = GPIO_SPEED_FREQ_VERY_HIGH;
  GPIO_InitStruct.Alternate = GPIO_AF11_ETH;
  HAL_GPIO_Init(GPIOC, &GPIO_InitStruct);
 80015ec:	a909      	add	r1, sp, #36	; 0x24
  GPIO_InitStruct.Pull = GPIO_NOPULL;
  HAL_GPIO_Init(User_Blue_Button_GPIO_Port, &GPIO_InitStruct);

  /*Configure GPIO pins : RMII_MDC_Pin RMII_RXD0_Pin RMII_RXD1_Pin */
  GPIO_InitStruct.Pin = RMII_MDC_Pin|RMII_RXD0_Pin|RMII_RXD1_Pin;
  GPIO_InitStruct.Mode = GPIO_MODE_AF_PP;
 80015ee:	960a      	str	r6, [sp, #40]	; 0x28
  GPIO_InitStruct.Pull = GPIO_NOPULL;
  GPIO_InitStruct.Speed = GPIO_SPEED_FREQ_VERY_HIGH;
 80015f0:	950c      	str	r5, [sp, #48]	; 0x30
  GPIO_InitStruct.Alternate = GPIO_AF11_ETH;
 80015f2:	970d      	str	r7, [sp, #52]	; 0x34
  HAL_GPIO_Init(User_Blue_Button_GPIO_Port, &GPIO_InitStruct);

  /*Configure GPIO pins : RMII_MDC_Pin RMII_RXD0_Pin RMII_RXD1_Pin */
  GPIO_InitStruct.Pin = RMII_MDC_Pin|RMII_RXD0_Pin|RMII_RXD1_Pin;
  GPIO_InitStruct.Mode = GPIO_MODE_AF_PP;
  GPIO_InitStruct.Pull = GPIO_NOPULL;
 80015f4:	940b      	str	r4, [sp, #44]	; 0x2c
  GPIO_InitStruct.Speed = GPIO_SPEED_FREQ_VERY_HIGH;
  GPIO_InitStruct.Alternate = GPIO_AF11_ETH;
  HAL_GPIO_Init(GPIOC, &GPIO_InitStruct);
 80015f6:	f001 fe0f 	bl	8003218 <HAL_GPIO_Init>

  /*Configure GPIO pins : RMII_REF_CK_Pin RMII_MDIO_Pin RMII_CRS_DV_Pin */
  GPIO_InitStruct.Pin = RMII_REF_CK_Pin|RMII_MDIO_Pin|RMII_CRS_DV_Pin;
 80015fa:	2386      	movs	r3, #134	; 0x86
  GPIO_InitStruct.Mode = GPIO_MODE_AF_PP;
  GPIO_InitStruct.Pull = GPIO_NOPULL;
  GPIO_InitStruct.Speed = GPIO_SPEED_FREQ_VERY_HIGH;
  GPIO_InitStruct.Alternate = GPIO_AF11_ETH;
  HAL_GPIO_Init(GPIOA, &GPIO_InitStruct);
 80015fc:	487b      	ldr	r0, [pc, #492]	; (80017ec <main+0x2a8>)
  GPIO_InitStruct.Speed = GPIO_SPEED_FREQ_VERY_HIGH;
  GPIO_InitStruct.Alternate = GPIO_AF11_ETH;
  HAL_GPIO_Init(GPIOC, &GPIO_InitStruct);

  /*Configure GPIO pins : RMII_REF_CK_Pin RMII_MDIO_Pin RMII_CRS_DV_Pin */
  GPIO_InitStruct.Pin = RMII_REF_CK_Pin|RMII_MDIO_Pin|RMII_CRS_DV_Pin;
 80015fe:	9309      	str	r3, [sp, #36]	; 0x24
  GPIO_InitStruct.Mode = GPIO_MODE_AF_PP;
  GPIO_InitStruct.Pull = GPIO_NOPULL;
  GPIO_InitStruct.Speed = GPIO_SPEED_FREQ_VERY_HIGH;
  GPIO_InitStruct.Alternate = GPIO_AF11_ETH;
  HAL_GPIO_Init(GPIOA, &GPIO_InitStruct);
 8001600:	a909      	add	r1, sp, #36	; 0x24

  /*Configure GPIO pins : PB0 PB12 PB13 LD3_Pin 
                           PB15 LD2_Pin */
  GPIO_InitStruct.Pin = GPIO_PIN_0|GPIO_PIN_12|GPIO_PIN_13|LD3_Pin 
                          |GPIO_PIN_15|LD2_Pin;
  GPIO_InitStruct.Mode = GPIO_MODE_OUTPUT_PP;
 8001602:	f04f 0801 	mov.w	r8, #1
  GPIO_InitStruct.Alternate = GPIO_AF11_ETH;
  HAL_GPIO_Init(GPIOC, &GPIO_InitStruct);

  /*Configure GPIO pins : RMII_REF_CK_Pin RMII_MDIO_Pin RMII_CRS_DV_Pin */
  GPIO_InitStruct.Pin = RMII_REF_CK_Pin|RMII_MDIO_Pin|RMII_CRS_DV_Pin;
  GPIO_InitStruct.Mode = GPIO_MODE_AF_PP;
 8001606:	960a      	str	r6, [sp, #40]	; 0x28
  GPIO_InitStruct.Pull = GPIO_NOPULL;
  GPIO_InitStruct.Speed = GPIO_SPEED_FREQ_VERY_HIGH;
 8001608:	950c      	str	r5, [sp, #48]	; 0x30
  GPIO_InitStruct.Alternate = GPIO_AF11_ETH;
 800160a:	970d      	str	r7, [sp, #52]	; 0x34
  HAL_GPIO_Init(GPIOA, &GPIO_InitStruct);

  /*Configure GPIO pins : PB0 PB12 PB13 LD3_Pin 
                           PB15 LD2_Pin */
  GPIO_InitStruct.Pin = GPIO_PIN_0|GPIO_PIN_12|GPIO_PIN_13|LD3_Pin 
 800160c:	f24f 0b81 	movw	fp, #61569	; 0xf081
  HAL_GPIO_Init(GPIOC, &GPIO_InitStruct);

  /*Configure GPIO pins : RMII_REF_CK_Pin RMII_MDIO_Pin RMII_CRS_DV_Pin */
  GPIO_InitStruct.Pin = RMII_REF_CK_Pin|RMII_MDIO_Pin|RMII_CRS_DV_Pin;
  GPIO_InitStruct.Mode = GPIO_MODE_AF_PP;
  GPIO_InitStruct.Pull = GPIO_NOPULL;
 8001610:	940b      	str	r4, [sp, #44]	; 0x2c
  GPIO_InitStruct.Speed = GPIO_SPEED_FREQ_VERY_HIGH;
  GPIO_InitStruct.Alternate = GPIO_AF11_ETH;
  HAL_GPIO_Init(GPIOA, &GPIO_InitStruct);
 8001612:	f001 fe01 	bl	8003218 <HAL_GPIO_Init>
  GPIO_InitStruct.Pin = GPIO_PIN_0|GPIO_PIN_12|GPIO_PIN_13|LD3_Pin 
                          |GPIO_PIN_15|LD2_Pin;
  GPIO_InitStruct.Mode = GPIO_MODE_OUTPUT_PP;
  GPIO_InitStruct.Pull = GPIO_NOPULL;
  GPIO_InitStruct.Speed = GPIO_SPEED_FREQ_LOW;
  HAL_GPIO_Init(GPIOB, &GPIO_InitStruct);
 8001616:	4876      	ldr	r0, [pc, #472]	; (80017f0 <main+0x2ac>)
  GPIO_InitStruct.Alternate = GPIO_AF11_ETH;
  HAL_GPIO_Init(GPIOA, &GPIO_InitStruct);

  /*Configure GPIO pins : PB0 PB12 PB13 LD3_Pin 
                           PB15 LD2_Pin */
  GPIO_InitStruct.Pin = GPIO_PIN_0|GPIO_PIN_12|GPIO_PIN_13|LD3_Pin 
 8001618:	f8cd b024 	str.w	fp, [sp, #36]	; 0x24
                          |GPIO_PIN_15|LD2_Pin;
  GPIO_InitStruct.Mode = GPIO_MODE_OUTPUT_PP;
  GPIO_InitStruct.Pull = GPIO_NOPULL;
  GPIO_InitStruct.Speed = GPIO_SPEED_FREQ_LOW;
  HAL_GPIO_Init(GPIOB, &GPIO_InitStruct);
 800161c:	a909      	add	r1, sp, #36	; 0x24

  /*Configure GPIO pin : USB_PowerSwitchOn_Pin */
  GPIO_InitStruct.Pin = USB_PowerSwitchOn_Pin;
 800161e:	f04f 0a40 	mov.w	sl, #64	; 0x40

  /*Configure GPIO pins : PB0 PB12 PB13 LD3_Pin 
                           PB15 LD2_Pin */
  GPIO_InitStruct.Pin = GPIO_PIN_0|GPIO_PIN_12|GPIO_PIN_13|LD3_Pin 
                          |GPIO_PIN_15|LD2_Pin;
  GPIO_InitStruct.Mode = GPIO_MODE_OUTPUT_PP;
 8001622:	f8cd 8028 	str.w	r8, [sp, #40]	; 0x28
  GPIO_InitStruct.Pull = GPIO_NOPULL;
 8001626:	940b      	str	r4, [sp, #44]	; 0x2c
  GPIO_InitStruct.Speed = GPIO_SPEED_FREQ_LOW;
 8001628:	940c      	str	r4, [sp, #48]	; 0x30
  HAL_GPIO_Init(GPIOB, &GPIO_InitStruct);
 800162a:	f001 fdf5 	bl	8003218 <HAL_GPIO_Init>
  /*Configure GPIO pin : USB_PowerSwitchOn_Pin */
  GPIO_InitStruct.Pin = USB_PowerSwitchOn_Pin;
  GPIO_InitStruct.Mode = GPIO_MODE_OUTPUT_PP;
  GPIO_InitStruct.Pull = GPIO_NOPULL;
  GPIO_InitStruct.Speed = GPIO_SPEED_FREQ_LOW;
  HAL_GPIO_Init(USB_PowerSwitchOn_GPIO_Port, &GPIO_InitStruct);
 800162e:	4871      	ldr	r0, [pc, #452]	; (80017f4 <main+0x2b0>)
  GPIO_InitStruct.Pull = GPIO_NOPULL;
  GPIO_InitStruct.Speed = GPIO_SPEED_FREQ_LOW;
  HAL_GPIO_Init(GPIOB, &GPIO_InitStruct);

  /*Configure GPIO pin : USB_PowerSwitchOn_Pin */
  GPIO_InitStruct.Pin = USB_PowerSwitchOn_Pin;
 8001630:	f8cd a024 	str.w	sl, [sp, #36]	; 0x24
  GPIO_InitStruct.Mode = GPIO_MODE_OUTPUT_PP;
  GPIO_InitStruct.Pull = GPIO_NOPULL;
  GPIO_InitStruct.Speed = GPIO_SPEED_FREQ_LOW;
  HAL_GPIO_Init(USB_PowerSwitchOn_GPIO_Port, &GPIO_InitStruct);
 8001634:	a909      	add	r1, sp, #36	; 0x24
  GPIO_InitStruct.Speed = GPIO_SPEED_FREQ_LOW;
  HAL_GPIO_Init(GPIOB, &GPIO_InitStruct);

  /*Configure GPIO pin : USB_PowerSwitchOn_Pin */
  GPIO_InitStruct.Pin = USB_PowerSwitchOn_Pin;
  GPIO_InitStruct.Mode = GPIO_MODE_OUTPUT_PP;
 8001636:	f8cd 8028 	str.w	r8, [sp, #40]	; 0x28
  GPIO_InitStruct.Pull = GPIO_NOPULL;
 800163a:	940b      	str	r4, [sp, #44]	; 0x2c
  GPIO_InitStruct.Speed = GPIO_SPEED_FREQ_LOW;
 800163c:	940c      	str	r4, [sp, #48]	; 0x30
  HAL_GPIO_Init(USB_PowerSwitchOn_GPIO_Port, &GPIO_InitStruct);
 800163e:	f001 fdeb 	bl	8003218 <HAL_GPIO_Init>

  /*Configure GPIO pin : USB_OverCurrent_Pin */
  GPIO_InitStruct.Pin = USB_OverCurrent_Pin;
 8001642:	2380      	movs	r3, #128	; 0x80
  GPIO_InitStruct.Mode = GPIO_MODE_INPUT;
  GPIO_InitStruct.Pull = GPIO_NOPULL;
  HAL_GPIO_Init(USB_OverCurrent_GPIO_Port, &GPIO_InitStruct);
 8001644:	486b      	ldr	r0, [pc, #428]	; (80017f4 <main+0x2b0>)
  GPIO_InitStruct.Pull = GPIO_NOPULL;
  GPIO_InitStruct.Speed = GPIO_SPEED_FREQ_LOW;
  HAL_GPIO_Init(USB_PowerSwitchOn_GPIO_Port, &GPIO_InitStruct);

  /*Configure GPIO pin : USB_OverCurrent_Pin */
  GPIO_InitStruct.Pin = USB_OverCurrent_Pin;
 8001646:	9309      	str	r3, [sp, #36]	; 0x24
  GPIO_InitStruct.Mode = GPIO_MODE_INPUT;
  GPIO_InitStruct.Pull = GPIO_NOPULL;
  HAL_GPIO_Init(USB_OverCurrent_GPIO_Port, &GPIO_InitStruct);
 8001648:	a909      	add	r1, sp, #36	; 0x24

  /*Configure GPIO pins : PC6 PC7 PC8 PC9 
                           PC10 PC11 */
  GPIO_InitStruct.Pin = GPIO_PIN_6|GPIO_PIN_7|GPIO_PIN_8|GPIO_PIN_9 
 800164a:	f44f 697c 	mov.w	r9, #4032	; 0xfc0
  GPIO_InitStruct.Speed = GPIO_SPEED_FREQ_LOW;
  HAL_GPIO_Init(USB_PowerSwitchOn_GPIO_Port, &GPIO_InitStruct);

  /*Configure GPIO pin : USB_OverCurrent_Pin */
  GPIO_InitStruct.Pin = USB_OverCurrent_Pin;
  GPIO_InitStruct.Mode = GPIO_MODE_INPUT;
 800164e:	940a      	str	r4, [sp, #40]	; 0x28
  GPIO_InitStruct.Pull = GPIO_NOPULL;
 8001650:	940b      	str	r4, [sp, #44]	; 0x2c
  HAL_GPIO_Init(USB_OverCurrent_GPIO_Port, &GPIO_InitStruct);
 8001652:	f001 fde1 	bl	8003218 <HAL_GPIO_Init>
  GPIO_InitStruct.Pin = GPIO_PIN_6|GPIO_PIN_7|GPIO_PIN_8|GPIO_PIN_9 
                          |GPIO_PIN_10|GPIO_PIN_11;
  GPIO_InitStruct.Mode = GPIO_MODE_OUTPUT_PP;
  GPIO_InitStruct.Pull = GPIO_NOPULL;
  GPIO_InitStruct.Speed = GPIO_SPEED_FREQ_LOW;
  HAL_GPIO_Init(GPIOC, &GPIO_InitStruct);
 8001656:	4864      	ldr	r0, [pc, #400]	; (80017e8 <main+0x2a4>)
  GPIO_InitStruct.Pull = GPIO_NOPULL;
  HAL_GPIO_Init(USB_OverCurrent_GPIO_Port, &GPIO_InitStruct);

  /*Configure GPIO pins : PC6 PC7 PC8 PC9 
                           PC10 PC11 */
  GPIO_InitStruct.Pin = GPIO_PIN_6|GPIO_PIN_7|GPIO_PIN_8|GPIO_PIN_9 
 8001658:	f8cd 9024 	str.w	r9, [sp, #36]	; 0x24
                          |GPIO_PIN_10|GPIO_PIN_11;
  GPIO_InitStruct.Mode = GPIO_MODE_OUTPUT_PP;
  GPIO_InitStruct.Pull = GPIO_NOPULL;
  GPIO_InitStruct.Speed = GPIO_SPEED_FREQ_LOW;
  HAL_GPIO_Init(GPIOC, &GPIO_InitStruct);
 800165c:	a909      	add	r1, sp, #36	; 0x24

  /*Configure GPIO pins : PC6 PC7 PC8 PC9 
                           PC10 PC11 */
  GPIO_InitStruct.Pin = GPIO_PIN_6|GPIO_PIN_7|GPIO_PIN_8|GPIO_PIN_9 
                          |GPIO_PIN_10|GPIO_PIN_11;
  GPIO_InitStruct.Mode = GPIO_MODE_OUTPUT_PP;
 800165e:	f8cd 8028 	str.w	r8, [sp, #40]	; 0x28
  GPIO_InitStruct.Pull = GPIO_NOPULL;
 8001662:	940b      	str	r4, [sp, #44]	; 0x2c
  GPIO_InitStruct.Speed = GPIO_SPEED_FREQ_LOW;
 8001664:	940c      	str	r4, [sp, #48]	; 0x30
  HAL_GPIO_Init(GPIOC, &GPIO_InitStruct);
 8001666:	f001 fdd7 	bl	8003218 <HAL_GPIO_Init>

  /*Configure GPIO pins : USB_SOF_Pin USB_ID_Pin USB_DM_Pin USB_DP_Pin */
  GPIO_InitStruct.Pin = USB_SOF_Pin|USB_ID_Pin|USB_DM_Pin|USB_DP_Pin;
 800166a:	f44f 53e8 	mov.w	r3, #7424	; 0x1d00
 800166e:	9309      	str	r3, [sp, #36]	; 0x24
  GPIO_InitStruct.Mode = GPIO_MODE_AF_PP;
  GPIO_InitStruct.Pull = GPIO_NOPULL;
  GPIO_InitStruct.Speed = GPIO_SPEED_FREQ_VERY_HIGH;
  GPIO_InitStruct.Alternate = GPIO_AF10_OTG_FS;
  HAL_GPIO_Init(GPIOA, &GPIO_InitStruct);
 8001670:	485e      	ldr	r0, [pc, #376]	; (80017ec <main+0x2a8>)
  GPIO_InitStruct.Speed = GPIO_SPEED_FREQ_LOW;
  HAL_GPIO_Init(GPIOC, &GPIO_InitStruct);

  /*Configure GPIO pins : USB_SOF_Pin USB_ID_Pin USB_DM_Pin USB_DP_Pin */
  GPIO_InitStruct.Pin = USB_SOF_Pin|USB_ID_Pin|USB_DM_Pin|USB_DP_Pin;
  GPIO_InitStruct.Mode = GPIO_MODE_AF_PP;
 8001672:	960a      	str	r6, [sp, #40]	; 0x28
  GPIO_InitStruct.Pull = GPIO_NOPULL;
  GPIO_InitStruct.Speed = GPIO_SPEED_FREQ_VERY_HIGH;
  GPIO_InitStruct.Alternate = GPIO_AF10_OTG_FS;
 8001674:	230a      	movs	r3, #10
  HAL_GPIO_Init(GPIOA, &GPIO_InitStruct);
 8001676:	a909      	add	r1, sp, #36	; 0x24

  /*Configure GPIO pins : USB_SOF_Pin USB_ID_Pin USB_DM_Pin USB_DP_Pin */
  GPIO_InitStruct.Pin = USB_SOF_Pin|USB_ID_Pin|USB_DM_Pin|USB_DP_Pin;
  GPIO_InitStruct.Mode = GPIO_MODE_AF_PP;
  GPIO_InitStruct.Pull = GPIO_NOPULL;
  GPIO_InitStruct.Speed = GPIO_SPEED_FREQ_VERY_HIGH;
 8001678:	950c      	str	r5, [sp, #48]	; 0x30
  GPIO_InitStruct.Alternate = GPIO_AF10_OTG_FS;
 800167a:	930d      	str	r3, [sp, #52]	; 0x34
  HAL_GPIO_Init(GPIOC, &GPIO_InitStruct);

  /*Configure GPIO pins : USB_SOF_Pin USB_ID_Pin USB_DM_Pin USB_DP_Pin */
  GPIO_InitStruct.Pin = USB_SOF_Pin|USB_ID_Pin|USB_DM_Pin|USB_DP_Pin;
  GPIO_InitStruct.Mode = GPIO_MODE_AF_PP;
  GPIO_InitStruct.Pull = GPIO_NOPULL;
 800167c:	940b      	str	r4, [sp, #44]	; 0x2c
  GPIO_InitStruct.Speed = GPIO_SPEED_FREQ_VERY_HIGH;
  GPIO_InitStruct.Alternate = GPIO_AF10_OTG_FS;
  HAL_GPIO_Init(GPIOA, &GPIO_InitStruct);
 800167e:	f001 fdcb 	bl	8003218 <HAL_GPIO_Init>

  /*Configure GPIO pins : RMII_TX_EN_Pin RMII_TXD0_Pin */
  GPIO_InitStruct.Pin = RMII_TX_EN_Pin|RMII_TXD0_Pin;
 8001682:	f44f 5320 	mov.w	r3, #10240	; 0x2800
  GPIO_InitStruct.Mode = GPIO_MODE_AF_PP;
  GPIO_InitStruct.Pull = GPIO_NOPULL;
  GPIO_InitStruct.Speed = GPIO_SPEED_FREQ_VERY_HIGH;
  GPIO_InitStruct.Alternate = GPIO_AF11_ETH;
  HAL_GPIO_Init(GPIOG, &GPIO_InitStruct);
 8001686:	485b      	ldr	r0, [pc, #364]	; (80017f4 <main+0x2b0>)
  GPIO_InitStruct.Speed = GPIO_SPEED_FREQ_VERY_HIGH;
  GPIO_InitStruct.Alternate = GPIO_AF10_OTG_FS;
  HAL_GPIO_Init(GPIOA, &GPIO_InitStruct);

  /*Configure GPIO pins : RMII_TX_EN_Pin RMII_TXD0_Pin */
  GPIO_InitStruct.Pin = RMII_TX_EN_Pin|RMII_TXD0_Pin;
 8001688:	9309      	str	r3, [sp, #36]	; 0x24
  GPIO_InitStruct.Mode = GPIO_MODE_AF_PP;
  GPIO_InitStruct.Pull = GPIO_NOPULL;
  GPIO_InitStruct.Speed = GPIO_SPEED_FREQ_VERY_HIGH;
  GPIO_InitStruct.Alternate = GPIO_AF11_ETH;
  HAL_GPIO_Init(GPIOG, &GPIO_InitStruct);
 800168a:	a909      	add	r1, sp, #36	; 0x24
  GPIO_InitStruct.Alternate = GPIO_AF10_OTG_FS;
  HAL_GPIO_Init(GPIOA, &GPIO_InitStruct);

  /*Configure GPIO pins : RMII_TX_EN_Pin RMII_TXD0_Pin */
  GPIO_InitStruct.Pin = RMII_TX_EN_Pin|RMII_TXD0_Pin;
  GPIO_InitStruct.Mode = GPIO_MODE_AF_PP;
 800168c:	960a      	str	r6, [sp, #40]	; 0x28
  GPIO_InitStruct.Pull = GPIO_NOPULL;
  GPIO_InitStruct.Speed = GPIO_SPEED_FREQ_VERY_HIGH;
 800168e:	950c      	str	r5, [sp, #48]	; 0x30
  GPIO_InitStruct.Alternate = GPIO_AF11_ETH;
 8001690:	970d      	str	r7, [sp, #52]	; 0x34
  HAL_GPIO_Init(GPIOA, &GPIO_InitStruct);

  /*Configure GPIO pins : RMII_TX_EN_Pin RMII_TXD0_Pin */
  GPIO_InitStruct.Pin = RMII_TX_EN_Pin|RMII_TXD0_Pin;
  GPIO_InitStruct.Mode = GPIO_MODE_AF_PP;
  GPIO_InitStruct.Pull = GPIO_NOPULL;
 8001692:	940b      	str	r4, [sp, #44]	; 0x2c
  GPIO_InitStruct.Speed = GPIO_SPEED_FREQ_VERY_HIGH;
  GPIO_InitStruct.Alternate = GPIO_AF11_ETH;
  HAL_GPIO_Init(GPIOG, &GPIO_InitStruct);
 8001694:	f001 fdc0 	bl	8003218 <HAL_GPIO_Init>

  /*Configure GPIO pin Output Level */
  HAL_GPIO_WritePin(GPIOB, GPIO_PIN_0|GPIO_PIN_12|GPIO_PIN_13|LD3_Pin 
 8001698:	4855      	ldr	r0, [pc, #340]	; (80017f0 <main+0x2ac>)
{

  TIM_ClockConfigTypeDef sClockSourceConfig;
  TIM_MasterConfigTypeDef sMasterConfig;

  htim3.Instance = TIM3;
 800169a:	4d57      	ldr	r5, [pc, #348]	; (80017f8 <main+0x2b4>)
  GPIO_InitStruct.Speed = GPIO_SPEED_FREQ_VERY_HIGH;
  GPIO_InitStruct.Alternate = GPIO_AF11_ETH;
  HAL_GPIO_Init(GPIOG, &GPIO_InitStruct);

  /*Configure GPIO pin Output Level */
  HAL_GPIO_WritePin(GPIOB, GPIO_PIN_0|GPIO_PIN_12|GPIO_PIN_13|LD3_Pin 
 800169c:	4659      	mov	r1, fp
 800169e:	4622      	mov	r2, r4
 80016a0:	f001 feae 	bl	8003400 <HAL_GPIO_WritePin>
                          |GPIO_PIN_15|LD2_Pin, GPIO_PIN_RESET);

  /*Configure GPIO pin Output Level */
  HAL_GPIO_WritePin(USB_PowerSwitchOn_GPIO_Port, USB_PowerSwitchOn_Pin, GPIO_PIN_RESET);
 80016a4:	4853      	ldr	r0, [pc, #332]	; (80017f4 <main+0x2b0>)
 80016a6:	4651      	mov	r1, sl
 80016a8:	4622      	mov	r2, r4
 80016aa:	f001 fea9 	bl	8003400 <HAL_GPIO_WritePin>

  /*Configure GPIO pin Output Level */
  HAL_GPIO_WritePin(GPIOC, GPIO_PIN_6|GPIO_PIN_7|GPIO_PIN_8|GPIO_PIN_9 
 80016ae:	4622      	mov	r2, r4
 80016b0:	4649      	mov	r1, r9
 80016b2:	484d      	ldr	r0, [pc, #308]	; (80017e8 <main+0x2a4>)
 80016b4:	f001 fea4 	bl	8003400 <HAL_GPIO_WritePin>

  TIM_ClockConfigTypeDef sClockSourceConfig;
  TIM_MasterConfigTypeDef sMasterConfig;

  htim3.Instance = TIM3;
  htim3.Init.Prescaler = 10800;
 80016b8:	4b50      	ldr	r3, [pc, #320]	; (80017fc <main+0x2b8>)
  htim3.Init.CounterMode = TIM_COUNTERMODE_UP;
 80016ba:	60ac      	str	r4, [r5, #8]

  TIM_ClockConfigTypeDef sClockSourceConfig;
  TIM_MasterConfigTypeDef sMasterConfig;

  htim3.Instance = TIM3;
  htim3.Init.Prescaler = 10800;
 80016bc:	f642 2730 	movw	r7, #10800	; 0x2a30
 80016c0:	e885 0088 	stmia.w	r5, {r3, r7}
  htim3.Init.CounterMode = TIM_COUNTERMODE_UP;
  htim3.Init.Period = 9999;
  htim3.Init.ClockDivision = TIM_CLOCKDIVISION_DIV1;
  HAL_TIM_Base_Init(&htim3);
 80016c4:	4628      	mov	r0, r5
  TIM_MasterConfigTypeDef sMasterConfig;

  htim3.Instance = TIM3;
  htim3.Init.Prescaler = 10800;
  htim3.Init.CounterMode = TIM_COUNTERMODE_UP;
  htim3.Init.Period = 9999;
 80016c6:	f242 730f 	movw	r3, #9999	; 0x270f
 80016ca:	60eb      	str	r3, [r5, #12]
  htim3.Init.ClockDivision = TIM_CLOCKDIVISION_DIV1;
  HAL_TIM_Base_Init(&htim3);

  sClockSourceConfig.ClockSource = TIM_CLOCKSOURCE_INTERNAL;
 80016cc:	f44f 5680 	mov.w	r6, #4096	; 0x1000

  htim3.Instance = TIM3;
  htim3.Init.Prescaler = 10800;
  htim3.Init.CounterMode = TIM_COUNTERMODE_UP;
  htim3.Init.Period = 9999;
  htim3.Init.ClockDivision = TIM_CLOCKDIVISION_DIV1;
 80016d0:	612c      	str	r4, [r5, #16]
  HAL_TIM_Base_Init(&htim3);
 80016d2:	f000 fdc9 	bl	8002268 <HAL_TIM_Base_Init>

  sClockSourceConfig.ClockSource = TIM_CLOCKSOURCE_INTERNAL;
  HAL_TIM_ConfigClockSource(&htim3, &sClockSourceConfig);
 80016d6:	4628      	mov	r0, r5
 80016d8:	a909      	add	r1, sp, #36	; 0x24
  htim3.Init.CounterMode = TIM_COUNTERMODE_UP;
  htim3.Init.Period = 9999;
  htim3.Init.ClockDivision = TIM_CLOCKDIVISION_DIV1;
  HAL_TIM_Base_Init(&htim3);

  sClockSourceConfig.ClockSource = TIM_CLOCKSOURCE_INTERNAL;
 80016da:	9609      	str	r6, [sp, #36]	; 0x24
  HAL_TIM_ConfigClockSource(&htim3, &sClockSourceConfig);
 80016dc:	f000 fde4 	bl	80022a8 <HAL_TIM_ConfigClockSource>

  sMasterConfig.MasterOutputTrigger = TIM_TRGO_RESET;
  sMasterConfig.MasterSlaveMode = TIM_MASTERSLAVEMODE_DISABLE;
  HAL_TIMEx_MasterConfigSynchronization(&htim3, &sMasterConfig);
 80016e0:	a906      	add	r1, sp, #24
 80016e2:	4628      	mov	r0, r5
  HAL_TIM_Base_Init(&htim3);

  sClockSourceConfig.ClockSource = TIM_CLOCKSOURCE_INTERNAL;
  HAL_TIM_ConfigClockSource(&htim3, &sClockSourceConfig);

  sMasterConfig.MasterOutputTrigger = TIM_TRGO_RESET;
 80016e4:	9406      	str	r4, [sp, #24]
{

  TIM_ClockConfigTypeDef sClockSourceConfig;
  TIM_MasterConfigTypeDef sMasterConfig;

  htim4.Instance = TIM4;
 80016e6:	4d46      	ldr	r5, [pc, #280]	; (8001800 <main+0x2bc>)

  sClockSourceConfig.ClockSource = TIM_CLOCKSOURCE_INTERNAL;
  HAL_TIM_ConfigClockSource(&htim3, &sClockSourceConfig);

  sMasterConfig.MasterOutputTrigger = TIM_TRGO_RESET;
  sMasterConfig.MasterSlaveMode = TIM_MASTERSLAVEMODE_DISABLE;
 80016e8:	9408      	str	r4, [sp, #32]
  HAL_TIMEx_MasterConfigSynchronization(&htim3, &sMasterConfig);
 80016ea:	f000 fc4d 	bl	8001f88 <HAL_TIMEx_MasterConfigSynchronization>
{

  TIM_ClockConfigTypeDef sClockSourceConfig;
  TIM_MasterConfigTypeDef sMasterConfig;

  htim4.Instance = TIM4;
 80016ee:	4b45      	ldr	r3, [pc, #276]	; (8001804 <main+0x2c0>)
  htim4.Init.Prescaler = 10800;
  htim4.Init.CounterMode = TIM_COUNTERMODE_UP;
 80016f0:	60ac      	str	r4, [r5, #8]

  TIM_ClockConfigTypeDef sClockSourceConfig;
  TIM_MasterConfigTypeDef sMasterConfig;

  htim4.Instance = TIM4;
  htim4.Init.Prescaler = 10800;
 80016f2:	e885 0088 	stmia.w	r5, {r3, r7}
  htim4.Init.CounterMode = TIM_COUNTERMODE_UP;
  htim4.Init.Period = 4999;
  htim4.Init.ClockDivision = TIM_CLOCKDIVISION_DIV1;
  HAL_TIM_Base_Init(&htim4);
 80016f6:	4628      	mov	r0, r5
  TIM_MasterConfigTypeDef sMasterConfig;

  htim4.Instance = TIM4;
  htim4.Init.Prescaler = 10800;
  htim4.Init.CounterMode = TIM_COUNTERMODE_UP;
  htim4.Init.Period = 4999;
 80016f8:	f241 3387 	movw	r3, #4999	; 0x1387
 80016fc:	60eb      	str	r3, [r5, #12]
  htim4.Init.ClockDivision = TIM_CLOCKDIVISION_DIV1;
 80016fe:	612c      	str	r4, [r5, #16]
  HAL_TIM_Base_Init(&htim4);
 8001700:	f000 fdb2 	bl	8002268 <HAL_TIM_Base_Init>

  sClockSourceConfig.ClockSource = TIM_CLOCKSOURCE_INTERNAL;
  HAL_TIM_ConfigClockSource(&htim4, &sClockSourceConfig);
 8001704:	4628      	mov	r0, r5
 8001706:	a909      	add	r1, sp, #36	; 0x24
  htim4.Init.CounterMode = TIM_COUNTERMODE_UP;
  htim4.Init.Period = 4999;
  htim4.Init.ClockDivision = TIM_CLOCKDIVISION_DIV1;
  HAL_TIM_Base_Init(&htim4);

  sClockSourceConfig.ClockSource = TIM_CLOCKSOURCE_INTERNAL;
 8001708:	9609      	str	r6, [sp, #36]	; 0x24
  HAL_TIM_ConfigClockSource(&htim4, &sClockSourceConfig);
 800170a:	f000 fdcd 	bl	80022a8 <HAL_TIM_ConfigClockSource>

  sMasterConfig.MasterOutputTrigger = TIM_TRGO_RESET;
  sMasterConfig.MasterSlaveMode = TIM_MASTERSLAVEMODE_DISABLE;
  HAL_TIMEx_MasterConfigSynchronization(&htim4, &sMasterConfig);
 800170e:	a906      	add	r1, sp, #24
 8001710:	4628      	mov	r0, r5
  HAL_TIM_Base_Init(&htim4);

  sClockSourceConfig.ClockSource = TIM_CLOCKSOURCE_INTERNAL;
  HAL_TIM_ConfigClockSource(&htim4, &sClockSourceConfig);

  sMasterConfig.MasterOutputTrigger = TIM_TRGO_RESET;
 8001712:	9406      	str	r4, [sp, #24]
{

  TIM_ClockConfigTypeDef sClockSourceConfig;
  TIM_MasterConfigTypeDef sMasterConfig;

  htim5.Instance = TIM5;
 8001714:	4d3c      	ldr	r5, [pc, #240]	; (8001808 <main+0x2c4>)

  sClockSourceConfig.ClockSource = TIM_CLOCKSOURCE_INTERNAL;
  HAL_TIM_ConfigClockSource(&htim4, &sClockSourceConfig);

  sMasterConfig.MasterOutputTrigger = TIM_TRGO_RESET;
  sMasterConfig.MasterSlaveMode = TIM_MASTERSLAVEMODE_DISABLE;
 8001716:	9408      	str	r4, [sp, #32]
  HAL_TIMEx_MasterConfigSynchronization(&htim4, &sMasterConfig);
 8001718:	f000 fc36 	bl	8001f88 <HAL_TIMEx_MasterConfigSynchronization>
{

  TIM_ClockConfigTypeDef sClockSourceConfig;
  TIM_MasterConfigTypeDef sMasterConfig;

  htim5.Instance = TIM5;
 800171c:	4b3b      	ldr	r3, [pc, #236]	; (800180c <main+0x2c8>)
  htim5.Init.Prescaler = 10800;
  htim5.Init.CounterMode = TIM_COUNTERMODE_UP;
 800171e:	60ac      	str	r4, [r5, #8]

  TIM_ClockConfigTypeDef sClockSourceConfig;
  TIM_MasterConfigTypeDef sMasterConfig;

  htim5.Instance = TIM5;
  htim5.Init.Prescaler = 10800;
 8001720:	e885 0088 	stmia.w	r5, {r3, r7}
  htim5.Init.CounterMode = TIM_COUNTERMODE_UP;
  htim5.Init.Period = 2499;
  htim5.Init.ClockDivision = TIM_CLOCKDIVISION_DIV1;
  HAL_TIM_Base_Init(&htim5);
 8001724:	4628      	mov	r0, r5
  TIM_MasterConfigTypeDef sMasterConfig;

  htim5.Instance = TIM5;
  htim5.Init.Prescaler = 10800;
  htim5.Init.CounterMode = TIM_COUNTERMODE_UP;
  htim5.Init.Period = 2499;
 8001726:	f640 13c3 	movw	r3, #2499	; 0x9c3
 800172a:	60eb      	str	r3, [r5, #12]
  htim5.Init.ClockDivision = TIM_CLOCKDIVISION_DIV1;
 800172c:	612c      	str	r4, [r5, #16]
  HAL_TIM_Base_Init(&htim5);
 800172e:	f000 fd9b 	bl	8002268 <HAL_TIM_Base_Init>

  sClockSourceConfig.ClockSource = TIM_CLOCKSOURCE_INTERNAL;
  HAL_TIM_ConfigClockSource(&htim5, &sClockSourceConfig);
 8001732:	4628      	mov	r0, r5
 8001734:	a909      	add	r1, sp, #36	; 0x24
  htim5.Init.CounterMode = TIM_COUNTERMODE_UP;
  htim5.Init.Period = 2499;
  htim5.Init.ClockDivision = TIM_CLOCKDIVISION_DIV1;
  HAL_TIM_Base_Init(&htim5);

  sClockSourceConfig.ClockSource = TIM_CLOCKSOURCE_INTERNAL;
 8001736:	9609      	str	r6, [sp, #36]	; 0x24
  HAL_TIM_ConfigClockSource(&htim5, &sClockSourceConfig);
 8001738:	f000 fdb6 	bl	80022a8 <HAL_TIM_ConfigClockSource>

  sMasterConfig.MasterOutputTrigger = TIM_TRGO_RESET;
  sMasterConfig.MasterSlaveMode = TIM_MASTERSLAVEMODE_DISABLE;
  HAL_TIMEx_MasterConfigSynchronization(&htim5, &sMasterConfig);
 800173c:	4628      	mov	r0, r5
 800173e:	a906      	add	r1, sp, #24
  HAL_TIM_Base_Init(&htim5);

  sClockSourceConfig.ClockSource = TIM_CLOCKSOURCE_INTERNAL;
  HAL_TIM_ConfigClockSource(&htim5, &sClockSourceConfig);

  sMasterConfig.MasterOutputTrigger = TIM_TRGO_RESET;
 8001740:	9406      	str	r4, [sp, #24]
  sMasterConfig.MasterSlaveMode = TIM_MASTERSLAVEMODE_DISABLE;
 8001742:	9408      	str	r4, [sp, #32]
  HAL_TIMEx_MasterConfigSynchronization(&htim5, &sMasterConfig);
 8001744:	f000 fc20 	bl	8001f88 <HAL_TIMEx_MasterConfigSynchronization>

/* UART5 init function */
void MX_UART5_Init(void)
{

  huart5.Instance = UART5;
 8001748:	4831      	ldr	r0, [pc, #196]	; (8001810 <main+0x2cc>)
  huart5.Init.BaudRate = 115200;
 800174a:	4b32      	ldr	r3, [pc, #200]	; (8001814 <main+0x2d0>)
  huart5.Init.WordLength = UART_WORDLENGTH_8B;
 800174c:	6084      	str	r4, [r0, #8]
/* UART5 init function */
void MX_UART5_Init(void)
{

  huart5.Instance = UART5;
  huart5.Init.BaudRate = 115200;
 800174e:	f44f 36e1 	mov.w	r6, #115200	; 0x1c200
  huart5.Init.WordLength = UART_WORDLENGTH_8B;
  huart5.Init.StopBits = UART_STOPBITS_1;
  huart5.Init.Parity = UART_PARITY_NONE;
  huart5.Init.Mode = UART_MODE_TX_RX;
 8001752:	250c      	movs	r5, #12
/* UART5 init function */
void MX_UART5_Init(void)
{

  huart5.Instance = UART5;
  huart5.Init.BaudRate = 115200;
 8001754:	e880 0048 	stmia.w	r0, {r3, r6}
  huart5.Init.WordLength = UART_WORDLENGTH_8B;
  huart5.Init.StopBits = UART_STOPBITS_1;
 8001758:	60c4      	str	r4, [r0, #12]
  huart5.Init.Parity = UART_PARITY_NONE;
 800175a:	6104      	str	r4, [r0, #16]
  huart5.Init.Mode = UART_MODE_TX_RX;
 800175c:	6145      	str	r5, [r0, #20]
  huart5.Init.HwFlowCtl = UART_HWCONTROL_NONE;
 800175e:	6184      	str	r4, [r0, #24]
  huart5.Init.OverSampling = UART_OVERSAMPLING_16;
 8001760:	61c4      	str	r4, [r0, #28]
  huart5.Init.OneBitSampling = UART_ONE_BIT_SAMPLE_DISABLE;
 8001762:	6204      	str	r4, [r0, #32]
  huart5.AdvancedInit.AdvFeatureInit = UART_ADVFEATURE_NO_INIT;
 8001764:	6244      	str	r4, [r0, #36]	; 0x24
  HAL_UART_Init(&huart5);
 8001766:	f000 fbdd 	bl	8001f24 <HAL_UART_Init>

/* USART3 init function */
void MX_USART3_UART_Init(void)
{

  huart3.Instance = USART3;
 800176a:	482b      	ldr	r0, [pc, #172]	; (8001818 <main+0x2d4>)
 800176c:	4b2b      	ldr	r3, [pc, #172]	; (800181c <main+0x2d8>)
  huart3.Init.BaudRate = 115200;
  huart3.Init.WordLength = UART_WORDLENGTH_8B;
 800176e:	6084      	str	r4, [r0, #8]
/* USART3 init function */
void MX_USART3_UART_Init(void)
{

  huart3.Instance = USART3;
  huart3.Init.BaudRate = 115200;
 8001770:	e880 0048 	stmia.w	r0, {r3, r6}
  huart3.Init.WordLength = UART_WORDLENGTH_8B;
  huart3.Init.StopBits = UART_STOPBITS_1;
 8001774:	60c4      	str	r4, [r0, #12]
  huart3.Init.Parity = UART_PARITY_NONE;
 8001776:	6104      	str	r4, [r0, #16]
  huart3.Init.Mode = UART_MODE_TX_RX;
 8001778:	6145      	str	r5, [r0, #20]
  huart3.Init.HwFlowCtl = UART_HWCONTROL_NONE;
 800177a:	6184      	str	r4, [r0, #24]
  huart3.Init.OverSampling = UART_OVERSAMPLING_16;
 800177c:	61c4      	str	r4, [r0, #28]
  huart3.Init.OneBitSampling = UART_ONE_BIT_SAMPLE_DISABLE;
 800177e:	6204      	str	r4, [r0, #32]
  huart3.AdvancedInit.AdvFeatureInit = UART_ADVFEATURE_NO_INIT;
 8001780:	6244      	str	r4, [r0, #36]	; 0x24
  HAL_UART_Init(&huart3);
 8001782:	f000 fbcf 	bl	8001f24 <HAL_UART_Init>
  MX_TIM5_Init();
  MX_UART5_Init();
  MX_USART3_UART_Init();

  /* USER CODE BEGIN 2 */
	while(HAL_TIM_Base_Start_IT(&htim3)!=HAL_OK);
 8001786:	481c      	ldr	r0, [pc, #112]	; (80017f8 <main+0x2b4>)
 8001788:	f000 fc4b 	bl	8002022 <HAL_TIM_Base_Start_IT>
 800178c:	2800      	cmp	r0, #0
 800178e:	d1fa      	bne.n	8001786 <main+0x242>
	while(HAL_TIM_Base_Start_IT(&htim4)!=HAL_OK);
 8001790:	481b      	ldr	r0, [pc, #108]	; (8001800 <main+0x2bc>)
 8001792:	f000 fc46 	bl	8002022 <HAL_TIM_Base_Start_IT>
 8001796:	2800      	cmp	r0, #0
 8001798:	d1fa      	bne.n	8001790 <main+0x24c>
	while(HAL_TIM_Base_Start_IT(&htim5)!=HAL_OK);
 800179a:	481b      	ldr	r0, [pc, #108]	; (8001808 <main+0x2c4>)
 800179c:	f000 fc41 	bl	8002022 <HAL_TIM_Base_Start_IT>
 80017a0:	2800      	cmp	r0, #0
 80017a2:	d1fa      	bne.n	800179a <main+0x256>

	while(HAL_UART_Receive_IT(&huart3, Rx_Data3, 1)!=HAL_OK);
 80017a4:	481c      	ldr	r0, [pc, #112]	; (8001818 <main+0x2d4>)
 80017a6:	491e      	ldr	r1, [pc, #120]	; (8001820 <main+0x2dc>)
 80017a8:	2201      	movs	r2, #1
 80017aa:	f000 f841 	bl	8001830 <HAL_UART_Receive_IT>
 80017ae:	2800      	cmp	r0, #0
 80017b0:	d1f8      	bne.n	80017a4 <main+0x260>
	while(HAL_UART_Receive_IT(&huart5, Rx_Data5, 1)!=HAL_OK);
 80017b2:	4817      	ldr	r0, [pc, #92]	; (8001810 <main+0x2cc>)
 80017b4:	491b      	ldr	r1, [pc, #108]	; (8001824 <main+0x2e0>)
 80017b6:	2201      	movs	r2, #1
 80017b8:	f000 f83a 	bl	8001830 <HAL_UART_Receive_IT>
 80017bc:	2800      	cmp	r0, #0
 80017be:	d1f8      	bne.n	80017b2 <main+0x26e>

	HAL_UART_Transmit(&huart3, (uint8_t *)"Cortex-M7\r\n", 11,1000);
 80017c0:	4815      	ldr	r0, [pc, #84]	; (8001818 <main+0x2d4>)
 80017c2:	4919      	ldr	r1, [pc, #100]	; (8001828 <main+0x2e4>)
 80017c4:	220b      	movs	r2, #11
 80017c6:	f44f 737a 	mov.w	r3, #1000	; 0x3e8
 80017ca:	f000 f8c7 	bl	800195c <HAL_UART_Transmit>
  while (1)
  {
  /* USER CODE END WHILE */

  /* USER CODE BEGIN 3 */
		HAL_UART_Transmit(&huart3, (uint8_t *)"Cortex-M7\r\n", 11,1000);
 80017ce:	4916      	ldr	r1, [pc, #88]	; (8001828 <main+0x2e4>)
 80017d0:	4811      	ldr	r0, [pc, #68]	; (8001818 <main+0x2d4>)
 80017d2:	220b      	movs	r2, #11
 80017d4:	f44f 737a 	mov.w	r3, #1000	; 0x3e8
 80017d8:	f000 f8c0 	bl	800195c <HAL_UART_Transmit>

//		HAL_GPIO_TogglePin(GPIOB, LD2_Pin | LD3_Pin );
		HAL_Delay(500000);
 80017dc:	4813      	ldr	r0, [pc, #76]	; (800182c <main+0x2e8>)
 80017de:	f001 fec1 	bl	8003564 <HAL_Delay>
 80017e2:	e7f4      	b.n	80017ce <main+0x28a>
 80017e4:	40023800 	.word	0x40023800
 80017e8:	40020800 	.word	0x40020800
 80017ec:	40020000 	.word	0x40020000
 80017f0:	40020400 	.word	0x40020400
 80017f4:	40021800 	.word	0x40021800
 80017f8:	200006a0 	.word	0x200006a0
 80017fc:	40000400 	.word	0x40000400
 8001800:	200005a0 	.word	0x200005a0
 8001804:	40000800 	.word	0x40000800
 8001808:	20000664 	.word	0x20000664
 800180c:	40000c00 	.word	0x40000c00
 8001810:	200006e0 	.word	0x200006e0
 8001814:	40005000 	.word	0x40005000
 8001818:	200005e8 	.word	0x200005e8
 800181c:	40004800 	.word	0x40004800
 8001820:	20000753 	.word	0x20000753
 8001824:	20000758 	.word	0x20000758
 8001828:	08007a30 	.word	0x08007a30
 800182c:	0007a120 	.word	0x0007a120

08001830 <HAL_UART_Receive_IT>:
  * @param Size: amount of data to be received
  * @retval HAL status
  */
HAL_StatusTypeDef HAL_UART_Receive_IT(UART_HandleTypeDef *huart, uint8_t *pData, uint16_t Size)
{
  if((huart->State == HAL_UART_STATE_READY) || (huart->State == HAL_UART_STATE_BUSY_TX))
 8001830:	f890 3069 	ldrb.w	r3, [r0, #105]	; 0x69
 8001834:	2b01      	cmp	r3, #1
 8001836:	d003      	beq.n	8001840 <HAL_UART_Receive_IT+0x10>
 8001838:	f890 3069 	ldrb.w	r3, [r0, #105]	; 0x69
 800183c:	2b12      	cmp	r3, #18
 800183e:	d146      	bne.n	80018ce <HAL_UART_Receive_IT+0x9e>
  {
    if((pData == NULL ) || (Size == 0)) 
 8001840:	2900      	cmp	r1, #0
 8001842:	d042      	beq.n	80018ca <HAL_UART_Receive_IT+0x9a>
 8001844:	2a00      	cmp	r2, #0
 8001846:	d040      	beq.n	80018ca <HAL_UART_Receive_IT+0x9a>
    {
      return HAL_ERROR;
    }

    /* Process Locked */
    __HAL_LOCK(huart);
 8001848:	f890 3068 	ldrb.w	r3, [r0, #104]	; 0x68
 800184c:	2b01      	cmp	r3, #1
 800184e:	d03e      	beq.n	80018ce <HAL_UART_Receive_IT+0x9e>
 8001850:	2301      	movs	r3, #1
 8001852:	f880 3068 	strb.w	r3, [r0, #104]	; 0x68
    huart->pRxBuffPtr = pData;
    huart->RxXferSize = Size;
    huart->RxXferCount = Size;

    /* Computation of UART mask to apply to RDR register */
    UART_MASK_COMPUTATION(huart);
 8001856:	6883      	ldr	r3, [r0, #8]
    }

    /* Process Locked */
    __HAL_LOCK(huart);

    huart->pRxBuffPtr = pData;
 8001858:	6541      	str	r1, [r0, #84]	; 0x54
    huart->RxXferSize = Size;
    huart->RxXferCount = Size;

    /* Computation of UART mask to apply to RDR register */
    UART_MASK_COMPUTATION(huart);
 800185a:	f5b3 5f80 	cmp.w	r3, #4096	; 0x1000

    /* Process Locked */
    __HAL_LOCK(huart);

    huart->pRxBuffPtr = pData;
    huart->RxXferSize = Size;
 800185e:	f8a0 2058 	strh.w	r2, [r0, #88]	; 0x58
    huart->RxXferCount = Size;
 8001862:	f8a0 205a 	strh.w	r2, [r0, #90]	; 0x5a

    /* Computation of UART mask to apply to RDR register */
    UART_MASK_COMPUTATION(huart);
 8001866:	d104      	bne.n	8001872 <HAL_UART_Receive_IT+0x42>
 8001868:	6903      	ldr	r3, [r0, #16]
 800186a:	b92b      	cbnz	r3, 8001878 <HAL_UART_Receive_IT+0x48>
 800186c:	f240 13ff 	movw	r3, #511	; 0x1ff
 8001870:	e00d      	b.n	800188e <HAL_UART_Receive_IT+0x5e>
 8001872:	b92b      	cbnz	r3, 8001880 <HAL_UART_Receive_IT+0x50>
 8001874:	6903      	ldr	r3, [r0, #16]
 8001876:	b90b      	cbnz	r3, 800187c <HAL_UART_Receive_IT+0x4c>
 8001878:	23ff      	movs	r3, #255	; 0xff
 800187a:	e008      	b.n	800188e <HAL_UART_Receive_IT+0x5e>
 800187c:	237f      	movs	r3, #127	; 0x7f
 800187e:	e006      	b.n	800188e <HAL_UART_Receive_IT+0x5e>
 8001880:	f1b3 5f80 	cmp.w	r3, #268435456	; 0x10000000
 8001884:	d105      	bne.n	8001892 <HAL_UART_Receive_IT+0x62>
 8001886:	6903      	ldr	r3, [r0, #16]
 8001888:	2b00      	cmp	r3, #0
 800188a:	d0f7      	beq.n	800187c <HAL_UART_Receive_IT+0x4c>
 800188c:	233f      	movs	r3, #63	; 0x3f
 800188e:	f8a0 305c 	strh.w	r3, [r0, #92]	; 0x5c

    huart->ErrorCode = HAL_UART_ERROR_NONE;
 8001892:	2300      	movs	r3, #0
 8001894:	66c3      	str	r3, [r0, #108]	; 0x6c
    /* Check if a transmit process is ongoing or not */
    if(huart->State == HAL_UART_STATE_BUSY_TX) 
 8001896:	f890 3069 	ldrb.w	r3, [r0, #105]	; 0x69
 800189a:	2b12      	cmp	r3, #18
    {
      huart->State = HAL_UART_STATE_BUSY_TX_RX;
 800189c:	bf0c      	ite	eq
 800189e:	2332      	moveq	r3, #50	; 0x32
    }
    else
    {
      huart->State = HAL_UART_STATE_BUSY_RX;
 80018a0:	2322      	movne	r3, #34	; 0x22
 80018a2:	f880 3069 	strb.w	r3, [r0, #105]	; 0x69
    }

    /* Enable the UART Parity Error Interrupt */
    __HAL_UART_ENABLE_IT(huart, UART_IT_PE);
 80018a6:	6803      	ldr	r3, [r0, #0]
 80018a8:	681a      	ldr	r2, [r3, #0]
 80018aa:	f442 7280 	orr.w	r2, r2, #256	; 0x100
 80018ae:	601a      	str	r2, [r3, #0]

    /* Enable the UART Error Interrupt: (Frame error, noise error, overrun error) */
    __HAL_UART_ENABLE_IT(huart, UART_IT_ERR);
 80018b0:	689a      	ldr	r2, [r3, #8]
 80018b2:	f042 0201 	orr.w	r2, r2, #1
 80018b6:	609a      	str	r2, [r3, #8]

    /* Process Unlocked */
    __HAL_UNLOCK(huart);

    /* Enable the UART Data Register not empty Interrupt */
    __HAL_UART_ENABLE_IT(huart, UART_IT_RXNE);
 80018b8:	6819      	ldr	r1, [r3, #0]

    /* Enable the UART Error Interrupt: (Frame error, noise error, overrun error) */
    __HAL_UART_ENABLE_IT(huart, UART_IT_ERR);

    /* Process Unlocked */
    __HAL_UNLOCK(huart);
 80018ba:	2200      	movs	r2, #0

    /* Enable the UART Data Register not empty Interrupt */
    __HAL_UART_ENABLE_IT(huart, UART_IT_RXNE);
 80018bc:	f041 0120 	orr.w	r1, r1, #32

    /* Enable the UART Error Interrupt: (Frame error, noise error, overrun error) */
    __HAL_UART_ENABLE_IT(huart, UART_IT_ERR);

    /* Process Unlocked */
    __HAL_UNLOCK(huart);
 80018c0:	f880 2068 	strb.w	r2, [r0, #104]	; 0x68

    /* Enable the UART Data Register not empty Interrupt */
    __HAL_UART_ENABLE_IT(huart, UART_IT_RXNE);
 80018c4:	6019      	str	r1, [r3, #0]

    return HAL_OK;
 80018c6:	4610      	mov	r0, r2
 80018c8:	4770      	bx	lr
{
  if((huart->State == HAL_UART_STATE_READY) || (huart->State == HAL_UART_STATE_BUSY_TX))
  {
    if((pData == NULL ) || (Size == 0)) 
    {
      return HAL_ERROR;
 80018ca:	2001      	movs	r0, #1
 80018cc:	4770      	bx	lr

    return HAL_OK;
  }
  else
  {
    return HAL_BUSY; 
 80018ce:	2002      	movs	r0, #2
  }
}
 80018d0:	4770      	bx	lr

080018d2 <UART_WaitOnFlagUntilTimeout>:
  * @param  Status: The new Flag status (SET or RESET).
  * @param  Timeout: Timeout duration
  * @retval HAL status
  */
HAL_StatusTypeDef UART_WaitOnFlagUntilTimeout(UART_HandleTypeDef *huart, uint32_t Flag, FlagStatus Status, uint32_t Timeout)
{
 80018d2:	e92d 41f0 	stmdb	sp!, {r4, r5, r6, r7, r8, lr}
 80018d6:	4604      	mov	r4, r0
 80018d8:	460e      	mov	r6, r1
 80018da:	4690      	mov	r8, r2
 80018dc:	461d      	mov	r5, r3
  uint32_t tickstart = HAL_GetTick();
 80018de:	f001 fe3b 	bl	8003558 <HAL_GetTick>
 80018e2:	4607      	mov	r7, r0
  
  /* Wait until flag is set */
  if(Status == RESET)
 80018e4:	f1b8 0f00 	cmp.w	r8, #0
 80018e8:	d136      	bne.n	8001958 <UART_WaitOnFlagUntilTimeout+0x86>
  {    
    while(__HAL_UART_GET_FLAG(huart, Flag) == RESET)
 80018ea:	6822      	ldr	r2, [r4, #0]
 80018ec:	69d3      	ldr	r3, [r2, #28]
 80018ee:	4033      	ands	r3, r6
 80018f0:	42b3      	cmp	r3, r6
 80018f2:	d00e      	beq.n	8001912 <UART_WaitOnFlagUntilTimeout+0x40>
    {
      /* Check for the Timeout */
      if(Timeout != HAL_MAX_DELAY)
 80018f4:	1c69      	adds	r1, r5, #1
 80018f6:	d0f9      	beq.n	80018ec <UART_WaitOnFlagUntilTimeout+0x1a>
      {
        if((Timeout == 0)||((HAL_GetTick()-tickstart) >=  Timeout))
 80018f8:	b17d      	cbz	r5, 800191a <UART_WaitOnFlagUntilTimeout+0x48>
 80018fa:	f001 fe2d 	bl	8003558 <HAL_GetTick>
 80018fe:	1bc0      	subs	r0, r0, r7
 8001900:	42a8      	cmp	r0, r5
 8001902:	d3f2      	bcc.n	80018ea <UART_WaitOnFlagUntilTimeout+0x18>
 8001904:	e009      	b.n	800191a <UART_WaitOnFlagUntilTimeout+0x48>
  else
  {
    while(__HAL_UART_GET_FLAG(huart, Flag) != RESET)
    {
      /* Check for the Timeout */
      if(Timeout != HAL_MAX_DELAY)
 8001906:	1c6b      	adds	r3, r5, #1
 8001908:	d106      	bne.n	8001918 <UART_WaitOnFlagUntilTimeout+0x46>
      }
    }
  }
  else
  {
    while(__HAL_UART_GET_FLAG(huart, Flag) != RESET)
 800190a:	69d3      	ldr	r3, [r2, #28]
 800190c:	4033      	ands	r3, r6
 800190e:	42b3      	cmp	r3, r6
 8001910:	d0f9      	beq.n	8001906 <UART_WaitOnFlagUntilTimeout+0x34>
          return HAL_TIMEOUT;
        }
      }
    }
  }
  return HAL_OK;      
 8001912:	2000      	movs	r0, #0
 8001914:	e8bd 81f0 	ldmia.w	sp!, {r4, r5, r6, r7, r8, pc}
    while(__HAL_UART_GET_FLAG(huart, Flag) != RESET)
    {
      /* Check for the Timeout */
      if(Timeout != HAL_MAX_DELAY)
      {
        if((Timeout == 0)||((HAL_GetTick()-tickstart) >=  Timeout))
 8001918:	b9cd      	cbnz	r5, 800194e <UART_WaitOnFlagUntilTimeout+0x7c>
        {
          /* Disable TXE, RXNE, PE and ERR (Frame error, noise error, overrun error) interrupts for the interrupt process */
          __HAL_UART_DISABLE_IT(huart, UART_IT_TXE);
 800191a:	6823      	ldr	r3, [r4, #0]
 800191c:	681a      	ldr	r2, [r3, #0]
 800191e:	f022 0280 	bic.w	r2, r2, #128	; 0x80
 8001922:	601a      	str	r2, [r3, #0]
          __HAL_UART_DISABLE_IT(huart, UART_IT_RXNE);
 8001924:	681a      	ldr	r2, [r3, #0]
 8001926:	f022 0220 	bic.w	r2, r2, #32
 800192a:	601a      	str	r2, [r3, #0]
          __HAL_UART_DISABLE_IT(huart, UART_IT_PE);
 800192c:	681a      	ldr	r2, [r3, #0]
 800192e:	f422 7280 	bic.w	r2, r2, #256	; 0x100
 8001932:	601a      	str	r2, [r3, #0]
          __HAL_UART_DISABLE_IT(huart, UART_IT_ERR);
 8001934:	689a      	ldr	r2, [r3, #8]
 8001936:	f022 0201 	bic.w	r2, r2, #1
 800193a:	609a      	str	r2, [r3, #8]
          
          huart->State= HAL_UART_STATE_READY;
 800193c:	2301      	movs	r3, #1
 800193e:	f884 3069 	strb.w	r3, [r4, #105]	; 0x69
          
          /* Process Unlocked */
          __HAL_UNLOCK(huart);
 8001942:	2300      	movs	r3, #0
 8001944:	f884 3068 	strb.w	r3, [r4, #104]	; 0x68
          
          return HAL_TIMEOUT;
 8001948:	2003      	movs	r0, #3
 800194a:	e8bd 81f0 	ldmia.w	sp!, {r4, r5, r6, r7, r8, pc}
    while(__HAL_UART_GET_FLAG(huart, Flag) != RESET)
    {
      /* Check for the Timeout */
      if(Timeout != HAL_MAX_DELAY)
      {
        if((Timeout == 0)||((HAL_GetTick()-tickstart) >=  Timeout))
 800194e:	f001 fe03 	bl	8003558 <HAL_GetTick>
 8001952:	1bc0      	subs	r0, r0, r7
 8001954:	42a8      	cmp	r0, r5
 8001956:	d2e0      	bcs.n	800191a <UART_WaitOnFlagUntilTimeout+0x48>
      }
    }
  }
  else
  {
    while(__HAL_UART_GET_FLAG(huart, Flag) != RESET)
 8001958:	6822      	ldr	r2, [r4, #0]
 800195a:	e7d6      	b.n	800190a <UART_WaitOnFlagUntilTimeout+0x38>

0800195c <HAL_UART_Transmit>:
  * @param Size: amount of data to be sent
  * @param Timeout : Timeout duration
  * @retval HAL status
  */
HAL_StatusTypeDef HAL_UART_Transmit(UART_HandleTypeDef *huart, uint8_t *pData, uint16_t Size, uint32_t Timeout)
{
 800195c:	b570      	push	{r4, r5, r6, lr}
 800195e:	461e      	mov	r6, r3
   uint16_t* tmp;

  if((huart->State == HAL_UART_STATE_READY) || (huart->State == HAL_UART_STATE_BUSY_RX))
 8001960:	f890 3069 	ldrb.w	r3, [r0, #105]	; 0x69
 8001964:	2b01      	cmp	r3, #1
  * @param Size: amount of data to be sent
  * @param Timeout : Timeout duration
  * @retval HAL status
  */
HAL_StatusTypeDef HAL_UART_Transmit(UART_HandleTypeDef *huart, uint8_t *pData, uint16_t Size, uint32_t Timeout)
{
 8001966:	4604      	mov	r4, r0
 8001968:	460d      	mov	r5, r1
   uint16_t* tmp;

  if((huart->State == HAL_UART_STATE_READY) || (huart->State == HAL_UART_STATE_BUSY_RX))
 800196a:	d003      	beq.n	8001974 <HAL_UART_Transmit+0x18>
 800196c:	f890 3069 	ldrb.w	r3, [r0, #105]	; 0x69
 8001970:	2b22      	cmp	r3, #34	; 0x22
 8001972:	d14d      	bne.n	8001a10 <HAL_UART_Transmit+0xb4>
  {
    if((pData == NULL ) || (Size == 0))
 8001974:	2d00      	cmp	r5, #0
 8001976:	d049      	beq.n	8001a0c <HAL_UART_Transmit+0xb0>
 8001978:	2a00      	cmp	r2, #0
 800197a:	d047      	beq.n	8001a0c <HAL_UART_Transmit+0xb0>
    {
      return  HAL_ERROR;
    }

    /* Process Locked */
    __HAL_LOCK(huart);
 800197c:	f894 3068 	ldrb.w	r3, [r4, #104]	; 0x68
 8001980:	2b01      	cmp	r3, #1
 8001982:	d045      	beq.n	8001a10 <HAL_UART_Transmit+0xb4>
 8001984:	2301      	movs	r3, #1
 8001986:	f884 3068 	strb.w	r3, [r4, #104]	; 0x68

    huart->ErrorCode = HAL_UART_ERROR_NONE;
 800198a:	2300      	movs	r3, #0
 800198c:	66e3      	str	r3, [r4, #108]	; 0x6c
    /* Check if a non-blocking receive process is ongoing or not */
    if(huart->State == HAL_UART_STATE_BUSY_RX) 
 800198e:	f894 3069 	ldrb.w	r3, [r4, #105]	; 0x69
    else
    {
      huart->State = HAL_UART_STATE_BUSY_TX;
    }

    huart->TxXferSize = Size;
 8001992:	f8a4 2050 	strh.w	r2, [r4, #80]	; 0x50
    /* Process Locked */
    __HAL_LOCK(huart);

    huart->ErrorCode = HAL_UART_ERROR_NONE;
    /* Check if a non-blocking receive process is ongoing or not */
    if(huart->State == HAL_UART_STATE_BUSY_RX) 
 8001996:	2b22      	cmp	r3, #34	; 0x22
    {
      huart->State = HAL_UART_STATE_BUSY_TX_RX;
 8001998:	bf0c      	ite	eq
 800199a:	2332      	moveq	r3, #50	; 0x32
    }
    else
    {
      huart->State = HAL_UART_STATE_BUSY_TX;
 800199c:	2312      	movne	r3, #18
 800199e:	f884 3069 	strb.w	r3, [r4, #105]	; 0x69
    }

    huart->TxXferSize = Size;
    huart->TxXferCount = Size;
 80019a2:	f8a4 2052 	strh.w	r2, [r4, #82]	; 0x52
    while(huart->TxXferCount > 0)
 80019a6:	f8b4 2052 	ldrh.w	r2, [r4, #82]	; 0x52
 80019aa:	b1e2      	cbz	r2, 80019e6 <HAL_UART_Transmit+0x8a>
    {
      huart->TxXferCount--;
 80019ac:	3a01      	subs	r2, #1
 80019ae:	f8a4 2052 	strh.w	r2, [r4, #82]	; 0x52
        if(UART_WaitOnFlagUntilTimeout(huart, UART_FLAG_TXE, RESET, Timeout) != HAL_OK)  
 80019b2:	4620      	mov	r0, r4
 80019b4:	2180      	movs	r1, #128	; 0x80
 80019b6:	2200      	movs	r2, #0
 80019b8:	4633      	mov	r3, r6
 80019ba:	f7ff ff8a 	bl	80018d2 <UART_WaitOnFlagUntilTimeout>
 80019be:	b108      	cbz	r0, 80019c4 <HAL_UART_Transmit+0x68>
        { 
          return HAL_TIMEOUT;
 80019c0:	2003      	movs	r0, #3
 80019c2:	bd70      	pop	{r4, r5, r6, pc}
        }
      if ((huart->Init.WordLength == UART_WORDLENGTH_9B) && (huart->Init.Parity == UART_PARITY_NONE))
 80019c4:	68a3      	ldr	r3, [r4, #8]
 80019c6:	f5b3 5f80 	cmp.w	r3, #4096	; 0x1000
 80019ca:	6823      	ldr	r3, [r4, #0]
 80019cc:	d107      	bne.n	80019de <HAL_UART_Transmit+0x82>
 80019ce:	6922      	ldr	r2, [r4, #16]
 80019d0:	b92a      	cbnz	r2, 80019de <HAL_UART_Transmit+0x82>
      {
        tmp = (uint16_t*) pData;
        huart->Instance->TDR = (*tmp & (uint16_t)0x01FF);
 80019d2:	f835 2b02 	ldrh.w	r2, [r5], #2
 80019d6:	f3c2 0208 	ubfx	r2, r2, #0, #9
 80019da:	629a      	str	r2, [r3, #40]	; 0x28
        pData += 2;
 80019dc:	e7e3      	b.n	80019a6 <HAL_UART_Transmit+0x4a>
      }
      else
      {
        huart->Instance->TDR = (*pData++ & (uint8_t)0xFF);
 80019de:	782a      	ldrb	r2, [r5, #0]
 80019e0:	629a      	str	r2, [r3, #40]	; 0x28
 80019e2:	3501      	adds	r5, #1
 80019e4:	e7df      	b.n	80019a6 <HAL_UART_Transmit+0x4a>
      }
    }
    if(UART_WaitOnFlagUntilTimeout(huart, UART_FLAG_TC, RESET, Timeout) != HAL_OK)  
 80019e6:	4620      	mov	r0, r4
 80019e8:	2140      	movs	r1, #64	; 0x40
 80019ea:	4633      	mov	r3, r6
 80019ec:	f7ff ff71 	bl	80018d2 <UART_WaitOnFlagUntilTimeout>
 80019f0:	2800      	cmp	r0, #0
 80019f2:	d1e5      	bne.n	80019c0 <HAL_UART_Transmit+0x64>
    { 
      return HAL_TIMEOUT;
    }
    /* Check if a non-blocking receive Process is ongoing or not */
    if(huart->State == HAL_UART_STATE_BUSY_TX_RX) 
 80019f4:	f894 3069 	ldrb.w	r3, [r4, #105]	; 0x69
 80019f8:	2b32      	cmp	r3, #50	; 0x32
    {
      huart->State = HAL_UART_STATE_BUSY_RX;
 80019fa:	bf0c      	ite	eq
 80019fc:	2322      	moveq	r3, #34	; 0x22
    }
    else
    {
      huart->State = HAL_UART_STATE_READY;
 80019fe:	2301      	movne	r3, #1
 8001a00:	f884 3069 	strb.w	r3, [r4, #105]	; 0x69
    }

    /* Process Unlocked */
    __HAL_UNLOCK(huart);
 8001a04:	2300      	movs	r3, #0
 8001a06:	f884 3068 	strb.w	r3, [r4, #104]	; 0x68

    return HAL_OK;
 8001a0a:	bd70      	pop	{r4, r5, r6, pc}

  if((huart->State == HAL_UART_STATE_READY) || (huart->State == HAL_UART_STATE_BUSY_RX))
  {
    if((pData == NULL ) || (Size == 0))
    {
      return  HAL_ERROR;
 8001a0c:	2001      	movs	r0, #1
 8001a0e:	bd70      	pop	{r4, r5, r6, pc}

    return HAL_OK;
  }
  else
  {
    return HAL_BUSY;
 8001a10:	2002      	movs	r0, #2
  }
}
 8001a12:	bd70      	pop	{r4, r5, r6, pc}

08001a14 <HAL_UART_TxCpltCallback>:
  * @brief Tx Transfer completed callbacks
  * @param huart: uart handle
  * @retval None
  */
 __weak void HAL_UART_TxCpltCallback(UART_HandleTypeDef *huart)
{
 8001a14:	4770      	bx	lr

08001a16 <HAL_UART_ErrorCallback>:
  * @brief UART error callbacks
  * @param huart: uart handle
  * @retval None
  */
 __weak void HAL_UART_ErrorCallback(UART_HandleTypeDef *huart)
{
 8001a16:	4770      	bx	lr

08001a18 <HAL_UART_IRQHandler>:
  * @retval None
  */
void HAL_UART_IRQHandler(UART_HandleTypeDef *huart)
{
  /* UART parity error interrupt occurred -------------------------------------*/
  if((__HAL_UART_GET_IT(huart, UART_IT_PE) != RESET) && (__HAL_UART_GET_IT_SOURCE(huart, UART_IT_PE) != RESET))
 8001a18:	6803      	ldr	r3, [r0, #0]
 8001a1a:	69da      	ldr	r2, [r3, #28]
 8001a1c:	07d1      	lsls	r1, r2, #31
  * @brief This function handles UART interrupt request.
  * @param huart: uart handle
  * @retval None
  */
void HAL_UART_IRQHandler(UART_HandleTypeDef *huart)
{
 8001a1e:	b510      	push	{r4, lr}
 8001a20:	4604      	mov	r4, r0
  /* UART parity error interrupt occurred -------------------------------------*/
  if((__HAL_UART_GET_IT(huart, UART_IT_PE) != RESET) && (__HAL_UART_GET_IT_SOURCE(huart, UART_IT_PE) != RESET))
 8001a22:	d509      	bpl.n	8001a38 <HAL_UART_IRQHandler+0x20>
 8001a24:	681a      	ldr	r2, [r3, #0]
 8001a26:	05d2      	lsls	r2, r2, #23
 8001a28:	d506      	bpl.n	8001a38 <HAL_UART_IRQHandler+0x20>
  { 
		__HAL_UART_CLEAR_PEFLAG(huart);
 8001a2a:	2201      	movs	r2, #1
 8001a2c:	621a      	str	r2, [r3, #32]

    huart->ErrorCode |= HAL_UART_ERROR_PE;
 8001a2e:	6ec1      	ldr	r1, [r0, #108]	; 0x6c
 8001a30:	4311      	orrs	r1, r2
 8001a32:	66c1      	str	r1, [r0, #108]	; 0x6c
    /* Set the UART state ready to be able to start again the process */
    huart->State = HAL_UART_STATE_READY;
 8001a34:	f880 2069 	strb.w	r2, [r0, #105]	; 0x69
  }
  
  /* UART frame error interrupt occurred --------------------------------------*/
  if((__HAL_UART_GET_IT(huart, UART_IT_FE) != RESET) && (__HAL_UART_GET_IT_SOURCE(huart, UART_IT_ERR) != RESET))
 8001a38:	69da      	ldr	r2, [r3, #28]
 8001a3a:	0790      	lsls	r0, r2, #30
 8001a3c:	d50b      	bpl.n	8001a56 <HAL_UART_IRQHandler+0x3e>
 8001a3e:	689a      	ldr	r2, [r3, #8]
 8001a40:	07d1      	lsls	r1, r2, #31
 8001a42:	d508      	bpl.n	8001a56 <HAL_UART_IRQHandler+0x3e>
  { 
    __HAL_UART_CLEAR_FEFLAG(huart);
 8001a44:	2202      	movs	r2, #2
 8001a46:	621a      	str	r2, [r3, #32]

    huart->ErrorCode |= HAL_UART_ERROR_FE;
 8001a48:	6ee2      	ldr	r2, [r4, #108]	; 0x6c
 8001a4a:	f042 0204 	orr.w	r2, r2, #4
 8001a4e:	66e2      	str	r2, [r4, #108]	; 0x6c
    /* Set the UART state ready to be able to start again the process */
    huart->State = HAL_UART_STATE_READY;
 8001a50:	2201      	movs	r2, #1
 8001a52:	f884 2069 	strb.w	r2, [r4, #105]	; 0x69
  }
  
  /* UART noise error interrupt occurred --------------------------------------*/
  if((__HAL_UART_GET_IT(huart, UART_IT_NE) != RESET) && (__HAL_UART_GET_IT_SOURCE(huart, UART_IT_ERR) != RESET))
 8001a56:	69da      	ldr	r2, [r3, #28]
 8001a58:	0752      	lsls	r2, r2, #29
 8001a5a:	d50b      	bpl.n	8001a74 <HAL_UART_IRQHandler+0x5c>
 8001a5c:	689a      	ldr	r2, [r3, #8]
 8001a5e:	07d0      	lsls	r0, r2, #31
 8001a60:	d508      	bpl.n	8001a74 <HAL_UART_IRQHandler+0x5c>
  { 
    __HAL_UART_CLEAR_NEFLAG(huart);
 8001a62:	2204      	movs	r2, #4
 8001a64:	621a      	str	r2, [r3, #32]

    huart->ErrorCode |= HAL_UART_ERROR_NE;
 8001a66:	6ee2      	ldr	r2, [r4, #108]	; 0x6c
 8001a68:	f042 0202 	orr.w	r2, r2, #2
 8001a6c:	66e2      	str	r2, [r4, #108]	; 0x6c
    /* Set the UART state ready to be able to start again the process */
    huart->State = HAL_UART_STATE_READY;
 8001a6e:	2201      	movs	r2, #1
 8001a70:	f884 2069 	strb.w	r2, [r4, #105]	; 0x69
  }
  
  /* UART Over-Run interrupt occurred -----------------------------------------*/
  if((__HAL_UART_GET_IT(huart, UART_IT_ORE) != RESET) && (__HAL_UART_GET_IT_SOURCE(huart, UART_IT_ERR) != RESET))
 8001a74:	69da      	ldr	r2, [r3, #28]
 8001a76:	0711      	lsls	r1, r2, #28
 8001a78:	d50a      	bpl.n	8001a90 <HAL_UART_IRQHandler+0x78>
 8001a7a:	689a      	ldr	r2, [r3, #8]
 8001a7c:	07d2      	lsls	r2, r2, #31
 8001a7e:	d507      	bpl.n	8001a90 <HAL_UART_IRQHandler+0x78>
  { 
    __HAL_UART_CLEAR_OREFLAG(huart);
 8001a80:	2208      	movs	r2, #8
 8001a82:	621a      	str	r2, [r3, #32]

    huart->ErrorCode |= HAL_UART_ERROR_ORE;
 8001a84:	6ee3      	ldr	r3, [r4, #108]	; 0x6c
 8001a86:	4313      	orrs	r3, r2
 8001a88:	66e3      	str	r3, [r4, #108]	; 0x6c
    /* Set the UART state ready to be able to start again the process */
    huart->State = HAL_UART_STATE_READY;
 8001a8a:	2301      	movs	r3, #1
 8001a8c:	f884 3069 	strb.w	r3, [r4, #105]	; 0x69
  }

   /* Call UART Error Call back function if need be --------------------------*/
  if(huart->ErrorCode != HAL_UART_ERROR_NONE)
 8001a90:	6ee3      	ldr	r3, [r4, #108]	; 0x6c
 8001a92:	b113      	cbz	r3, 8001a9a <HAL_UART_IRQHandler+0x82>
  {
    HAL_UART_ErrorCallback(huart);
 8001a94:	4620      	mov	r0, r4
 8001a96:	f7ff ffbe 	bl	8001a16 <HAL_UART_ErrorCallback>
  }

  /* UART in mode Receiver ---------------------------------------------------*/
  if((__HAL_UART_GET_IT(huart, UART_IT_RXNE) != RESET) && (__HAL_UART_GET_IT_SOURCE(huart, UART_IT_RXNE) != RESET))
 8001a9a:	6823      	ldr	r3, [r4, #0]
 8001a9c:	69da      	ldr	r2, [r3, #28]
 8001a9e:	0690      	lsls	r0, r2, #26
 8001aa0:	d543      	bpl.n	8001b2a <HAL_UART_IRQHandler+0x112>
 8001aa2:	681a      	ldr	r2, [r3, #0]
 8001aa4:	0691      	lsls	r1, r2, #26
 8001aa6:	d540      	bpl.n	8001b2a <HAL_UART_IRQHandler+0x112>
static HAL_StatusTypeDef UART_Receive_IT(UART_HandleTypeDef *huart)
{
  uint16_t* tmp;
  uint16_t uhMask = huart->Mask;

  if((huart->State == HAL_UART_STATE_BUSY_RX) || (huart->State == HAL_UART_STATE_BUSY_TX_RX))
 8001aa8:	f894 2069 	ldrb.w	r2, [r4, #105]	; 0x69
  * @retval HAL status
  */
static HAL_StatusTypeDef UART_Receive_IT(UART_HandleTypeDef *huart)
{
  uint16_t* tmp;
  uint16_t uhMask = huart->Mask;
 8001aac:	f8b4 105c 	ldrh.w	r1, [r4, #92]	; 0x5c

  if((huart->State == HAL_UART_STATE_BUSY_RX) || (huart->State == HAL_UART_STATE_BUSY_TX_RX))
 8001ab0:	2a22      	cmp	r2, #34	; 0x22
 8001ab2:	d003      	beq.n	8001abc <HAL_UART_IRQHandler+0xa4>
 8001ab4:	f894 2069 	ldrb.w	r2, [r4, #105]	; 0x69
 8001ab8:	2a32      	cmp	r2, #50	; 0x32
 8001aba:	d131      	bne.n	8001b20 <HAL_UART_IRQHandler+0x108>
  {
    
    if ((huart->Init.WordLength == UART_WORDLENGTH_9B) && (huart->Init.Parity == UART_PARITY_NONE))
 8001abc:	68a2      	ldr	r2, [r4, #8]
 8001abe:	f5b2 5f80 	cmp.w	r2, #4096	; 0x1000
 8001ac2:	6d62      	ldr	r2, [r4, #84]	; 0x54
 8001ac4:	d107      	bne.n	8001ad6 <HAL_UART_IRQHandler+0xbe>
 8001ac6:	6920      	ldr	r0, [r4, #16]
 8001ac8:	b928      	cbnz	r0, 8001ad6 <HAL_UART_IRQHandler+0xbe>
    {
      tmp = (uint16_t*) huart->pRxBuffPtr ;
      *tmp = (uint16_t)(huart->Instance->RDR & uhMask);
 8001aca:	6a5b      	ldr	r3, [r3, #36]	; 0x24
 8001acc:	4019      	ands	r1, r3
 8001ace:	f822 1b02 	strh.w	r1, [r2], #2
      huart->pRxBuffPtr +=2;
 8001ad2:	6562      	str	r2, [r4, #84]	; 0x54
 8001ad4:	e004      	b.n	8001ae0 <HAL_UART_IRQHandler+0xc8>
    }
    else
    {
      *huart->pRxBuffPtr++ = (uint8_t)(huart->Instance->RDR & (uint8_t)uhMask); 
 8001ad6:	6a5b      	ldr	r3, [r3, #36]	; 0x24
 8001ad8:	1c50      	adds	r0, r2, #1
 8001ada:	4019      	ands	r1, r3
 8001adc:	6560      	str	r0, [r4, #84]	; 0x54
 8001ade:	7011      	strb	r1, [r2, #0]
    }

    if(--huart->RxXferCount == 0)
 8001ae0:	f8b4 305a 	ldrh.w	r3, [r4, #90]	; 0x5a
 8001ae4:	3b01      	subs	r3, #1
 8001ae6:	b29b      	uxth	r3, r3
 8001ae8:	f8a4 305a 	strh.w	r3, [r4, #90]	; 0x5a
 8001aec:	b9c3      	cbnz	r3, 8001b20 <HAL_UART_IRQHandler+0x108>
    {
      __HAL_UART_DISABLE_IT(huart, UART_IT_RXNE);
 8001aee:	6823      	ldr	r3, [r4, #0]
 8001af0:	681a      	ldr	r2, [r3, #0]
 8001af2:	f022 0220 	bic.w	r2, r2, #32
 8001af6:	601a      	str	r2, [r3, #0]

      /* Check if a transmit Process is ongoing or not */
      if(huart->State == HAL_UART_STATE_BUSY_TX_RX) 
 8001af8:	f894 2069 	ldrb.w	r2, [r4, #105]	; 0x69
 8001afc:	2a32      	cmp	r2, #50	; 0x32
 8001afe:	d101      	bne.n	8001b04 <HAL_UART_IRQHandler+0xec>
      {
        huart->State = HAL_UART_STATE_BUSY_TX;
 8001b00:	2312      	movs	r3, #18
 8001b02:	e008      	b.n	8001b16 <HAL_UART_IRQHandler+0xfe>
      }
      else
      {
        /* Disable the UART Parity Error Interrupt */
        __HAL_UART_DISABLE_IT(huart, UART_IT_PE);
 8001b04:	681a      	ldr	r2, [r3, #0]
 8001b06:	f422 7280 	bic.w	r2, r2, #256	; 0x100
 8001b0a:	601a      	str	r2, [r3, #0]

        /* Disable the UART Error Interrupt: (Frame error, noise error, overrun error) */
        __HAL_UART_DISABLE_IT(huart, UART_IT_ERR);
 8001b0c:	689a      	ldr	r2, [r3, #8]
 8001b0e:	f022 0201 	bic.w	r2, r2, #1
 8001b12:	609a      	str	r2, [r3, #8]

        huart->State = HAL_UART_STATE_READY;
 8001b14:	2301      	movs	r3, #1
 8001b16:	f884 3069 	strb.w	r3, [r4, #105]	; 0x69
      }
      
      HAL_UART_RxCpltCallback(huart);
 8001b1a:	4620      	mov	r0, r4
 8001b1c:	f7ff fc4c 	bl	80013b8 <HAL_UART_RxCpltCallback>
  /* UART in mode Receiver ---------------------------------------------------*/
  if((__HAL_UART_GET_IT(huart, UART_IT_RXNE) != RESET) && (__HAL_UART_GET_IT_SOURCE(huart, UART_IT_RXNE) != RESET))
  { 
    UART_Receive_IT(huart);
    /* Clear RXNE interrupt flag */
    __HAL_UART_SEND_REQ(huart, UART_RXDATA_FLUSH_REQUEST);
 8001b20:	6823      	ldr	r3, [r4, #0]
 8001b22:	699a      	ldr	r2, [r3, #24]
 8001b24:	f042 0208 	orr.w	r2, r2, #8
 8001b28:	619a      	str	r2, [r3, #24]
  }
  

  /* UART in mode Transmitter ------------------------------------------------*/
 if((__HAL_UART_GET_IT(huart, UART_IT_TXE) != RESET) &&(__HAL_UART_GET_IT_SOURCE(huart, UART_IT_TXE) != RESET))
 8001b2a:	6823      	ldr	r3, [r4, #0]
 8001b2c:	69da      	ldr	r2, [r3, #28]
 8001b2e:	0612      	lsls	r2, r2, #24
 8001b30:	d53a      	bpl.n	8001ba8 <HAL_UART_IRQHandler+0x190>
 8001b32:	681a      	ldr	r2, [r3, #0]
 8001b34:	0610      	lsls	r0, r2, #24
 8001b36:	d537      	bpl.n	8001ba8 <HAL_UART_IRQHandler+0x190>
  */
static HAL_StatusTypeDef UART_Transmit_IT(UART_HandleTypeDef *huart)
{
  uint16_t* tmp;

  if ((huart->State == HAL_UART_STATE_BUSY_TX) || (huart->State == HAL_UART_STATE_BUSY_TX_RX))
 8001b38:	f894 2069 	ldrb.w	r2, [r4, #105]	; 0x69
 8001b3c:	2a12      	cmp	r2, #18
 8001b3e:	d003      	beq.n	8001b48 <HAL_UART_IRQHandler+0x130>
 8001b40:	f894 2069 	ldrb.w	r2, [r4, #105]	; 0x69
 8001b44:	2a32      	cmp	r2, #50	; 0x32
 8001b46:	d12f      	bne.n	8001ba8 <HAL_UART_IRQHandler+0x190>
  {

    if(huart->TxXferCount == 0)
 8001b48:	f8b4 1052 	ldrh.w	r1, [r4, #82]	; 0x52
 8001b4c:	b9b9      	cbnz	r1, 8001b7e <HAL_UART_IRQHandler+0x166>
    {
      /* Disable the UART Transmit Data Register Empty Interrupt */
      __HAL_UART_DISABLE_IT(huart, UART_IT_TXE);
 8001b4e:	681a      	ldr	r2, [r3, #0]
 8001b50:	f022 0280 	bic.w	r2, r2, #128	; 0x80
 8001b54:	601a      	str	r2, [r3, #0]

      /* Check if a receive Process is ongoing or not */
      if(huart->State == HAL_UART_STATE_BUSY_TX_RX) 
 8001b56:	f894 3069 	ldrb.w	r3, [r4, #105]	; 0x69
 8001b5a:	2b32      	cmp	r3, #50	; 0x32
      {
        huart->State = HAL_UART_STATE_BUSY_RX;
 8001b5c:	bf0c      	ite	eq
 8001b5e:	2322      	moveq	r3, #34	; 0x22
      }
      else
      {      
        huart->State = HAL_UART_STATE_READY;
 8001b60:	2301      	movne	r3, #1
 8001b62:	f884 3069 	strb.w	r3, [r4, #105]	; 0x69
      }
      
      /* Wait on TC flag to be able to start a second transfer */
      if(UART_WaitOnFlagUntilTimeout(huart, UART_FLAG_TC, RESET, HAL_UART_TIMEOUT_VALUE) != HAL_OK)
 8001b66:	4620      	mov	r0, r4
 8001b68:	2140      	movs	r1, #64	; 0x40
 8001b6a:	2200      	movs	r2, #0
 8001b6c:	f06f 437e 	mvn.w	r3, #4261412864	; 0xfe000000
 8001b70:	f7ff feaf 	bl	80018d2 <UART_WaitOnFlagUntilTimeout>
 8001b74:	b9c0      	cbnz	r0, 8001ba8 <HAL_UART_IRQHandler+0x190>
      { 
        return HAL_TIMEOUT;
      }

      HAL_UART_TxCpltCallback(huart);
 8001b76:	4620      	mov	r0, r4
 8001b78:	f7ff ff4c 	bl	8001a14 <HAL_UART_TxCpltCallback>
 8001b7c:	e014      	b.n	8001ba8 <HAL_UART_IRQHandler+0x190>

      return HAL_OK;
    }
    else
    {
      if ((huart->Init.WordLength == UART_WORDLENGTH_9B) && (huart->Init.Parity == UART_PARITY_NONE))
 8001b7e:	68a2      	ldr	r2, [r4, #8]
 8001b80:	f5b2 5f80 	cmp.w	r2, #4096	; 0x1000
 8001b84:	6ce2      	ldr	r2, [r4, #76]	; 0x4c
 8001b86:	d108      	bne.n	8001b9a <HAL_UART_IRQHandler+0x182>
 8001b88:	6920      	ldr	r0, [r4, #16]
 8001b8a:	b930      	cbnz	r0, 8001b9a <HAL_UART_IRQHandler+0x182>
      {
        tmp = (uint16_t*) huart->pTxBuffPtr;
        huart->Instance->TDR = (*tmp & (uint16_t)0x01FF);
 8001b8c:	f832 0b02 	ldrh.w	r0, [r2], #2
 8001b90:	f3c0 0008 	ubfx	r0, r0, #0, #9
 8001b94:	6298      	str	r0, [r3, #40]	; 0x28
        huart->pTxBuffPtr += 2;
 8001b96:	64e2      	str	r2, [r4, #76]	; 0x4c
 8001b98:	e003      	b.n	8001ba2 <HAL_UART_IRQHandler+0x18a>
      } 
      else
      {
        huart->Instance->TDR = (uint8_t)(*huart->pTxBuffPtr++ & (uint8_t)0xFF);
 8001b9a:	1c50      	adds	r0, r2, #1
 8001b9c:	64e0      	str	r0, [r4, #76]	; 0x4c
 8001b9e:	7812      	ldrb	r2, [r2, #0]
 8001ba0:	629a      	str	r2, [r3, #40]	; 0x28
      }

      huart->TxXferCount--;
 8001ba2:	3901      	subs	r1, #1
 8001ba4:	f8a4 1052 	strh.w	r1, [r4, #82]	; 0x52
  {
    UART_Transmit_IT(huart);
  }

  /* UART in mode Transmitter (transmission end) -----------------------------*/
 if((__HAL_UART_GET_IT(huart, UART_IT_TC) != RESET) &&(__HAL_UART_GET_IT_SOURCE(huart, UART_IT_TC) != RESET))
 8001ba8:	6823      	ldr	r3, [r4, #0]
 8001baa:	69da      	ldr	r2, [r3, #28]
 8001bac:	0651      	lsls	r1, r2, #25
 8001bae:	d511      	bpl.n	8001bd4 <HAL_UART_IRQHandler+0x1bc>
 8001bb0:	681a      	ldr	r2, [r3, #0]
 8001bb2:	0652      	lsls	r2, r2, #25
 8001bb4:	d50e      	bpl.n	8001bd4 <HAL_UART_IRQHandler+0x1bc>
  * @retval HAL status
  */
static HAL_StatusTypeDef UART_EndTransmit_IT(UART_HandleTypeDef *huart)
{
  /* Disable the UART Transmit Complete Interrupt */
  __HAL_UART_DISABLE_IT(huart, UART_IT_TC);
 8001bb6:	681a      	ldr	r2, [r3, #0]
 8001bb8:	f022 0240 	bic.w	r2, r2, #64	; 0x40
 8001bbc:	601a      	str	r2, [r3, #0]

  /* Check if a receive process is ongoing or not */
  if(huart->State == HAL_UART_STATE_BUSY_TX_RX)
 8001bbe:	f894 3069 	ldrb.w	r3, [r4, #105]	; 0x69
 8001bc2:	2b32      	cmp	r3, #50	; 0x32
  {
    huart->State = HAL_UART_STATE_BUSY_RX;
 8001bc4:	bf0c      	ite	eq
 8001bc6:	2322      	moveq	r3, #34	; 0x22
  }
  else
  {
    huart->State = HAL_UART_STATE_READY;
 8001bc8:	2301      	movne	r3, #1
 8001bca:	f884 3069 	strb.w	r3, [r4, #105]	; 0x69
  }

  HAL_UART_TxCpltCallback(huart);
 8001bce:	4620      	mov	r0, r4
 8001bd0:	f7ff ff20 	bl	8001a14 <HAL_UART_TxCpltCallback>
 8001bd4:	bd10      	pop	{r4, pc}
	...

08001bd8 <UART_SetConfig>:
  * @brief Configure the UART peripheral 
  * @param huart: uart handle
  * @retval None
  */
HAL_StatusTypeDef UART_SetConfig(UART_HandleTypeDef *huart)
{
 8001bd8:	b538      	push	{r3, r4, r5, lr}
 8001bda:	4604      	mov	r4, r0
   *  set the M bits according to huart->Init.WordLength value 
   *  set PCE and PS bits according to huart->Init.Parity value
   *  set TE and RE bits according to huart->Init.Mode value
   *  set OVER8 bit according to huart->Init.OverSampling value */
  tmpreg = (uint32_t)huart->Init.WordLength | huart->Init.Parity | huart->Init.Mode | huart->Init.OverSampling ;
  MODIFY_REG(huart->Instance->CR1, UART_CR1_FIELDS, tmpreg);
 8001bdc:	6805      	ldr	r5, [r0, #0]
   *  the UART Word Length, Parity, Mode and oversampling: 
   *  set the M bits according to huart->Init.WordLength value 
   *  set PCE and PS bits according to huart->Init.Parity value
   *  set TE and RE bits according to huart->Init.Mode value
   *  set OVER8 bit according to huart->Init.OverSampling value */
  tmpreg = (uint32_t)huart->Init.WordLength | huart->Init.Parity | huart->Init.Mode | huart->Init.OverSampling ;
 8001bde:	68a2      	ldr	r2, [r4, #8]
 8001be0:	6921      	ldr	r1, [r4, #16]
 8001be2:	69c3      	ldr	r3, [r0, #28]
  MODIFY_REG(huart->Instance->CR1, UART_CR1_FIELDS, tmpreg);
 8001be4:	6828      	ldr	r0, [r5, #0]
   *  the UART Word Length, Parity, Mode and oversampling: 
   *  set the M bits according to huart->Init.WordLength value 
   *  set PCE and PS bits according to huart->Init.Parity value
   *  set TE and RE bits according to huart->Init.Mode value
   *  set OVER8 bit according to huart->Init.OverSampling value */
  tmpreg = (uint32_t)huart->Init.WordLength | huart->Init.Parity | huart->Init.Mode | huart->Init.OverSampling ;
 8001be6:	4311      	orrs	r1, r2
 8001be8:	6962      	ldr	r2, [r4, #20]
 8001bea:	430a      	orrs	r2, r1
 8001bec:	ea42 0103 	orr.w	r1, r2, r3
  MODIFY_REG(huart->Instance->CR1, UART_CR1_FIELDS, tmpreg);
 8001bf0:	4a81      	ldr	r2, [pc, #516]	; (8001df8 <UART_SetConfig+0x220>)
 8001bf2:	4002      	ands	r2, r0
 8001bf4:	430a      	orrs	r2, r1
 8001bf6:	602a      	str	r2, [r5, #0]

  /*-------------------------- USART CR2 Configuration -----------------------*/
  /* Configure the UART Stop Bits: Set STOP[13:12] bits according 
   * to huart->Init.StopBits value */
  MODIFY_REG(huart->Instance->CR2, USART_CR2_STOP, huart->Init.StopBits);
 8001bf8:	6869      	ldr	r1, [r5, #4]
 8001bfa:	68e2      	ldr	r2, [r4, #12]
 8001bfc:	f421 5140 	bic.w	r1, r1, #12288	; 0x3000
 8001c00:	430a      	orrs	r2, r1
 8001c02:	606a      	str	r2, [r5, #4]
   * - UART HardWare Flow Control: set CTSE and RTSE bits according 
   *   to huart->Init.HwFlowCtl value 
   * - one-bit sampling method versus three samples' majority rule according
   *   to huart->Init.OneBitSampling */
  tmpreg = (uint32_t)huart->Init.HwFlowCtl | huart->Init.OneBitSampling ;
  MODIFY_REG(huart->Instance->CR3, (USART_CR3_RTSE | USART_CR3_CTSE | USART_CR3_ONEBIT), tmpreg);
 8001c04:	68a8      	ldr	r0, [r5, #8]
  /* Configure 
   * - UART HardWare Flow Control: set CTSE and RTSE bits according 
   *   to huart->Init.HwFlowCtl value 
   * - one-bit sampling method versus three samples' majority rule according
   *   to huart->Init.OneBitSampling */
  tmpreg = (uint32_t)huart->Init.HwFlowCtl | huart->Init.OneBitSampling ;
 8001c06:	6a21      	ldr	r1, [r4, #32]
 8001c08:	69a2      	ldr	r2, [r4, #24]
  MODIFY_REG(huart->Instance->CR3, (USART_CR3_RTSE | USART_CR3_CTSE | USART_CR3_ONEBIT), tmpreg);
 8001c0a:	f420 6030 	bic.w	r0, r0, #2816	; 0xb00
  /* Configure 
   * - UART HardWare Flow Control: set CTSE and RTSE bits according 
   *   to huart->Init.HwFlowCtl value 
   * - one-bit sampling method versus three samples' majority rule according
   *   to huart->Init.OneBitSampling */
  tmpreg = (uint32_t)huart->Init.HwFlowCtl | huart->Init.OneBitSampling ;
 8001c0e:	430a      	orrs	r2, r1
  MODIFY_REG(huart->Instance->CR3, (USART_CR3_RTSE | USART_CR3_CTSE | USART_CR3_ONEBIT), tmpreg);
 8001c10:	4302      	orrs	r2, r0
 8001c12:	60aa      	str	r2, [r5, #8]
  
  /*-------------------------- USART BRR Configuration -----------------------*/
  UART_GETCLOCKSOURCE(huart, clocksource);
 8001c14:	4a79      	ldr	r2, [pc, #484]	; (8001dfc <UART_SetConfig+0x224>)
 8001c16:	4295      	cmp	r5, r2
 8001c18:	d107      	bne.n	8001c2a <UART_SetConfig+0x52>
 8001c1a:	f502 3294 	add.w	r2, r2, #75776	; 0x12800
 8001c1e:	4978      	ldr	r1, [pc, #480]	; (8001e00 <UART_SetConfig+0x228>)
 8001c20:	f8d2 2090 	ldr.w	r2, [r2, #144]	; 0x90
 8001c24:	f002 0203 	and.w	r2, r2, #3
 8001c28:	e009      	b.n	8001c3e <UART_SetConfig+0x66>
 8001c2a:	4a76      	ldr	r2, [pc, #472]	; (8001e04 <UART_SetConfig+0x22c>)
 8001c2c:	4295      	cmp	r5, r2
 8001c2e:	d10c      	bne.n	8001c4a <UART_SetConfig+0x72>
 8001c30:	f502 32fa 	add.w	r2, r2, #128000	; 0x1f400
 8001c34:	4974      	ldr	r1, [pc, #464]	; (8001e08 <UART_SetConfig+0x230>)
 8001c36:	f8d2 2090 	ldr.w	r2, [r2, #144]	; 0x90
 8001c3a:	f002 020c 	and.w	r2, r2, #12

  /* Check UART Over Sampling to set Baud Rate Register */
  if (huart->Init.OverSampling == UART_OVERSAMPLING_8)
 8001c3e:	f5b3 4f00 	cmp.w	r3, #32768	; 0x8000
 8001c42:	5c8a      	ldrb	r2, [r1, r2]
 8001c44:	f040 80b1 	bne.w	8001daa <UART_SetConfig+0x1d2>
 8001c48:	e072      	b.n	8001d30 <UART_SetConfig+0x158>
   *   to huart->Init.OneBitSampling */
  tmpreg = (uint32_t)huart->Init.HwFlowCtl | huart->Init.OneBitSampling ;
  MODIFY_REG(huart->Instance->CR3, (USART_CR3_RTSE | USART_CR3_CTSE | USART_CR3_ONEBIT), tmpreg);
  
  /*-------------------------- USART BRR Configuration -----------------------*/
  UART_GETCLOCKSOURCE(huart, clocksource);
 8001c4a:	4a70      	ldr	r2, [pc, #448]	; (8001e0c <UART_SetConfig+0x234>)
 8001c4c:	4295      	cmp	r5, r2
 8001c4e:	d10d      	bne.n	8001c6c <UART_SetConfig+0x94>
 8001c50:	f502 32f8 	add.w	r2, r2, #126976	; 0x1f000
 8001c54:	f8d2 2090 	ldr.w	r2, [r2, #144]	; 0x90
 8001c58:	f002 0230 	and.w	r2, r2, #48	; 0x30
 8001c5c:	2a10      	cmp	r2, #16
 8001c5e:	f000 8082 	beq.w	8001d66 <UART_SetConfig+0x18e>
 8001c62:	d95d      	bls.n	8001d20 <UART_SetConfig+0x148>
 8001c64:	2a20      	cmp	r2, #32
 8001c66:	d078      	beq.n	8001d5a <UART_SetConfig+0x182>
 8001c68:	2a30      	cmp	r2, #48	; 0x30
 8001c6a:	e00e      	b.n	8001c8a <UART_SetConfig+0xb2>
 8001c6c:	4a68      	ldr	r2, [pc, #416]	; (8001e10 <UART_SetConfig+0x238>)
 8001c6e:	4295      	cmp	r5, r2
 8001c70:	d10d      	bne.n	8001c8e <UART_SetConfig+0xb6>
 8001c72:	f502 32f6 	add.w	r2, r2, #125952	; 0x1ec00
 8001c76:	f8d2 2090 	ldr.w	r2, [r2, #144]	; 0x90
 8001c7a:	f002 02c0 	and.w	r2, r2, #192	; 0xc0
 8001c7e:	2a40      	cmp	r2, #64	; 0x40
 8001c80:	d071      	beq.n	8001d66 <UART_SetConfig+0x18e>
 8001c82:	d94d      	bls.n	8001d20 <UART_SetConfig+0x148>
 8001c84:	2a80      	cmp	r2, #128	; 0x80
 8001c86:	d068      	beq.n	8001d5a <UART_SetConfig+0x182>
 8001c88:	2ac0      	cmp	r2, #192	; 0xc0
 8001c8a:	d076      	beq.n	8001d7a <UART_SetConfig+0x1a2>
 8001c8c:	e080      	b.n	8001d90 <UART_SetConfig+0x1b8>
 8001c8e:	4a61      	ldr	r2, [pc, #388]	; (8001e14 <UART_SetConfig+0x23c>)
 8001c90:	4295      	cmp	r5, r2
 8001c92:	d10f      	bne.n	8001cb4 <UART_SetConfig+0xdc>
 8001c94:	f502 32f4 	add.w	r2, r2, #124928	; 0x1e800
 8001c98:	f8d2 2090 	ldr.w	r2, [r2, #144]	; 0x90
 8001c9c:	f402 7240 	and.w	r2, r2, #768	; 0x300
 8001ca0:	f5b2 7f80 	cmp.w	r2, #256	; 0x100
 8001ca4:	d05f      	beq.n	8001d66 <UART_SetConfig+0x18e>
 8001ca6:	d93b      	bls.n	8001d20 <UART_SetConfig+0x148>
 8001ca8:	f5b2 7f00 	cmp.w	r2, #512	; 0x200
 8001cac:	d055      	beq.n	8001d5a <UART_SetConfig+0x182>
 8001cae:	f5b2 7f40 	cmp.w	r2, #768	; 0x300
 8001cb2:	e7ea      	b.n	8001c8a <UART_SetConfig+0xb2>
 8001cb4:	4a58      	ldr	r2, [pc, #352]	; (8001e18 <UART_SetConfig+0x240>)
 8001cb6:	4295      	cmp	r5, r2
 8001cb8:	d112      	bne.n	8001ce0 <UART_SetConfig+0x108>
 8001cba:	f502 3292 	add.w	r2, r2, #74752	; 0x12400
 8001cbe:	f8d2 2090 	ldr.w	r2, [r2, #144]	; 0x90
 8001cc2:	f402 6240 	and.w	r2, r2, #3072	; 0xc00
 8001cc6:	f5b2 6f80 	cmp.w	r2, #1024	; 0x400
 8001cca:	d04c      	beq.n	8001d66 <UART_SetConfig+0x18e>
 8001ccc:	d802      	bhi.n	8001cd4 <UART_SetConfig+0xfc>
 8001cce:	2a00      	cmp	r2, #0
 8001cd0:	d03d      	beq.n	8001d4e <UART_SetConfig+0x176>
 8001cd2:	e05d      	b.n	8001d90 <UART_SetConfig+0x1b8>
 8001cd4:	f5b2 6f00 	cmp.w	r2, #2048	; 0x800
 8001cd8:	d03f      	beq.n	8001d5a <UART_SetConfig+0x182>
 8001cda:	f5b2 6f40 	cmp.w	r2, #3072	; 0xc00
 8001cde:	e7d4      	b.n	8001c8a <UART_SetConfig+0xb2>
 8001ce0:	4a4e      	ldr	r2, [pc, #312]	; (8001e1c <UART_SetConfig+0x244>)
 8001ce2:	4295      	cmp	r5, r2
 8001ce4:	d10f      	bne.n	8001d06 <UART_SetConfig+0x12e>
 8001ce6:	f502 32e0 	add.w	r2, r2, #114688	; 0x1c000
 8001cea:	f8d2 2090 	ldr.w	r2, [r2, #144]	; 0x90
 8001cee:	f402 5240 	and.w	r2, r2, #12288	; 0x3000
 8001cf2:	f5b2 5f80 	cmp.w	r2, #4096	; 0x1000
 8001cf6:	d036      	beq.n	8001d66 <UART_SetConfig+0x18e>
 8001cf8:	d912      	bls.n	8001d20 <UART_SetConfig+0x148>
 8001cfa:	f5b2 5f00 	cmp.w	r2, #8192	; 0x2000
 8001cfe:	d02c      	beq.n	8001d5a <UART_SetConfig+0x182>
 8001d00:	f5b2 5f40 	cmp.w	r2, #12288	; 0x3000
 8001d04:	e7c1      	b.n	8001c8a <UART_SetConfig+0xb2>
 8001d06:	4a46      	ldr	r2, [pc, #280]	; (8001e20 <UART_SetConfig+0x248>)
 8001d08:	4295      	cmp	r5, r2
 8001d0a:	d141      	bne.n	8001d90 <UART_SetConfig+0x1b8>
 8001d0c:	f502 32de 	add.w	r2, r2, #113664	; 0x1bc00
 8001d10:	f8d2 2090 	ldr.w	r2, [r2, #144]	; 0x90
 8001d14:	f402 4240 	and.w	r2, r2, #49152	; 0xc000
 8001d18:	f5b2 4f80 	cmp.w	r2, #16384	; 0x4000
 8001d1c:	d023      	beq.n	8001d66 <UART_SetConfig+0x18e>
 8001d1e:	d801      	bhi.n	8001d24 <UART_SetConfig+0x14c>
 8001d20:	b17a      	cbz	r2, 8001d42 <UART_SetConfig+0x16a>
 8001d22:	e035      	b.n	8001d90 <UART_SetConfig+0x1b8>
 8001d24:	f5b2 4f00 	cmp.w	r2, #32768	; 0x8000
 8001d28:	d017      	beq.n	8001d5a <UART_SetConfig+0x182>
 8001d2a:	f5b2 4f40 	cmp.w	r2, #49152	; 0xc000
 8001d2e:	e7ac      	b.n	8001c8a <UART_SetConfig+0xb2>

  /* Check UART Over Sampling to set Baud Rate Register */
  if (huart->Init.OverSampling == UART_OVERSAMPLING_8)
  { 
    switch (clocksource)
 8001d30:	2a08      	cmp	r2, #8
 8001d32:	d830      	bhi.n	8001d96 <UART_SetConfig+0x1be>
 8001d34:	e8df f002 	tbb	[pc, r2]
 8001d38:	2f140e08 	.word	0x2f140e08
 8001d3c:	2f2f2f1a 	.word	0x2f2f2f1a
 8001d40:	24          	.byte	0x24
 8001d41:	00          	.byte	0x00
  
  /*-------------------------- USART BRR Configuration -----------------------*/
  UART_GETCLOCKSOURCE(huart, clocksource);

  /* Check UART Over Sampling to set Baud Rate Register */
  if (huart->Init.OverSampling == UART_OVERSAMPLING_8)
 8001d42:	f5b3 4f00 	cmp.w	r3, #32768	; 0x8000
 8001d46:	d139      	bne.n	8001dbc <UART_SetConfig+0x1e4>
  { 
    switch (clocksource)
    {
    case UART_CLOCKSOURCE_PCLK1:
        usartdiv = (uint16_t)(UART_DIV_SAMPLING8(HAL_RCC_GetPCLK1Freq(), huart->Init.BaudRate));
 8001d48:	f001 fa00 	bl	800314c <HAL_RCC_GetPCLK1Freq>
 8001d4c:	e010      	b.n	8001d70 <UART_SetConfig+0x198>
  
  /*-------------------------- USART BRR Configuration -----------------------*/
  UART_GETCLOCKSOURCE(huart, clocksource);

  /* Check UART Over Sampling to set Baud Rate Register */
  if (huart->Init.OverSampling == UART_OVERSAMPLING_8)
 8001d4e:	f5b3 4f00 	cmp.w	r3, #32768	; 0x8000
 8001d52:	d136      	bne.n	8001dc2 <UART_SetConfig+0x1ea>
    {
    case UART_CLOCKSOURCE_PCLK1:
        usartdiv = (uint16_t)(UART_DIV_SAMPLING8(HAL_RCC_GetPCLK1Freq(), huart->Init.BaudRate));
      break;
    case UART_CLOCKSOURCE_PCLK2:
        usartdiv = (uint16_t)(UART_DIV_SAMPLING8(HAL_RCC_GetPCLK2Freq(), huart->Init.BaudRate));
 8001d54:	f001 fa10 	bl	8003178 <HAL_RCC_GetPCLK2Freq>
 8001d58:	e00a      	b.n	8001d70 <UART_SetConfig+0x198>
  
  /*-------------------------- USART BRR Configuration -----------------------*/
  UART_GETCLOCKSOURCE(huart, clocksource);

  /* Check UART Over Sampling to set Baud Rate Register */
  if (huart->Init.OverSampling == UART_OVERSAMPLING_8)
 8001d5a:	f5b3 4f00 	cmp.w	r3, #32768	; 0x8000
 8001d5e:	d133      	bne.n	8001dc8 <UART_SetConfig+0x1f0>
      break;
    case UART_CLOCKSOURCE_PCLK2:
        usartdiv = (uint16_t)(UART_DIV_SAMPLING8(HAL_RCC_GetPCLK2Freq(), huart->Init.BaudRate));
      break;
    case UART_CLOCKSOURCE_HSI:
        usartdiv = (uint16_t)(UART_DIV_SAMPLING8(HSI_VALUE, huart->Init.BaudRate)); 
 8001d60:	6863      	ldr	r3, [r4, #4]
 8001d62:	4a30      	ldr	r2, [pc, #192]	; (8001e24 <UART_SetConfig+0x24c>)
 8001d64:	e00f      	b.n	8001d86 <UART_SetConfig+0x1ae>
  
  /*-------------------------- USART BRR Configuration -----------------------*/
  UART_GETCLOCKSOURCE(huart, clocksource);

  /* Check UART Over Sampling to set Baud Rate Register */
  if (huart->Init.OverSampling == UART_OVERSAMPLING_8)
 8001d66:	f5b3 4f00 	cmp.w	r3, #32768	; 0x8000
 8001d6a:	d133      	bne.n	8001dd4 <UART_SetConfig+0x1fc>
      break;
    case UART_CLOCKSOURCE_HSI:
        usartdiv = (uint16_t)(UART_DIV_SAMPLING8(HSI_VALUE, huart->Init.BaudRate)); 
      break;
    case UART_CLOCKSOURCE_SYSCLK:
        usartdiv = (uint16_t)(UART_DIV_SAMPLING8(HAL_RCC_GetSysClockFreq(), huart->Init.BaudRate));
 8001d6c:	f001 f98e 	bl	800308c <HAL_RCC_GetSysClockFreq>
 8001d70:	6863      	ldr	r3, [r4, #4]
 8001d72:	0040      	lsls	r0, r0, #1
 8001d74:	fbb0 f3f3 	udiv	r3, r0, r3
 8001d78:	e007      	b.n	8001d8a <UART_SetConfig+0x1b2>
  
  /*-------------------------- USART BRR Configuration -----------------------*/
  UART_GETCLOCKSOURCE(huart, clocksource);

  /* Check UART Over Sampling to set Baud Rate Register */
  if (huart->Init.OverSampling == UART_OVERSAMPLING_8)
 8001d7a:	f5b3 4f00 	cmp.w	r3, #32768	; 0x8000
 8001d7e:	d130      	bne.n	8001de2 <UART_SetConfig+0x20a>
      break;
    case UART_CLOCKSOURCE_SYSCLK:
        usartdiv = (uint16_t)(UART_DIV_SAMPLING8(HAL_RCC_GetSysClockFreq(), huart->Init.BaudRate));
      break;
    case UART_CLOCKSOURCE_LSE:
        usartdiv = (uint16_t)(UART_DIV_SAMPLING8(LSE_VALUE, huart->Init.BaudRate)); 
 8001d80:	6863      	ldr	r3, [r4, #4]
 8001d82:	f44f 3280 	mov.w	r2, #65536	; 0x10000
 8001d86:	fbb2 f3f3 	udiv	r3, r2, r3
 8001d8a:	b29b      	uxth	r3, r3
{
  uint32_t tmpreg                     = 0x00000000;
  UART_ClockSourceTypeDef clocksource = UART_CLOCKSOURCE_UNDEFINED;
  uint16_t brrtemp                    = 0x0000;
  uint16_t usartdiv                   = 0x0000;
  HAL_StatusTypeDef ret               = HAL_OK;  
 8001d8c:	2000      	movs	r0, #0
    case UART_CLOCKSOURCE_SYSCLK:
        usartdiv = (uint16_t)(UART_DIV_SAMPLING8(HAL_RCC_GetSysClockFreq(), huart->Init.BaudRate));
      break;
    case UART_CLOCKSOURCE_LSE:
        usartdiv = (uint16_t)(UART_DIV_SAMPLING8(LSE_VALUE, huart->Init.BaudRate)); 
      break;
 8001d8e:	e004      	b.n	8001d9a <UART_SetConfig+0x1c2>
  
  /*-------------------------- USART BRR Configuration -----------------------*/
  UART_GETCLOCKSOURCE(huart, clocksource);

  /* Check UART Over Sampling to set Baud Rate Register */
  if (huart->Init.OverSampling == UART_OVERSAMPLING_8)
 8001d90:	f5b3 4f00 	cmp.w	r3, #32768	; 0x8000
 8001d94:	d12d      	bne.n	8001df2 <UART_SetConfig+0x21a>
    case UART_CLOCKSOURCE_LSE:
        usartdiv = (uint16_t)(UART_DIV_SAMPLING8(LSE_VALUE, huart->Init.BaudRate)); 
      break;
      case UART_CLOCKSOURCE_UNDEFINED:                
    default:
        ret = HAL_ERROR; 
 8001d96:	2001      	movs	r0, #1
HAL_StatusTypeDef UART_SetConfig(UART_HandleTypeDef *huart)
{
  uint32_t tmpreg                     = 0x00000000;
  UART_ClockSourceTypeDef clocksource = UART_CLOCKSOURCE_UNDEFINED;
  uint16_t brrtemp                    = 0x0000;
  uint16_t usartdiv                   = 0x0000;
 8001d98:	2300      	movs	r3, #0
    default:
        ret = HAL_ERROR; 
      break;
    }
    
    brrtemp = usartdiv & 0xFFF0;
 8001d9a:	f023 010f 	bic.w	r1, r3, #15
    brrtemp |= (uint16_t)((usartdiv & (uint16_t)0x000F) >> 1U);
    huart->Instance->BRR = brrtemp;
 8001d9e:	6822      	ldr	r2, [r4, #0]
        ret = HAL_ERROR; 
      break;
    }
    
    brrtemp = usartdiv & 0xFFF0;
    brrtemp |= (uint16_t)((usartdiv & (uint16_t)0x000F) >> 1U);
 8001da0:	f3c3 0342 	ubfx	r3, r3, #1, #3
    huart->Instance->BRR = brrtemp;
 8001da4:	430b      	orrs	r3, r1
 8001da6:	60d3      	str	r3, [r2, #12]
 8001da8:	bd38      	pop	{r3, r4, r5, pc}
  }
  else
  {
    switch (clocksource)
 8001daa:	2a08      	cmp	r2, #8
 8001dac:	d821      	bhi.n	8001df2 <UART_SetConfig+0x21a>
 8001dae:	e8df f002 	tbb	[pc, r2]
 8001db2:	0805      	.short	0x0805
 8001db4:	2011200b 	.word	0x2011200b
 8001db8:	2020      	.short	0x2020
 8001dba:	18          	.byte	0x18
 8001dbb:	00          	.byte	0x00
    {
    case UART_CLOCKSOURCE_PCLK1: 
        huart->Instance->BRR = (uint16_t)(UART_DIV_SAMPLING16(HAL_RCC_GetPCLK1Freq(), huart->Init.BaudRate));
 8001dbc:	f001 f9c6 	bl	800314c <HAL_RCC_GetPCLK1Freq>
 8001dc0:	e00a      	b.n	8001dd8 <UART_SetConfig+0x200>
      break;
    case UART_CLOCKSOURCE_PCLK2: 
        huart->Instance->BRR = (uint16_t)(UART_DIV_SAMPLING16(HAL_RCC_GetPCLK2Freq(), huart->Init.BaudRate));
 8001dc2:	f001 f9d9 	bl	8003178 <HAL_RCC_GetPCLK2Freq>
 8001dc6:	e007      	b.n	8001dd8 <UART_SetConfig+0x200>
      break;
    case UART_CLOCKSOURCE_HSI: 
        huart->Instance->BRR = (uint16_t)(UART_DIV_SAMPLING16(HSI_VALUE, huart->Init.BaudRate)); 
 8001dc8:	6863      	ldr	r3, [r4, #4]
 8001dca:	4a17      	ldr	r2, [pc, #92]	; (8001e28 <UART_SetConfig+0x250>)
 8001dcc:	fbb2 f3f3 	udiv	r3, r2, r3
 8001dd0:	b29b      	uxth	r3, r3
 8001dd2:	e00b      	b.n	8001dec <UART_SetConfig+0x214>
      break; 
    case UART_CLOCKSOURCE_SYSCLK:  
        huart->Instance->BRR = (uint16_t)(UART_DIV_SAMPLING16(HAL_RCC_GetSysClockFreq(), huart->Init.BaudRate));
 8001dd4:	f001 f95a 	bl	800308c <HAL_RCC_GetSysClockFreq>
 8001dd8:	6863      	ldr	r3, [r4, #4]
 8001dda:	fbb0 f0f3 	udiv	r0, r0, r3
 8001dde:	b283      	uxth	r3, r0
 8001de0:	e004      	b.n	8001dec <UART_SetConfig+0x214>
      break;  
    case UART_CLOCKSOURCE_LSE:
        huart->Instance->BRR = (uint16_t)(UART_DIV_SAMPLING16(LSE_VALUE, huart->Init.BaudRate)); 
 8001de2:	6863      	ldr	r3, [r4, #4]
 8001de4:	f44f 4200 	mov.w	r2, #32768	; 0x8000
 8001de8:	fbb2 f3f3 	udiv	r3, r2, r3
 8001dec:	60eb      	str	r3, [r5, #12]
{
  uint32_t tmpreg                     = 0x00000000;
  UART_ClockSourceTypeDef clocksource = UART_CLOCKSOURCE_UNDEFINED;
  uint16_t brrtemp                    = 0x0000;
  uint16_t usartdiv                   = 0x0000;
  HAL_StatusTypeDef ret               = HAL_OK;  
 8001dee:	2000      	movs	r0, #0
    case UART_CLOCKSOURCE_SYSCLK:  
        huart->Instance->BRR = (uint16_t)(UART_DIV_SAMPLING16(HAL_RCC_GetSysClockFreq(), huart->Init.BaudRate));
      break;  
    case UART_CLOCKSOURCE_LSE:
        huart->Instance->BRR = (uint16_t)(UART_DIV_SAMPLING16(LSE_VALUE, huart->Init.BaudRate)); 
      break;
 8001df0:	bd38      	pop	{r3, r4, r5, pc}
      case UART_CLOCKSOURCE_UNDEFINED:                
    default:
        ret = HAL_ERROR; 
 8001df2:	2001      	movs	r0, #1
    }
  }

  return ret;   

}
 8001df4:	bd38      	pop	{r3, r4, r5, pc}
 8001df6:	bf00      	nop
 8001df8:	efff69f3 	.word	0xefff69f3
 8001dfc:	40011000 	.word	0x40011000
 8001e00:	08007a49 	.word	0x08007a49
 8001e04:	40004400 	.word	0x40004400
 8001e08:	08007a3c 	.word	0x08007a3c
 8001e0c:	40004800 	.word	0x40004800
 8001e10:	40004c00 	.word	0x40004c00
 8001e14:	40005000 	.word	0x40005000
 8001e18:	40011400 	.word	0x40011400
 8001e1c:	40007800 	.word	0x40007800
 8001e20:	40007c00 	.word	0x40007c00
 8001e24:	01e84800 	.word	0x01e84800
 8001e28:	00f42400 	.word	0x00f42400

08001e2c <UART_AdvFeatureConfig>:
{
  /* Check whether the set of advanced features to configure is properly set */ 
  assert_param(IS_UART_ADVFEATURE_INIT(huart->AdvancedInit.AdvFeatureInit));
  
  /* if required, configure TX pin active level inversion */
  if(HAL_IS_BIT_SET(huart->AdvancedInit.AdvFeatureInit, UART_ADVFEATURE_TXINVERT_INIT))
 8001e2c:	6a43      	ldr	r3, [r0, #36]	; 0x24
 8001e2e:	07da      	lsls	r2, r3, #31
  * @brief Configure the UART peripheral advanced features 
  * @param huart: uart handle  
  * @retval None
  */
void UART_AdvFeatureConfig(UART_HandleTypeDef *huart)
{
 8001e30:	b510      	push	{r4, lr}
  /* Check whether the set of advanced features to configure is properly set */ 
  assert_param(IS_UART_ADVFEATURE_INIT(huart->AdvancedInit.AdvFeatureInit));
  
  /* if required, configure TX pin active level inversion */
  if(HAL_IS_BIT_SET(huart->AdvancedInit.AdvFeatureInit, UART_ADVFEATURE_TXINVERT_INIT))
 8001e32:	d506      	bpl.n	8001e42 <UART_AdvFeatureConfig+0x16>
  {
    assert_param(IS_UART_ADVFEATURE_TXINV(huart->AdvancedInit.TxPinLevelInvert));
    MODIFY_REG(huart->Instance->CR2, USART_CR2_TXINV, huart->AdvancedInit.TxPinLevelInvert);
 8001e34:	6802      	ldr	r2, [r0, #0]
 8001e36:	6a81      	ldr	r1, [r0, #40]	; 0x28
 8001e38:	6854      	ldr	r4, [r2, #4]
 8001e3a:	f424 3400 	bic.w	r4, r4, #131072	; 0x20000
 8001e3e:	4321      	orrs	r1, r4
 8001e40:	6051      	str	r1, [r2, #4]
  }
  
  /* if required, configure RX pin active level inversion */
  if(HAL_IS_BIT_SET(huart->AdvancedInit.AdvFeatureInit, UART_ADVFEATURE_RXINVERT_INIT))
 8001e42:	079c      	lsls	r4, r3, #30
 8001e44:	d506      	bpl.n	8001e54 <UART_AdvFeatureConfig+0x28>
  {
    assert_param(IS_UART_ADVFEATURE_RXINV(huart->AdvancedInit.RxPinLevelInvert));
    MODIFY_REG(huart->Instance->CR2, USART_CR2_RXINV, huart->AdvancedInit.RxPinLevelInvert);
 8001e46:	6802      	ldr	r2, [r0, #0]
 8001e48:	6ac1      	ldr	r1, [r0, #44]	; 0x2c
 8001e4a:	6854      	ldr	r4, [r2, #4]
 8001e4c:	f424 3480 	bic.w	r4, r4, #65536	; 0x10000
 8001e50:	4321      	orrs	r1, r4
 8001e52:	6051      	str	r1, [r2, #4]
  }
  
  /* if required, configure data inversion */
  if(HAL_IS_BIT_SET(huart->AdvancedInit.AdvFeatureInit, UART_ADVFEATURE_DATAINVERT_INIT))
 8001e54:	0759      	lsls	r1, r3, #29
 8001e56:	d506      	bpl.n	8001e66 <UART_AdvFeatureConfig+0x3a>
  {
    assert_param(IS_UART_ADVFEATURE_DATAINV(huart->AdvancedInit.DataInvert));
    MODIFY_REG(huart->Instance->CR2, USART_CR2_DATAINV, huart->AdvancedInit.DataInvert);
 8001e58:	6802      	ldr	r2, [r0, #0]
 8001e5a:	6b01      	ldr	r1, [r0, #48]	; 0x30
 8001e5c:	6854      	ldr	r4, [r2, #4]
 8001e5e:	f424 2480 	bic.w	r4, r4, #262144	; 0x40000
 8001e62:	4321      	orrs	r1, r4
 8001e64:	6051      	str	r1, [r2, #4]
  }
  
  /* if required, configure RX/TX pins swap */
  if(HAL_IS_BIT_SET(huart->AdvancedInit.AdvFeatureInit, UART_ADVFEATURE_SWAP_INIT))
 8001e66:	071a      	lsls	r2, r3, #28
 8001e68:	d506      	bpl.n	8001e78 <UART_AdvFeatureConfig+0x4c>
  {
    assert_param(IS_UART_ADVFEATURE_SWAP(huart->AdvancedInit.Swap));
    MODIFY_REG(huart->Instance->CR2, USART_CR2_SWAP, huart->AdvancedInit.Swap);
 8001e6a:	6802      	ldr	r2, [r0, #0]
 8001e6c:	6b41      	ldr	r1, [r0, #52]	; 0x34
 8001e6e:	6854      	ldr	r4, [r2, #4]
 8001e70:	f424 4400 	bic.w	r4, r4, #32768	; 0x8000
 8001e74:	4321      	orrs	r1, r4
 8001e76:	6051      	str	r1, [r2, #4]
  }
  
  /* if required, configure RX overrun detection disabling */
  if(HAL_IS_BIT_SET(huart->AdvancedInit.AdvFeatureInit, UART_ADVFEATURE_RXOVERRUNDISABLE_INIT))
 8001e78:	06dc      	lsls	r4, r3, #27
 8001e7a:	d506      	bpl.n	8001e8a <UART_AdvFeatureConfig+0x5e>
  {
    assert_param(IS_UART_OVERRUN(huart->AdvancedInit.OverrunDisable));  
    MODIFY_REG(huart->Instance->CR3, USART_CR3_OVRDIS, huart->AdvancedInit.OverrunDisable);
 8001e7c:	6802      	ldr	r2, [r0, #0]
 8001e7e:	6b81      	ldr	r1, [r0, #56]	; 0x38
 8001e80:	6894      	ldr	r4, [r2, #8]
 8001e82:	f424 5480 	bic.w	r4, r4, #4096	; 0x1000
 8001e86:	4321      	orrs	r1, r4
 8001e88:	6091      	str	r1, [r2, #8]
  }
  
  /* if required, configure DMA disabling on reception error */
  if(HAL_IS_BIT_SET(huart->AdvancedInit.AdvFeatureInit, UART_ADVFEATURE_DMADISABLEONERROR_INIT))
 8001e8a:	0699      	lsls	r1, r3, #26
 8001e8c:	d506      	bpl.n	8001e9c <UART_AdvFeatureConfig+0x70>
  {
    assert_param(IS_UART_ADVFEATURE_DMAONRXERROR(huart->AdvancedInit.DMADisableonRxError));   
    MODIFY_REG(huart->Instance->CR3, USART_CR3_DDRE, huart->AdvancedInit.DMADisableonRxError);
 8001e8e:	6802      	ldr	r2, [r0, #0]
 8001e90:	6bc1      	ldr	r1, [r0, #60]	; 0x3c
 8001e92:	6894      	ldr	r4, [r2, #8]
 8001e94:	f424 5400 	bic.w	r4, r4, #8192	; 0x2000
 8001e98:	4321      	orrs	r1, r4
 8001e9a:	6091      	str	r1, [r2, #8]
  }
  
  /* if required, configure auto Baud rate detection scheme */              
  if(HAL_IS_BIT_SET(huart->AdvancedInit.AdvFeatureInit, UART_ADVFEATURE_AUTOBAUDRATE_INIT))
 8001e9c:	065a      	lsls	r2, r3, #25
 8001e9e:	d50f      	bpl.n	8001ec0 <UART_AdvFeatureConfig+0x94>
  {
    assert_param(IS_UART_ADVFEATURE_AUTOBAUDRATE(huart->AdvancedInit.AutoBaudRateEnable));
    MODIFY_REG(huart->Instance->CR2, USART_CR2_ABREN, huart->AdvancedInit.AutoBaudRateEnable);
 8001ea0:	6802      	ldr	r2, [r0, #0]
 8001ea2:	6c01      	ldr	r1, [r0, #64]	; 0x40
 8001ea4:	6854      	ldr	r4, [r2, #4]
 8001ea6:	f424 1480 	bic.w	r4, r4, #1048576	; 0x100000
 8001eaa:	430c      	orrs	r4, r1
    /* set auto Baudrate detection parameters if detection is enabled */
    if(huart->AdvancedInit.AutoBaudRateEnable == UART_ADVFEATURE_AUTOBAUDRATE_ENABLE)
 8001eac:	f5b1 1f80 	cmp.w	r1, #1048576	; 0x100000
  
  /* if required, configure auto Baud rate detection scheme */              
  if(HAL_IS_BIT_SET(huart->AdvancedInit.AdvFeatureInit, UART_ADVFEATURE_AUTOBAUDRATE_INIT))
  {
    assert_param(IS_UART_ADVFEATURE_AUTOBAUDRATE(huart->AdvancedInit.AutoBaudRateEnable));
    MODIFY_REG(huart->Instance->CR2, USART_CR2_ABREN, huart->AdvancedInit.AutoBaudRateEnable);
 8001eb0:	6054      	str	r4, [r2, #4]
    /* set auto Baudrate detection parameters if detection is enabled */
    if(huart->AdvancedInit.AutoBaudRateEnable == UART_ADVFEATURE_AUTOBAUDRATE_ENABLE)
 8001eb2:	d105      	bne.n	8001ec0 <UART_AdvFeatureConfig+0x94>
    {
      assert_param(IS_UART_ADVFEATURE_AUTOBAUDRATEMODE(huart->AdvancedInit.AutoBaudRateMode));
      MODIFY_REG(huart->Instance->CR2, USART_CR2_ABRMODE, huart->AdvancedInit.AutoBaudRateMode);
 8001eb4:	6854      	ldr	r4, [r2, #4]
 8001eb6:	6c41      	ldr	r1, [r0, #68]	; 0x44
 8001eb8:	f424 04c0 	bic.w	r4, r4, #6291456	; 0x600000
 8001ebc:	4321      	orrs	r1, r4
 8001ebe:	6051      	str	r1, [r2, #4]
    }
  }
  
  /* if required, configure MSB first on communication line */  
  if(HAL_IS_BIT_SET(huart->AdvancedInit.AdvFeatureInit, UART_ADVFEATURE_MSBFIRST_INIT))
 8001ec0:	061b      	lsls	r3, r3, #24
 8001ec2:	d506      	bpl.n	8001ed2 <UART_AdvFeatureConfig+0xa6>
  {
    assert_param(IS_UART_ADVFEATURE_MSBFIRST(huart->AdvancedInit.MSBFirst));   
    MODIFY_REG(huart->Instance->CR2, USART_CR2_MSBFIRST, huart->AdvancedInit.MSBFirst);
 8001ec4:	6803      	ldr	r3, [r0, #0]
 8001ec6:	6c81      	ldr	r1, [r0, #72]	; 0x48
 8001ec8:	685a      	ldr	r2, [r3, #4]
 8001eca:	f422 2200 	bic.w	r2, r2, #524288	; 0x80000
 8001ece:	430a      	orrs	r2, r1
 8001ed0:	605a      	str	r2, [r3, #4]
 8001ed2:	bd10      	pop	{r4, pc}

08001ed4 <UART_CheckIdleState>:
  * @retval HAL status
  */
HAL_StatusTypeDef UART_CheckIdleState(UART_HandleTypeDef *huart)
{
  /* Initialize the UART ErrorCode */
  huart->ErrorCode = HAL_UART_ERROR_NONE;
 8001ed4:	2200      	movs	r2, #0
  
  /* Check if the Transmitter is enabled */
  if((huart->Instance->CR1 & USART_CR1_TE) == USART_CR1_TE)
 8001ed6:	6803      	ldr	r3, [r0, #0]
  * @brief Check the UART Idle State
  * @param huart: uart handle
  * @retval HAL status
  */
HAL_StatusTypeDef UART_CheckIdleState(UART_HandleTypeDef *huart)
{
 8001ed8:	b510      	push	{r4, lr}
  /* Initialize the UART ErrorCode */
  huart->ErrorCode = HAL_UART_ERROR_NONE;
 8001eda:	66c2      	str	r2, [r0, #108]	; 0x6c
  
  /* Check if the Transmitter is enabled */
  if((huart->Instance->CR1 & USART_CR1_TE) == USART_CR1_TE)
 8001edc:	681b      	ldr	r3, [r3, #0]
 8001ede:	0719      	lsls	r1, r3, #28
  * @brief Check the UART Idle State
  * @param huart: uart handle
  * @retval HAL status
  */
HAL_StatusTypeDef UART_CheckIdleState(UART_HandleTypeDef *huart)
{
 8001ee0:	4604      	mov	r4, r0
  /* Initialize the UART ErrorCode */
  huart->ErrorCode = HAL_UART_ERROR_NONE;
  
  /* Check if the Transmitter is enabled */
  if((huart->Instance->CR1 & USART_CR1_TE) == USART_CR1_TE)
 8001ee2:	d404      	bmi.n	8001eee <UART_CheckIdleState+0x1a>
      /* Timeout Occurred */
      return HAL_TIMEOUT;
    }
  }
  /* Check if the Receiver is enabled */
  if((huart->Instance->CR1 & USART_CR1_RE) == USART_CR1_RE)
 8001ee4:	6823      	ldr	r3, [r4, #0]
 8001ee6:	681b      	ldr	r3, [r3, #0]
 8001ee8:	075b      	lsls	r3, r3, #29
 8001eea:	d514      	bpl.n	8001f16 <UART_CheckIdleState+0x42>
 8001eec:	e009      	b.n	8001f02 <UART_CheckIdleState+0x2e>
  
  /* Check if the Transmitter is enabled */
  if((huart->Instance->CR1 & USART_CR1_TE) == USART_CR1_TE)
  {
    /* Wait until TEACK flag is set */
    if(UART_WaitOnFlagUntilTimeout(huart, USART_ISR_TEACK, RESET, HAL_UART_TIMEOUT_VALUE) != HAL_OK)  
 8001eee:	f44f 1100 	mov.w	r1, #2097152	; 0x200000
 8001ef2:	f06f 437e 	mvn.w	r3, #4261412864	; 0xfe000000
 8001ef6:	f7ff fcec 	bl	80018d2 <UART_WaitOnFlagUntilTimeout>
 8001efa:	2800      	cmp	r0, #0
 8001efc:	d0f2      	beq.n	8001ee4 <UART_CheckIdleState+0x10>
    {
      /* Timeout Occurred */
      return HAL_TIMEOUT;
 8001efe:	2003      	movs	r0, #3
 8001f00:	bd10      	pop	{r4, pc}
  }
  /* Check if the Receiver is enabled */
  if((huart->Instance->CR1 & USART_CR1_RE) == USART_CR1_RE)
  {
    /* Wait until REACK flag is set */
    if(UART_WaitOnFlagUntilTimeout(huart, USART_ISR_REACK, RESET,  HAL_UART_TIMEOUT_VALUE) != HAL_OK)  
 8001f02:	4620      	mov	r0, r4
 8001f04:	f44f 0180 	mov.w	r1, #4194304	; 0x400000
 8001f08:	2200      	movs	r2, #0
 8001f0a:	f06f 437e 	mvn.w	r3, #4261412864	; 0xfe000000
 8001f0e:	f7ff fce0 	bl	80018d2 <UART_WaitOnFlagUntilTimeout>
 8001f12:	2800      	cmp	r0, #0
 8001f14:	d1f3      	bne.n	8001efe <UART_CheckIdleState+0x2a>
      return HAL_TIMEOUT;
    }
  }
  
  /* Initialize the UART State */
  huart->State= HAL_UART_STATE_READY;
 8001f16:	2301      	movs	r3, #1
    
  /* Process Unlocked */
  __HAL_UNLOCK(huart);
 8001f18:	2000      	movs	r0, #0
      return HAL_TIMEOUT;
    }
  }
  
  /* Initialize the UART State */
  huart->State= HAL_UART_STATE_READY;
 8001f1a:	f884 3069 	strb.w	r3, [r4, #105]	; 0x69
    
  /* Process Unlocked */
  __HAL_UNLOCK(huart);
 8001f1e:	f884 0068 	strb.w	r0, [r4, #104]	; 0x68
  
  return HAL_OK;
 8001f22:	bd10      	pop	{r4, pc}

08001f24 <HAL_UART_Init>:
  *         parameters in the UART_InitTypeDef and creates the associated handle .
  * @param huart: uart handle
  * @retval HAL status
  */
HAL_StatusTypeDef HAL_UART_Init(UART_HandleTypeDef *huart)
{
 8001f24:	b510      	push	{r4, lr}
  /* Check the UART handle allocation */
  if(huart == NULL)
 8001f26:	4604      	mov	r4, r0
 8001f28:	b360      	cbz	r0, 8001f84 <HAL_UART_Init+0x60>
  {
    /* Check the parameters */
    assert_param(IS_UART_INSTANCE(huart->Instance));
  }
  
  if(huart->State == HAL_UART_STATE_RESET)
 8001f2a:	f890 3069 	ldrb.w	r3, [r0, #105]	; 0x69
 8001f2e:	f003 02ff 	and.w	r2, r3, #255	; 0xff
 8001f32:	b91b      	cbnz	r3, 8001f3c <HAL_UART_Init+0x18>
  {
    /* Allocate lock resource and initialize it */
    huart->Lock = HAL_UNLOCKED;
 8001f34:	f880 2068 	strb.w	r2, [r0, #104]	; 0x68

    /* Init the low level hardware : GPIO, CLOCK */
    HAL_UART_MspInit(huart);
 8001f38:	f7ff f956 	bl	80011e8 <HAL_UART_MspInit>
  }

  huart->State = HAL_UART_STATE_BUSY;
 8001f3c:	2302      	movs	r3, #2
 8001f3e:	f884 3069 	strb.w	r3, [r4, #105]	; 0x69

  /* Disable the Peripheral */
  __HAL_UART_DISABLE(huart);
 8001f42:	6823      	ldr	r3, [r4, #0]
 8001f44:	681a      	ldr	r2, [r3, #0]
 8001f46:	f022 0201 	bic.w	r2, r2, #1
 8001f4a:	601a      	str	r2, [r3, #0]
  
  /* Set the UART Communication parameters */
  if (UART_SetConfig(huart) == HAL_ERROR)
 8001f4c:	4620      	mov	r0, r4
 8001f4e:	f7ff fe43 	bl	8001bd8 <UART_SetConfig>
 8001f52:	2801      	cmp	r0, #1
 8001f54:	d016      	beq.n	8001f84 <HAL_UART_Init+0x60>
  {
    return HAL_ERROR;
  }

  if (huart->AdvancedInit.AdvFeatureInit != UART_ADVFEATURE_NO_INIT)
 8001f56:	6a63      	ldr	r3, [r4, #36]	; 0x24
 8001f58:	b113      	cbz	r3, 8001f60 <HAL_UART_Init+0x3c>
  {
    UART_AdvFeatureConfig(huart);
 8001f5a:	4620      	mov	r0, r4
 8001f5c:	f7ff ff66 	bl	8001e2c <UART_AdvFeatureConfig>
  }

  /* In asynchronous mode, the following bits must be kept cleared:
  - LINEN and CLKEN bits in the USART_CR2 register,
  - SCEN, HDSEL and IREN  bits in the USART_CR3 register.*/
  huart->Instance->CR2 &= ~(USART_CR2_LINEN | USART_CR2_CLKEN);
 8001f60:	6823      	ldr	r3, [r4, #0]
 8001f62:	685a      	ldr	r2, [r3, #4]
 8001f64:	f422 4290 	bic.w	r2, r2, #18432	; 0x4800
 8001f68:	605a      	str	r2, [r3, #4]
  huart->Instance->CR3 &= ~(USART_CR3_SCEN | USART_CR3_HDSEL | USART_CR3_IREN);
 8001f6a:	689a      	ldr	r2, [r3, #8]
 8001f6c:	f022 022a 	bic.w	r2, r2, #42	; 0x2a
 8001f70:	609a      	str	r2, [r3, #8]

  /* Enable the Peripheral */
  __HAL_UART_ENABLE(huart);
 8001f72:	681a      	ldr	r2, [r3, #0]
 8001f74:	f042 0201 	orr.w	r2, r2, #1

  /* TEACK and/or REACK to check before moving huart->State to Ready */
  return (UART_CheckIdleState(huart));
 8001f78:	4620      	mov	r0, r4
  - SCEN, HDSEL and IREN  bits in the USART_CR3 register.*/
  huart->Instance->CR2 &= ~(USART_CR2_LINEN | USART_CR2_CLKEN);
  huart->Instance->CR3 &= ~(USART_CR3_SCEN | USART_CR3_HDSEL | USART_CR3_IREN);

  /* Enable the Peripheral */
  __HAL_UART_ENABLE(huart);
 8001f7a:	601a      	str	r2, [r3, #0]

  /* TEACK and/or REACK to check before moving huart->State to Ready */
  return (UART_CheckIdleState(huart));
}
 8001f7c:	e8bd 4010 	ldmia.w	sp!, {r4, lr}

  /* Enable the Peripheral */
  __HAL_UART_ENABLE(huart);

  /* TEACK and/or REACK to check before moving huart->State to Ready */
  return (UART_CheckIdleState(huart));
 8001f80:	f7ff bfa8 	b.w	8001ed4 <UART_CheckIdleState>
}
 8001f84:	2001      	movs	r0, #1
 8001f86:	bd10      	pop	{r4, pc}

08001f88 <HAL_TIMEx_MasterConfigSynchronization>:
  assert_param(IS_TIM_SYNCHRO_INSTANCE(htim->Instance));
  assert_param(IS_TIM_TRGO_SOURCE(sMasterConfig->MasterOutputTrigger));
  assert_param(IS_TIM_MSM_STATE(sMasterConfig->MasterSlaveMode));
  
  /* Check input state */
  __HAL_LOCK(htim);
 8001f88:	f890 3038 	ldrb.w	r3, [r0, #56]	; 0x38
 8001f8c:	2b01      	cmp	r3, #1
  *         contains the selected trigger output (TRGO) and the Master/Slave 
  *         mode. 
  * @retval HAL status
  */
HAL_StatusTypeDef HAL_TIMEx_MasterConfigSynchronization(TIM_HandleTypeDef *htim, TIM_MasterConfigTypeDef * sMasterConfig)
{
 8001f8e:	b530      	push	{r4, r5, lr}
  assert_param(IS_TIM_SYNCHRO_INSTANCE(htim->Instance));
  assert_param(IS_TIM_TRGO_SOURCE(sMasterConfig->MasterOutputTrigger));
  assert_param(IS_TIM_MSM_STATE(sMasterConfig->MasterSlaveMode));
  
  /* Check input state */
  __HAL_LOCK(htim);
 8001f90:	d01d      	beq.n	8001fce <HAL_TIMEx_MasterConfigSynchronization+0x46>

 /* Get the TIMx CR2 register value */
  tmpcr2 = htim->Instance->CR2;
 8001f92:	6803      	ldr	r3, [r0, #0]

  /* Get the TIMx SMCR register value */
  tmpsmcr = htim->Instance->SMCR;

  /* If the timer supports ADC synchronization through TRGO2, set the master mode selection 2 */
  if (IS_TIM_TRGO2_INSTANCE(htim->Instance))
 8001f94:	4c0f      	ldr	r4, [pc, #60]	; (8001fd4 <HAL_TIMEx_MasterConfigSynchronization+0x4c>)
  
  /* Check input state */
  __HAL_LOCK(htim);

 /* Get the TIMx CR2 register value */
  tmpcr2 = htim->Instance->CR2;
 8001f96:	685a      	ldr	r2, [r3, #4]

  /* Get the TIMx SMCR register value */
  tmpsmcr = htim->Instance->SMCR;
 8001f98:	689d      	ldr	r5, [r3, #8]

  /* If the timer supports ADC synchronization through TRGO2, set the master mode selection 2 */
  if (IS_TIM_TRGO2_INSTANCE(htim->Instance))
 8001f9a:	42a3      	cmp	r3, r4
 8001f9c:	d003      	beq.n	8001fa6 <HAL_TIMEx_MasterConfigSynchronization+0x1e>
 8001f9e:	f504 6480 	add.w	r4, r4, #1024	; 0x400
 8001fa2:	42a3      	cmp	r3, r4
 8001fa4:	d103      	bne.n	8001fae <HAL_TIMEx_MasterConfigSynchronization+0x26>
    assert_param(IS_TIM_TRGO2_SOURCE(sMasterConfig->MasterOutputTrigger2));
    
    /* Clear the MMS2 bits */
    tmpcr2 &= ~TIM_CR2_MMS2;
    /* Select the TRGO2 source*/
    tmpcr2 |= sMasterConfig->MasterOutputTrigger2;
 8001fa6:	684c      	ldr	r4, [r1, #4]
  {
    /* Check the parameters */
    assert_param(IS_TIM_TRGO2_SOURCE(sMasterConfig->MasterOutputTrigger2));
    
    /* Clear the MMS2 bits */
    tmpcr2 &= ~TIM_CR2_MMS2;
 8001fa8:	f422 0270 	bic.w	r2, r2, #15728640	; 0xf00000
    /* Select the TRGO2 source*/
    tmpcr2 |= sMasterConfig->MasterOutputTrigger2;
 8001fac:	4322      	orrs	r2, r4
  }
  
  /* Reset the MMS Bits */
  tmpcr2 &= ~TIM_CR2_MMS;
  /* Select the TRGO source */
  tmpcr2 |=  sMasterConfig->MasterOutputTrigger;
 8001fae:	680c      	ldr	r4, [r1, #0]
    /* Select the TRGO2 source*/
    tmpcr2 |= sMasterConfig->MasterOutputTrigger2;
  }
  
  /* Reset the MMS Bits */
  tmpcr2 &= ~TIM_CR2_MMS;
 8001fb0:	f022 0270 	bic.w	r2, r2, #112	; 0x70
  /* Select the TRGO source */
  tmpcr2 |=  sMasterConfig->MasterOutputTrigger;
 8001fb4:	4314      	orrs	r4, r2

  /* Reset the MSM Bit */
  tmpsmcr &= ~TIM_SMCR_MSM;
  /* Set master mode */
  tmpsmcr |= sMasterConfig->MasterSlaveMode;
 8001fb6:	688a      	ldr	r2, [r1, #8]
  
  /* Update TIMx CR2 */
  htim->Instance->CR2 = tmpcr2;
 8001fb8:	605c      	str	r4, [r3, #4]
  tmpcr2 &= ~TIM_CR2_MMS;
  /* Select the TRGO source */
  tmpcr2 |=  sMasterConfig->MasterOutputTrigger;

  /* Reset the MSM Bit */
  tmpsmcr &= ~TIM_SMCR_MSM;
 8001fba:	f025 0580 	bic.w	r5, r5, #128	; 0x80
  /* Set master mode */
  tmpsmcr |= sMasterConfig->MasterSlaveMode;
 8001fbe:	ea45 0102 	orr.w	r1, r5, r2
  
  /* Update TIMx CR2 */
  htim->Instance->CR2 = tmpcr2;
  
  /* Update TIMx SMCR */
  htim->Instance->SMCR = tmpsmcr;
 8001fc2:	6099      	str	r1, [r3, #8]

  __HAL_UNLOCK(htim);
 8001fc4:	2300      	movs	r3, #0
 8001fc6:	f880 3038 	strb.w	r3, [r0, #56]	; 0x38
  
  return HAL_OK;
 8001fca:	4618      	mov	r0, r3
 8001fcc:	bd30      	pop	{r4, r5, pc}
  assert_param(IS_TIM_SYNCHRO_INSTANCE(htim->Instance));
  assert_param(IS_TIM_TRGO_SOURCE(sMasterConfig->MasterOutputTrigger));
  assert_param(IS_TIM_MSM_STATE(sMasterConfig->MasterSlaveMode));
  
  /* Check input state */
  __HAL_LOCK(htim);
 8001fce:	2002      	movs	r0, #2
  htim->Instance->SMCR = tmpsmcr;

  __HAL_UNLOCK(htim);
  
  return HAL_OK;
} 
 8001fd0:	bd30      	pop	{r4, r5, pc}
 8001fd2:	bf00      	nop
 8001fd4:	40010000 	.word	0x40010000

08001fd8 <HAL_TIMEx_CommutationCallback>:
  * @param  htim: pointer to a TIM_HandleTypeDef structure that contains
  *                the configuration information for TIM module.
  * @retval None
  */
__weak void HAL_TIMEx_CommutationCallback(TIM_HandleTypeDef *htim)
{
 8001fd8:	4770      	bx	lr

08001fda <HAL_TIMEx_BreakCallback>:
  * @param  htim: pointer to a TIM_HandleTypeDef structure that contains
  *                the configuration information for TIM module.
  * @retval None
  */
__weak void HAL_TIMEx_BreakCallback(TIM_HandleTypeDef *htim)
{
 8001fda:	4770      	bx	lr

08001fdc <TIM_TI1_ConfigInputStage>:
{
  uint32_t tmpccmr1 = 0;
  uint32_t tmpccer = 0;
  
  /* Disable the Channel 1: Reset the CC1E Bit */
  tmpccer = TIMx->CCER;
 8001fdc:	6a03      	ldr	r3, [r0, #32]
  * @param  TIM_ICFilter: Specifies the Input Capture Filter.
  *          This parameter must be a value between 0x00 and 0x0F.
  * @retval None
  */
static void TIM_TI1_ConfigInputStage(TIM_TypeDef *TIMx, uint32_t TIM_ICPolarity, uint32_t TIM_ICFilter)
{
 8001fde:	b510      	push	{r4, lr}
  uint32_t tmpccmr1 = 0;
  uint32_t tmpccer = 0;
  
  /* Disable the Channel 1: Reset the CC1E Bit */
  tmpccer = TIMx->CCER;
  TIMx->CCER &= ~TIM_CCER_CC1E;
 8001fe0:	6a04      	ldr	r4, [r0, #32]
 8001fe2:	f024 0401 	bic.w	r4, r4, #1
 8001fe6:	6204      	str	r4, [r0, #32]
  tmpccmr1 = TIMx->CCMR1;    
 8001fe8:	6984      	ldr	r4, [r0, #24]
  /* Set the filter */
  tmpccmr1 &= ~TIM_CCMR1_IC1F;
  tmpccmr1 |= (TIM_ICFilter << 4);
  
  /* Select the Polarity and set the CC1E Bit */
  tmpccer &= ~(TIM_CCER_CC1P | TIM_CCER_CC1NP);
 8001fea:	f023 030a 	bic.w	r3, r3, #10
  tmpccer = TIMx->CCER;
  TIMx->CCER &= ~TIM_CCER_CC1E;
  tmpccmr1 = TIMx->CCMR1;    
  
  /* Set the filter */
  tmpccmr1 &= ~TIM_CCMR1_IC1F;
 8001fee:	f024 04f0 	bic.w	r4, r4, #240	; 0xf0
  tmpccmr1 |= (TIM_ICFilter << 4);
 8001ff2:	ea44 1202 	orr.w	r2, r4, r2, lsl #4
  
  /* Select the Polarity and set the CC1E Bit */
  tmpccer &= ~(TIM_CCER_CC1P | TIM_CCER_CC1NP);
  tmpccer |= TIM_ICPolarity;
 8001ff6:	4319      	orrs	r1, r3
  
  /* Write to TIMx CCMR1 and CCER registers */
  TIMx->CCMR1 = tmpccmr1;
 8001ff8:	6182      	str	r2, [r0, #24]
  TIMx->CCER = tmpccer;
 8001ffa:	6201      	str	r1, [r0, #32]
 8001ffc:	bd10      	pop	{r4, pc}

08001ffe <TIM_TI2_ConfigInputStage>:
{
uint32_t tmpccmr1 = 0;
  uint32_t tmpccer = 0;
  
  /* Disable the Channel 2: Reset the CC2E Bit */
  TIMx->CCER &= ~TIM_CCER_CC2E;
 8001ffe:	6a03      	ldr	r3, [r0, #32]
 8002000:	f023 0310 	bic.w	r3, r3, #16
 8002004:	6203      	str	r3, [r0, #32]
  * @param  TIM_ICFilter: Specifies the Input Capture Filter.
  *          This parameter must be a value between 0x00 and 0x0F.
  * @retval None
  */
static void TIM_TI2_ConfigInputStage(TIM_TypeDef *TIMx, uint32_t TIM_ICPolarity, uint32_t TIM_ICFilter)
{
 8002006:	b510      	push	{r4, lr}
uint32_t tmpccmr1 = 0;
  uint32_t tmpccer = 0;
  
  /* Disable the Channel 2: Reset the CC2E Bit */
  TIMx->CCER &= ~TIM_CCER_CC2E;
  tmpccmr1 = TIMx->CCMR1;
 8002008:	6984      	ldr	r4, [r0, #24]
  tmpccer = TIMx->CCER;
 800200a:	6a03      	ldr	r3, [r0, #32]
  
  /* Set the filter */
  tmpccmr1 &= ~TIM_CCMR1_IC2F;
 800200c:	f424 4470 	bic.w	r4, r4, #61440	; 0xf000
  tmpccmr1 |= (TIM_ICFilter << 12);

  /* Select the Polarity and set the CC2E Bit */
  tmpccer &= ~(TIM_CCER_CC2P | TIM_CCER_CC2NP);
 8002010:	f023 03a0 	bic.w	r3, r3, #160	; 0xa0
  tmpccmr1 = TIMx->CCMR1;
  tmpccer = TIMx->CCER;
  
  /* Set the filter */
  tmpccmr1 &= ~TIM_CCMR1_IC2F;
  tmpccmr1 |= (TIM_ICFilter << 12);
 8002014:	ea44 3202 	orr.w	r2, r4, r2, lsl #12

  /* Select the Polarity and set the CC2E Bit */
  tmpccer &= ~(TIM_CCER_CC2P | TIM_CCER_CC2NP);
  tmpccer |= (TIM_ICPolarity << 4);
 8002018:	ea43 1101 	orr.w	r1, r3, r1, lsl #4

  /* Write to TIMx CCMR1 and CCER registers */
  TIMx->CCMR1 = tmpccmr1 ;
 800201c:	6182      	str	r2, [r0, #24]
  TIMx->CCER = tmpccer;
 800201e:	6201      	str	r1, [r0, #32]
 8002020:	bd10      	pop	{r4, pc}

08002022 <HAL_TIM_Base_Start_IT>:
{
  /* Check the parameters */
  assert_param(IS_TIM_INSTANCE(htim->Instance));
  
  /* Enable the TIM Update interrupt */
  __HAL_TIM_ENABLE_IT(htim, TIM_IT_UPDATE);
 8002022:	6803      	ldr	r3, [r0, #0]
 8002024:	68da      	ldr	r2, [r3, #12]
 8002026:	f042 0201 	orr.w	r2, r2, #1
 800202a:	60da      	str	r2, [r3, #12]
      
  /* Enable the Peripheral */
  __HAL_TIM_ENABLE(htim);
 800202c:	681a      	ldr	r2, [r3, #0]
 800202e:	f042 0201 	orr.w	r2, r2, #1
 8002032:	601a      	str	r2, [r3, #0]
      
  /* Return function status */
  return HAL_OK;
}
 8002034:	2000      	movs	r0, #0
 8002036:	4770      	bx	lr

08002038 <HAL_TIM_OC_DelayElapsedCallback>:
  * @param  htim: pointer to a TIM_HandleTypeDef structure that contains
  *                the configuration information for TIM module.
  * @retval None
  */
__weak void HAL_TIM_OC_DelayElapsedCallback(TIM_HandleTypeDef *htim)
{
 8002038:	4770      	bx	lr

0800203a <HAL_TIM_IC_CaptureCallback>:
  * @param  htim: pointer to a TIM_HandleTypeDef structure that contains
  *                the configuration information for TIM module.
  * @retval None
  */
__weak void HAL_TIM_IC_CaptureCallback(TIM_HandleTypeDef *htim)
{
 800203a:	4770      	bx	lr

0800203c <HAL_TIM_PWM_PulseFinishedCallback>:
  * @param  htim: pointer to a TIM_HandleTypeDef structure that contains
  *                the configuration information for TIM module.
  * @retval None
  */
__weak void HAL_TIM_PWM_PulseFinishedCallback(TIM_HandleTypeDef *htim)
{
 800203c:	4770      	bx	lr

0800203e <HAL_TIM_TriggerCallback>:
  * @param  htim: pointer to a TIM_HandleTypeDef structure that contains
  *                the configuration information for TIM module.
  * @retval None
  */
__weak void HAL_TIM_TriggerCallback(TIM_HandleTypeDef *htim)
{
 800203e:	4770      	bx	lr

08002040 <HAL_TIM_IRQHandler>:
  * @retval None
  */
void HAL_TIM_IRQHandler(TIM_HandleTypeDef *htim)
{
  /* Capture compare 1 event */
  if(__HAL_TIM_GET_FLAG(htim, TIM_FLAG_CC1) != RESET)
 8002040:	6803      	ldr	r3, [r0, #0]
 8002042:	691a      	ldr	r2, [r3, #16]
 8002044:	0791      	lsls	r1, r2, #30
  * @param  htim: pointer to a TIM_HandleTypeDef structure that contains
  *                the configuration information for TIM module.
  * @retval None
  */
void HAL_TIM_IRQHandler(TIM_HandleTypeDef *htim)
{
 8002046:	b510      	push	{r4, lr}
 8002048:	4604      	mov	r4, r0
  /* Capture compare 1 event */
  if(__HAL_TIM_GET_FLAG(htim, TIM_FLAG_CC1) != RESET)
 800204a:	d514      	bpl.n	8002076 <HAL_TIM_IRQHandler+0x36>
  {
    if(__HAL_TIM_GET_IT_SOURCE(htim, TIM_IT_CC1) !=RESET)
 800204c:	68da      	ldr	r2, [r3, #12]
 800204e:	0792      	lsls	r2, r2, #30
 8002050:	d511      	bpl.n	8002076 <HAL_TIM_IRQHandler+0x36>
    {
      {
        __HAL_TIM_CLEAR_IT(htim, TIM_IT_CC1);
 8002052:	f06f 0202 	mvn.w	r2, #2
 8002056:	611a      	str	r2, [r3, #16]
        htim->Channel = HAL_TIM_ACTIVE_CHANNEL_1;
        
        /* Input capture event */
        if((htim->Instance->CCMR1 & TIM_CCMR1_CC1S) != 0x00)
 8002058:	699b      	ldr	r3, [r3, #24]
  {
    if(__HAL_TIM_GET_IT_SOURCE(htim, TIM_IT_CC1) !=RESET)
    {
      {
        __HAL_TIM_CLEAR_IT(htim, TIM_IT_CC1);
        htim->Channel = HAL_TIM_ACTIVE_CHANNEL_1;
 800205a:	2201      	movs	r2, #1
        
        /* Input capture event */
        if((htim->Instance->CCMR1 & TIM_CCMR1_CC1S) != 0x00)
 800205c:	0799      	lsls	r1, r3, #30
  {
    if(__HAL_TIM_GET_IT_SOURCE(htim, TIM_IT_CC1) !=RESET)
    {
      {
        __HAL_TIM_CLEAR_IT(htim, TIM_IT_CC1);
        htim->Channel = HAL_TIM_ACTIVE_CHANNEL_1;
 800205e:	7602      	strb	r2, [r0, #24]
        
        /* Input capture event */
        if((htim->Instance->CCMR1 & TIM_CCMR1_CC1S) != 0x00)
 8002060:	d002      	beq.n	8002068 <HAL_TIM_IRQHandler+0x28>
        {
          HAL_TIM_IC_CaptureCallback(htim);
 8002062:	f7ff ffea 	bl	800203a <HAL_TIM_IC_CaptureCallback>
 8002066:	e004      	b.n	8002072 <HAL_TIM_IRQHandler+0x32>
        }
        /* Output compare event */
        else
        {
          HAL_TIM_OC_DelayElapsedCallback(htim);
 8002068:	f7ff ffe6 	bl	8002038 <HAL_TIM_OC_DelayElapsedCallback>
          HAL_TIM_PWM_PulseFinishedCallback(htim);
 800206c:	4620      	mov	r0, r4
 800206e:	f7ff ffe5 	bl	800203c <HAL_TIM_PWM_PulseFinishedCallback>
        }
        htim->Channel = HAL_TIM_ACTIVE_CHANNEL_CLEARED;
 8002072:	2300      	movs	r3, #0
 8002074:	7623      	strb	r3, [r4, #24]
      }
    }
  }
  /* Capture compare 2 event */
  if(__HAL_TIM_GET_FLAG(htim, TIM_FLAG_CC2) != RESET)
 8002076:	6823      	ldr	r3, [r4, #0]
 8002078:	691a      	ldr	r2, [r3, #16]
 800207a:	0752      	lsls	r2, r2, #29
 800207c:	d516      	bpl.n	80020ac <HAL_TIM_IRQHandler+0x6c>
  {
    if(__HAL_TIM_GET_IT_SOURCE(htim, TIM_IT_CC2) !=RESET)
 800207e:	68da      	ldr	r2, [r3, #12]
 8002080:	0750      	lsls	r0, r2, #29
 8002082:	d513      	bpl.n	80020ac <HAL_TIM_IRQHandler+0x6c>
    {
      __HAL_TIM_CLEAR_IT(htim, TIM_IT_CC2);
 8002084:	f06f 0204 	mvn.w	r2, #4
 8002088:	611a      	str	r2, [r3, #16]
      htim->Channel = HAL_TIM_ACTIVE_CHANNEL_2;
      /* Input capture event */
      if((htim->Instance->CCMR1 & TIM_CCMR1_CC2S) != 0x00)
 800208a:	699b      	ldr	r3, [r3, #24]
  if(__HAL_TIM_GET_FLAG(htim, TIM_FLAG_CC2) != RESET)
  {
    if(__HAL_TIM_GET_IT_SOURCE(htim, TIM_IT_CC2) !=RESET)
    {
      __HAL_TIM_CLEAR_IT(htim, TIM_IT_CC2);
      htim->Channel = HAL_TIM_ACTIVE_CHANNEL_2;
 800208c:	2202      	movs	r2, #2
      /* Input capture event */
      if((htim->Instance->CCMR1 & TIM_CCMR1_CC2S) != 0x00)
 800208e:	f413 7f40 	tst.w	r3, #768	; 0x300
  if(__HAL_TIM_GET_FLAG(htim, TIM_FLAG_CC2) != RESET)
  {
    if(__HAL_TIM_GET_IT_SOURCE(htim, TIM_IT_CC2) !=RESET)
    {
      __HAL_TIM_CLEAR_IT(htim, TIM_IT_CC2);
      htim->Channel = HAL_TIM_ACTIVE_CHANNEL_2;
 8002092:	7622      	strb	r2, [r4, #24]
      /* Input capture event */
      if((htim->Instance->CCMR1 & TIM_CCMR1_CC2S) != 0x00)
      {          
        HAL_TIM_IC_CaptureCallback(htim);
 8002094:	4620      	mov	r0, r4
    if(__HAL_TIM_GET_IT_SOURCE(htim, TIM_IT_CC2) !=RESET)
    {
      __HAL_TIM_CLEAR_IT(htim, TIM_IT_CC2);
      htim->Channel = HAL_TIM_ACTIVE_CHANNEL_2;
      /* Input capture event */
      if((htim->Instance->CCMR1 & TIM_CCMR1_CC2S) != 0x00)
 8002096:	d002      	beq.n	800209e <HAL_TIM_IRQHandler+0x5e>
      {          
        HAL_TIM_IC_CaptureCallback(htim);
 8002098:	f7ff ffcf 	bl	800203a <HAL_TIM_IC_CaptureCallback>
 800209c:	e004      	b.n	80020a8 <HAL_TIM_IRQHandler+0x68>
      }
      /* Output compare event */
      else
      {
        HAL_TIM_OC_DelayElapsedCallback(htim);
 800209e:	f7ff ffcb 	bl	8002038 <HAL_TIM_OC_DelayElapsedCallback>
        HAL_TIM_PWM_PulseFinishedCallback(htim);
 80020a2:	4620      	mov	r0, r4
 80020a4:	f7ff ffca 	bl	800203c <HAL_TIM_PWM_PulseFinishedCallback>
      }
      htim->Channel = HAL_TIM_ACTIVE_CHANNEL_CLEARED;
 80020a8:	2300      	movs	r3, #0
 80020aa:	7623      	strb	r3, [r4, #24]
    }
  }
  /* Capture compare 3 event */
  if(__HAL_TIM_GET_FLAG(htim, TIM_FLAG_CC3) != RESET)
 80020ac:	6823      	ldr	r3, [r4, #0]
 80020ae:	691a      	ldr	r2, [r3, #16]
 80020b0:	0711      	lsls	r1, r2, #28
 80020b2:	d515      	bpl.n	80020e0 <HAL_TIM_IRQHandler+0xa0>
  {
    if(__HAL_TIM_GET_IT_SOURCE(htim, TIM_IT_CC3) !=RESET)
 80020b4:	68da      	ldr	r2, [r3, #12]
 80020b6:	0712      	lsls	r2, r2, #28
 80020b8:	d512      	bpl.n	80020e0 <HAL_TIM_IRQHandler+0xa0>
    {
      __HAL_TIM_CLEAR_IT(htim, TIM_IT_CC3);
 80020ba:	f06f 0208 	mvn.w	r2, #8
 80020be:	611a      	str	r2, [r3, #16]
      htim->Channel = HAL_TIM_ACTIVE_CHANNEL_3;
      /* Input capture event */
      if((htim->Instance->CCMR2 & TIM_CCMR2_CC3S) != 0x00)
 80020c0:	69db      	ldr	r3, [r3, #28]
  if(__HAL_TIM_GET_FLAG(htim, TIM_FLAG_CC3) != RESET)
  {
    if(__HAL_TIM_GET_IT_SOURCE(htim, TIM_IT_CC3) !=RESET)
    {
      __HAL_TIM_CLEAR_IT(htim, TIM_IT_CC3);
      htim->Channel = HAL_TIM_ACTIVE_CHANNEL_3;
 80020c2:	2204      	movs	r2, #4
      /* Input capture event */
      if((htim->Instance->CCMR2 & TIM_CCMR2_CC3S) != 0x00)
 80020c4:	079b      	lsls	r3, r3, #30
  if(__HAL_TIM_GET_FLAG(htim, TIM_FLAG_CC3) != RESET)
  {
    if(__HAL_TIM_GET_IT_SOURCE(htim, TIM_IT_CC3) !=RESET)
    {
      __HAL_TIM_CLEAR_IT(htim, TIM_IT_CC3);
      htim->Channel = HAL_TIM_ACTIVE_CHANNEL_3;
 80020c6:	7622      	strb	r2, [r4, #24]
      /* Input capture event */
      if((htim->Instance->CCMR2 & TIM_CCMR2_CC3S) != 0x00)
      {          
        HAL_TIM_IC_CaptureCallback(htim);
 80020c8:	4620      	mov	r0, r4
    if(__HAL_TIM_GET_IT_SOURCE(htim, TIM_IT_CC3) !=RESET)
    {
      __HAL_TIM_CLEAR_IT(htim, TIM_IT_CC3);
      htim->Channel = HAL_TIM_ACTIVE_CHANNEL_3;
      /* Input capture event */
      if((htim->Instance->CCMR2 & TIM_CCMR2_CC3S) != 0x00)
 80020ca:	d002      	beq.n	80020d2 <HAL_TIM_IRQHandler+0x92>
      {          
        HAL_TIM_IC_CaptureCallback(htim);
 80020cc:	f7ff ffb5 	bl	800203a <HAL_TIM_IC_CaptureCallback>
 80020d0:	e004      	b.n	80020dc <HAL_TIM_IRQHandler+0x9c>
      }
      /* Output compare event */
      else
      {
        HAL_TIM_OC_DelayElapsedCallback(htim);
 80020d2:	f7ff ffb1 	bl	8002038 <HAL_TIM_OC_DelayElapsedCallback>
        HAL_TIM_PWM_PulseFinishedCallback(htim); 
 80020d6:	4620      	mov	r0, r4
 80020d8:	f7ff ffb0 	bl	800203c <HAL_TIM_PWM_PulseFinishedCallback>
      }
      htim->Channel = HAL_TIM_ACTIVE_CHANNEL_CLEARED;
 80020dc:	2300      	movs	r3, #0
 80020de:	7623      	strb	r3, [r4, #24]
    }
  }
  /* Capture compare 4 event */
  if(__HAL_TIM_GET_FLAG(htim, TIM_FLAG_CC4) != RESET)
 80020e0:	6823      	ldr	r3, [r4, #0]
 80020e2:	691a      	ldr	r2, [r3, #16]
 80020e4:	06d0      	lsls	r0, r2, #27
 80020e6:	d516      	bpl.n	8002116 <HAL_TIM_IRQHandler+0xd6>
  {
    if(__HAL_TIM_GET_IT_SOURCE(htim, TIM_IT_CC4) !=RESET)
 80020e8:	68da      	ldr	r2, [r3, #12]
 80020ea:	06d1      	lsls	r1, r2, #27
 80020ec:	d513      	bpl.n	8002116 <HAL_TIM_IRQHandler+0xd6>
    {
      __HAL_TIM_CLEAR_IT(htim, TIM_IT_CC4);
 80020ee:	f06f 0210 	mvn.w	r2, #16
 80020f2:	611a      	str	r2, [r3, #16]
      htim->Channel = HAL_TIM_ACTIVE_CHANNEL_4;
      /* Input capture event */
      if((htim->Instance->CCMR2 & TIM_CCMR2_CC4S) != 0x00)
 80020f4:	69db      	ldr	r3, [r3, #28]
  if(__HAL_TIM_GET_FLAG(htim, TIM_FLAG_CC4) != RESET)
  {
    if(__HAL_TIM_GET_IT_SOURCE(htim, TIM_IT_CC4) !=RESET)
    {
      __HAL_TIM_CLEAR_IT(htim, TIM_IT_CC4);
      htim->Channel = HAL_TIM_ACTIVE_CHANNEL_4;
 80020f6:	2208      	movs	r2, #8
      /* Input capture event */
      if((htim->Instance->CCMR2 & TIM_CCMR2_CC4S) != 0x00)
 80020f8:	f413 7f40 	tst.w	r3, #768	; 0x300
  if(__HAL_TIM_GET_FLAG(htim, TIM_FLAG_CC4) != RESET)
  {
    if(__HAL_TIM_GET_IT_SOURCE(htim, TIM_IT_CC4) !=RESET)
    {
      __HAL_TIM_CLEAR_IT(htim, TIM_IT_CC4);
      htim->Channel = HAL_TIM_ACTIVE_CHANNEL_4;
 80020fc:	7622      	strb	r2, [r4, #24]
      /* Input capture event */
      if((htim->Instance->CCMR2 & TIM_CCMR2_CC4S) != 0x00)
      {          
        HAL_TIM_IC_CaptureCallback(htim);
 80020fe:	4620      	mov	r0, r4
    if(__HAL_TIM_GET_IT_SOURCE(htim, TIM_IT_CC4) !=RESET)
    {
      __HAL_TIM_CLEAR_IT(htim, TIM_IT_CC4);
      htim->Channel = HAL_TIM_ACTIVE_CHANNEL_4;
      /* Input capture event */
      if((htim->Instance->CCMR2 & TIM_CCMR2_CC4S) != 0x00)
 8002100:	d002      	beq.n	8002108 <HAL_TIM_IRQHandler+0xc8>
      {          
        HAL_TIM_IC_CaptureCallback(htim);
 8002102:	f7ff ff9a 	bl	800203a <HAL_TIM_IC_CaptureCallback>
 8002106:	e004      	b.n	8002112 <HAL_TIM_IRQHandler+0xd2>
      }
      /* Output compare event */
      else
      {
        HAL_TIM_OC_DelayElapsedCallback(htim);
 8002108:	f7ff ff96 	bl	8002038 <HAL_TIM_OC_DelayElapsedCallback>
        HAL_TIM_PWM_PulseFinishedCallback(htim);
 800210c:	4620      	mov	r0, r4
 800210e:	f7ff ff95 	bl	800203c <HAL_TIM_PWM_PulseFinishedCallback>
      }
      htim->Channel = HAL_TIM_ACTIVE_CHANNEL_CLEARED;
 8002112:	2300      	movs	r3, #0
 8002114:	7623      	strb	r3, [r4, #24]
    }
  }
  /* TIM Update event */
  if(__HAL_TIM_GET_FLAG(htim, TIM_FLAG_UPDATE) != RESET)
 8002116:	6823      	ldr	r3, [r4, #0]
 8002118:	691a      	ldr	r2, [r3, #16]
 800211a:	07d2      	lsls	r2, r2, #31
 800211c:	d508      	bpl.n	8002130 <HAL_TIM_IRQHandler+0xf0>
  {
    if(__HAL_TIM_GET_IT_SOURCE(htim, TIM_IT_UPDATE) !=RESET)
 800211e:	68da      	ldr	r2, [r3, #12]
 8002120:	07d0      	lsls	r0, r2, #31
 8002122:	d505      	bpl.n	8002130 <HAL_TIM_IRQHandler+0xf0>
    {
      __HAL_TIM_CLEAR_IT(htim, TIM_IT_UPDATE);
 8002124:	f06f 0201 	mvn.w	r2, #1
 8002128:	611a      	str	r2, [r3, #16]
      HAL_TIM_PeriodElapsedCallback(htim);
 800212a:	4620      	mov	r0, r4
 800212c:	f7ff f8c8 	bl	80012c0 <HAL_TIM_PeriodElapsedCallback>
    }
  }
  /* TIM Break input event */
  if(__HAL_TIM_GET_FLAG(htim, TIM_FLAG_BREAK) != RESET)
 8002130:	6823      	ldr	r3, [r4, #0]
 8002132:	691a      	ldr	r2, [r3, #16]
 8002134:	0611      	lsls	r1, r2, #24
 8002136:	d508      	bpl.n	800214a <HAL_TIM_IRQHandler+0x10a>
  {
    if(__HAL_TIM_GET_IT_SOURCE(htim, TIM_IT_BREAK) !=RESET)
 8002138:	68da      	ldr	r2, [r3, #12]
 800213a:	0612      	lsls	r2, r2, #24
 800213c:	d505      	bpl.n	800214a <HAL_TIM_IRQHandler+0x10a>
    {
      __HAL_TIM_CLEAR_IT(htim, TIM_IT_BREAK);
 800213e:	f06f 0280 	mvn.w	r2, #128	; 0x80
 8002142:	611a      	str	r2, [r3, #16]
      HAL_TIMEx_BreakCallback(htim);
 8002144:	4620      	mov	r0, r4
 8002146:	f7ff ff48 	bl	8001fda <HAL_TIMEx_BreakCallback>
    }
  }
  
    /* TIM Break input event */
  if(__HAL_TIM_GET_FLAG(htim, TIM_FLAG_BREAK2) != RESET)
 800214a:	6823      	ldr	r3, [r4, #0]
 800214c:	691a      	ldr	r2, [r3, #16]
 800214e:	05d0      	lsls	r0, r2, #23
 8002150:	d508      	bpl.n	8002164 <HAL_TIM_IRQHandler+0x124>
  {
    if(__HAL_TIM_GET_IT_SOURCE(htim, TIM_IT_BREAK) !=RESET)
 8002152:	68da      	ldr	r2, [r3, #12]
 8002154:	0611      	lsls	r1, r2, #24
 8002156:	d505      	bpl.n	8002164 <HAL_TIM_IRQHandler+0x124>
    {
      __HAL_TIM_CLEAR_IT(htim, TIM_IT_BREAK);
 8002158:	f06f 0280 	mvn.w	r2, #128	; 0x80
 800215c:	611a      	str	r2, [r3, #16]
      HAL_TIMEx_BreakCallback(htim);
 800215e:	4620      	mov	r0, r4
 8002160:	f7ff ff3b 	bl	8001fda <HAL_TIMEx_BreakCallback>
    }
  }

  /* TIM Trigger detection event */
  if(__HAL_TIM_GET_FLAG(htim, TIM_FLAG_TRIGGER) != RESET)
 8002164:	6823      	ldr	r3, [r4, #0]
 8002166:	691a      	ldr	r2, [r3, #16]
 8002168:	0652      	lsls	r2, r2, #25
 800216a:	d508      	bpl.n	800217e <HAL_TIM_IRQHandler+0x13e>
  {
    if(__HAL_TIM_GET_IT_SOURCE(htim, TIM_IT_TRIGGER) !=RESET)
 800216c:	68da      	ldr	r2, [r3, #12]
 800216e:	0650      	lsls	r0, r2, #25
 8002170:	d505      	bpl.n	800217e <HAL_TIM_IRQHandler+0x13e>
    {
      __HAL_TIM_CLEAR_IT(htim, TIM_IT_TRIGGER);
 8002172:	f06f 0240 	mvn.w	r2, #64	; 0x40
 8002176:	611a      	str	r2, [r3, #16]
      HAL_TIM_TriggerCallback(htim);
 8002178:	4620      	mov	r0, r4
 800217a:	f7ff ff60 	bl	800203e <HAL_TIM_TriggerCallback>
    }
  }
  /* TIM commutation event */
  if(__HAL_TIM_GET_FLAG(htim, TIM_FLAG_COM) != RESET)
 800217e:	6823      	ldr	r3, [r4, #0]
 8002180:	691a      	ldr	r2, [r3, #16]
 8002182:	0691      	lsls	r1, r2, #26
 8002184:	d50a      	bpl.n	800219c <HAL_TIM_IRQHandler+0x15c>
  {
    if(__HAL_TIM_GET_IT_SOURCE(htim, TIM_IT_COM) !=RESET)
 8002186:	68da      	ldr	r2, [r3, #12]
 8002188:	0692      	lsls	r2, r2, #26
 800218a:	d507      	bpl.n	800219c <HAL_TIM_IRQHandler+0x15c>
    {
      __HAL_TIM_CLEAR_IT(htim, TIM_FLAG_COM);
 800218c:	f06f 0220 	mvn.w	r2, #32
      HAL_TIMEx_CommutationCallback(htim);
 8002190:	4620      	mov	r0, r4
  /* TIM commutation event */
  if(__HAL_TIM_GET_FLAG(htim, TIM_FLAG_COM) != RESET)
  {
    if(__HAL_TIM_GET_IT_SOURCE(htim, TIM_IT_COM) !=RESET)
    {
      __HAL_TIM_CLEAR_IT(htim, TIM_FLAG_COM);
 8002192:	611a      	str	r2, [r3, #16]
      HAL_TIMEx_CommutationCallback(htim);
    }
  }
}
 8002194:	e8bd 4010 	ldmia.w	sp!, {r4, lr}
  if(__HAL_TIM_GET_FLAG(htim, TIM_FLAG_COM) != RESET)
  {
    if(__HAL_TIM_GET_IT_SOURCE(htim, TIM_IT_COM) !=RESET)
    {
      __HAL_TIM_CLEAR_IT(htim, TIM_FLAG_COM);
      HAL_TIMEx_CommutationCallback(htim);
 8002198:	f7ff bf1e 	b.w	8001fd8 <HAL_TIMEx_CommutationCallback>
 800219c:	bd10      	pop	{r4, pc}
	...

080021a0 <TIM_Base_SetConfig>:
{
  uint32_t tmpcr1 = 0;
  tmpcr1 = TIMx->CR1;
  
  /* Set TIM Time Base Unit parameters ---------------------------------------*/
  if(IS_TIM_CC3_INSTANCE(TIMx) != RESET)   
 80021a0:	4a2e      	ldr	r2, [pc, #184]	; (800225c <TIM_Base_SetConfig+0xbc>)
  * @retval None
  */
void TIM_Base_SetConfig(TIM_TypeDef *TIMx, TIM_Base_InitTypeDef *Structure)
{
  uint32_t tmpcr1 = 0;
  tmpcr1 = TIMx->CR1;
 80021a2:	6803      	ldr	r3, [r0, #0]
  
  /* Set TIM Time Base Unit parameters ---------------------------------------*/
  if(IS_TIM_CC3_INSTANCE(TIMx) != RESET)   
 80021a4:	4290      	cmp	r0, r2
 80021a6:	d012      	beq.n	80021ce <TIM_Base_SetConfig+0x2e>
 80021a8:	f1b0 4f80 	cmp.w	r0, #1073741824	; 0x40000000
 80021ac:	d00f      	beq.n	80021ce <TIM_Base_SetConfig+0x2e>
 80021ae:	f5a2 427c 	sub.w	r2, r2, #64512	; 0xfc00
 80021b2:	4290      	cmp	r0, r2
 80021b4:	d00b      	beq.n	80021ce <TIM_Base_SetConfig+0x2e>
 80021b6:	f502 6280 	add.w	r2, r2, #1024	; 0x400
 80021ba:	4290      	cmp	r0, r2
 80021bc:	d007      	beq.n	80021ce <TIM_Base_SetConfig+0x2e>
 80021be:	f502 6280 	add.w	r2, r2, #1024	; 0x400
 80021c2:	4290      	cmp	r0, r2
 80021c4:	d003      	beq.n	80021ce <TIM_Base_SetConfig+0x2e>
 80021c6:	f502 4278 	add.w	r2, r2, #63488	; 0xf800
 80021ca:	4290      	cmp	r0, r2
 80021cc:	d118      	bne.n	8002200 <TIM_Base_SetConfig+0x60>
  {
    /* Select the Counter Mode */
    tmpcr1 &= ~(TIM_CR1_DIR | TIM_CR1_CMS);
    tmpcr1 |= Structure->CounterMode;
 80021ce:	684a      	ldr	r2, [r1, #4]
  
  /* Set TIM Time Base Unit parameters ---------------------------------------*/
  if(IS_TIM_CC3_INSTANCE(TIMx) != RESET)   
  {
    /* Select the Counter Mode */
    tmpcr1 &= ~(TIM_CR1_DIR | TIM_CR1_CMS);
 80021d0:	f023 0370 	bic.w	r3, r3, #112	; 0x70
    tmpcr1 |= Structure->CounterMode;
 80021d4:	4313      	orrs	r3, r2
  }
 
  if(IS_TIM_CC1_INSTANCE(TIMx) != RESET)  
 80021d6:	4a21      	ldr	r2, [pc, #132]	; (800225c <TIM_Base_SetConfig+0xbc>)
 80021d8:	4290      	cmp	r0, r2
 80021da:	d037      	beq.n	800224c <TIM_Base_SetConfig+0xac>
 80021dc:	f1b0 4f80 	cmp.w	r0, #1073741824	; 0x40000000
 80021e0:	d034      	beq.n	800224c <TIM_Base_SetConfig+0xac>
 80021e2:	4a1f      	ldr	r2, [pc, #124]	; (8002260 <TIM_Base_SetConfig+0xc0>)
 80021e4:	4290      	cmp	r0, r2
 80021e6:	d031      	beq.n	800224c <TIM_Base_SetConfig+0xac>
 80021e8:	f502 6280 	add.w	r2, r2, #1024	; 0x400
 80021ec:	4290      	cmp	r0, r2
 80021ee:	d02d      	beq.n	800224c <TIM_Base_SetConfig+0xac>
 80021f0:	f502 6280 	add.w	r2, r2, #1024	; 0x400
 80021f4:	4290      	cmp	r0, r2
 80021f6:	d029      	beq.n	800224c <TIM_Base_SetConfig+0xac>
 80021f8:	f502 4278 	add.w	r2, r2, #63488	; 0xf800
 80021fc:	4290      	cmp	r0, r2
 80021fe:	d025      	beq.n	800224c <TIM_Base_SetConfig+0xac>
 8002200:	4a18      	ldr	r2, [pc, #96]	; (8002264 <TIM_Base_SetConfig+0xc4>)
 8002202:	4290      	cmp	r0, r2
 8002204:	d022      	beq.n	800224c <TIM_Base_SetConfig+0xac>
 8002206:	f502 6280 	add.w	r2, r2, #1024	; 0x400
 800220a:	4290      	cmp	r0, r2
 800220c:	d01e      	beq.n	800224c <TIM_Base_SetConfig+0xac>
 800220e:	f502 6280 	add.w	r2, r2, #1024	; 0x400
 8002212:	4290      	cmp	r0, r2
 8002214:	d01a      	beq.n	800224c <TIM_Base_SetConfig+0xac>
 8002216:	f5a2 3298 	sub.w	r2, r2, #77824	; 0x13000
 800221a:	4290      	cmp	r0, r2
 800221c:	d016      	beq.n	800224c <TIM_Base_SetConfig+0xac>
 800221e:	f502 6280 	add.w	r2, r2, #1024	; 0x400
 8002222:	4290      	cmp	r0, r2
 8002224:	d012      	beq.n	800224c <TIM_Base_SetConfig+0xac>
 8002226:	f502 6280 	add.w	r2, r2, #1024	; 0x400
 800222a:	4290      	cmp	r0, r2
 800222c:	d00e      	beq.n	800224c <TIM_Base_SetConfig+0xac>
    /* Set the clock division */
    tmpcr1 &= ~TIM_CR1_CKD;
    tmpcr1 |= (uint32_t)Structure->ClockDivision;
  }

  TIMx->CR1 = tmpcr1;
 800222e:	6003      	str	r3, [r0, #0]

  /* Set the Auto-reload value */
  TIMx->ARR = (uint32_t)Structure->Period ;
 8002230:	688b      	ldr	r3, [r1, #8]
 8002232:	62c3      	str	r3, [r0, #44]	; 0x2c
 
  /* Set the Prescaler value */
  TIMx->PSC = (uint32_t)Structure->Prescaler;
 8002234:	680b      	ldr	r3, [r1, #0]
 8002236:	6283      	str	r3, [r0, #40]	; 0x28
    
  if(IS_TIM_ADVANCED_INSTANCE(TIMx) != RESET)  
 8002238:	4b08      	ldr	r3, [pc, #32]	; (800225c <TIM_Base_SetConfig+0xbc>)
 800223a:	4298      	cmp	r0, r3
 800223c:	d00b      	beq.n	8002256 <TIM_Base_SetConfig+0xb6>
 800223e:	f503 6380 	add.w	r3, r3, #1024	; 0x400
 8002242:	4298      	cmp	r0, r3
 8002244:	d007      	beq.n	8002256 <TIM_Base_SetConfig+0xb6>
    TIMx->RCR = Structure->RepetitionCounter;
  }

  /* Generate an update event to reload the Prescaler 
     and the repetition counter(only for TIM1 and TIM8) value immediately */
  TIMx->EGR = TIM_EGR_UG;
 8002246:	2301      	movs	r3, #1
 8002248:	6143      	str	r3, [r0, #20]
 800224a:	4770      	bx	lr
 
  if(IS_TIM_CC1_INSTANCE(TIMx) != RESET)  
  {
    /* Set the clock division */
    tmpcr1 &= ~TIM_CR1_CKD;
    tmpcr1 |= (uint32_t)Structure->ClockDivision;
 800224c:	68ca      	ldr	r2, [r1, #12]
  }
 
  if(IS_TIM_CC1_INSTANCE(TIMx) != RESET)  
  {
    /* Set the clock division */
    tmpcr1 &= ~TIM_CR1_CKD;
 800224e:	f423 7340 	bic.w	r3, r3, #768	; 0x300
    tmpcr1 |= (uint32_t)Structure->ClockDivision;
 8002252:	4313      	orrs	r3, r2
 8002254:	e7eb      	b.n	800222e <TIM_Base_SetConfig+0x8e>
  TIMx->PSC = (uint32_t)Structure->Prescaler;
    
  if(IS_TIM_ADVANCED_INSTANCE(TIMx) != RESET)  
  {
    /* Set the Repetition Counter value */
    TIMx->RCR = Structure->RepetitionCounter;
 8002256:	690b      	ldr	r3, [r1, #16]
 8002258:	6303      	str	r3, [r0, #48]	; 0x30
 800225a:	e7f4      	b.n	8002246 <TIM_Base_SetConfig+0xa6>
 800225c:	40010000 	.word	0x40010000
 8002260:	40000400 	.word	0x40000400
 8002264:	40014000 	.word	0x40014000

08002268 <HAL_TIM_Base_Init>:
  * @param  htim: pointer to a TIM_HandleTypeDef structure that contains
  *                the configuration information for TIM module.
  * @retval HAL status
  */
HAL_StatusTypeDef HAL_TIM_Base_Init(TIM_HandleTypeDef *htim)
{ 
 8002268:	b510      	push	{r4, lr}
  /* Check the TIM handle allocation */
  if(htim == NULL)
 800226a:	4604      	mov	r4, r0
 800226c:	b180      	cbz	r0, 8002290 <HAL_TIM_Base_Init+0x28>
  /* Check the parameters */
  assert_param(IS_TIM_INSTANCE(htim->Instance)); 
  assert_param(IS_TIM_COUNTER_MODE(htim->Init.CounterMode));
  assert_param(IS_TIM_CLOCKDIVISION_DIV(htim->Init.ClockDivision));
  
  if(htim->State == HAL_TIM_STATE_RESET)
 800226e:	f890 3039 	ldrb.w	r3, [r0, #57]	; 0x39
 8002272:	b90b      	cbnz	r3, 8002278 <HAL_TIM_Base_Init+0x10>
  {  
    /* Init the low level hardware : GPIO, CLOCK, NVIC */
    HAL_TIM_Base_MspInit(htim);
 8002274:	f7fe ff6a 	bl	800114c <HAL_TIM_Base_MspInit>
  }
  
  /* Set the TIM state */
  htim->State= HAL_TIM_STATE_BUSY;
 8002278:	2302      	movs	r3, #2
 800227a:	f884 3039 	strb.w	r3, [r4, #57]	; 0x39
  
  /* Set the Time Base configuration */
  TIM_Base_SetConfig(htim->Instance, &htim->Init); 
 800227e:	6820      	ldr	r0, [r4, #0]
 8002280:	1d21      	adds	r1, r4, #4
 8002282:	f7ff ff8d 	bl	80021a0 <TIM_Base_SetConfig>
  
  /* Initialize the TIM state*/
  htim->State= HAL_TIM_STATE_READY;
 8002286:	2301      	movs	r3, #1
 8002288:	f884 3039 	strb.w	r3, [r4, #57]	; 0x39
  
  return HAL_OK;
 800228c:	2000      	movs	r0, #0
 800228e:	bd10      	pop	{r4, pc}
HAL_StatusTypeDef HAL_TIM_Base_Init(TIM_HandleTypeDef *htim)
{ 
  /* Check the TIM handle allocation */
  if(htim == NULL)
  {
    return HAL_ERROR;
 8002290:	2001      	movs	r0, #1
  
  /* Initialize the TIM state*/
  htim->State= HAL_TIM_STATE_READY;
  
  return HAL_OK;
}
 8002292:	bd10      	pop	{r4, pc}

08002294 <TIM_ETR_SetConfig>:
  *          This parameter must be a value between 0x00 and 0x0F
  * @retval None
  */
void TIM_ETR_SetConfig(TIM_TypeDef* TIMx, uint32_t TIM_ExtTRGPrescaler,
                       uint32_t TIM_ExtTRGPolarity, uint32_t ExtTRGFilter)
{
 8002294:	b510      	push	{r4, lr}
  uint32_t tmpsmcr = 0;

  tmpsmcr = TIMx->SMCR;
 8002296:	6884      	ldr	r4, [r0, #8]

  /* Reset the ETR Bits */
  tmpsmcr &= ~(TIM_SMCR_ETF | TIM_SMCR_ETPS | TIM_SMCR_ECE | TIM_SMCR_ETP);
 8002298:	f424 447f 	bic.w	r4, r4, #65280	; 0xff00

  /* Set the Prescaler, the Filter value and the Polarity */
  tmpsmcr |= (uint32_t)(TIM_ExtTRGPrescaler | (TIM_ExtTRGPolarity | (ExtTRGFilter << 8)));
 800229c:	4321      	orrs	r1, r4
 800229e:	430a      	orrs	r2, r1
 80022a0:	ea42 2303 	orr.w	r3, r2, r3, lsl #8

  /* Write to TIMx SMCR */
  TIMx->SMCR = tmpsmcr;
 80022a4:	6083      	str	r3, [r0, #8]
 80022a6:	bd10      	pop	{r4, pc}

080022a8 <HAL_TIM_ConfigClockSource>:
HAL_StatusTypeDef HAL_TIM_ConfigClockSource(TIM_HandleTypeDef *htim, TIM_ClockConfigTypeDef * sClockSourceConfig)    
{
  uint32_t tmpsmcr = 0;
    
  /* Process Locked */
  __HAL_LOCK(htim);
 80022a8:	f890 2038 	ldrb.w	r2, [r0, #56]	; 0x38
 80022ac:	2a01      	cmp	r2, #1
  * @param  sClockSourceConfig: pointer to a TIM_ClockConfigTypeDef structure that
  *         contains the clock source information for the TIM peripheral. 
  * @retval HAL status
  */ 
HAL_StatusTypeDef HAL_TIM_ConfigClockSource(TIM_HandleTypeDef *htim, TIM_ClockConfigTypeDef * sClockSourceConfig)    
{
 80022ae:	b510      	push	{r4, lr}
 80022b0:	460b      	mov	r3, r1
 80022b2:	4604      	mov	r4, r0
 80022b4:	f04f 0002 	mov.w	r0, #2
  uint32_t tmpsmcr = 0;
    
  /* Process Locked */
  __HAL_LOCK(htim);
 80022b8:	f000 8083 	beq.w	80023c2 <HAL_TIM_ConfigClockSource+0x11a>
  
  htim->State = HAL_TIM_STATE_BUSY;
 80022bc:	f884 0039 	strb.w	r0, [r4, #57]	; 0x39
  
  /* Check the parameters */
  assert_param(IS_TIM_CLOCKSOURCE(sClockSourceConfig->ClockSource));
  
  /* Reset the SMS, TS, ECE, ETPS and ETRF bits */
  tmpsmcr = htim->Instance->SMCR;
 80022c0:	6820      	ldr	r0, [r4, #0]
HAL_StatusTypeDef HAL_TIM_ConfigClockSource(TIM_HandleTypeDef *htim, TIM_ClockConfigTypeDef * sClockSourceConfig)    
{
  uint32_t tmpsmcr = 0;
    
  /* Process Locked */
  __HAL_LOCK(htim);
 80022c2:	2201      	movs	r2, #1
 80022c4:	f884 2038 	strb.w	r2, [r4, #56]	; 0x38
  
  /* Check the parameters */
  assert_param(IS_TIM_CLOCKSOURCE(sClockSourceConfig->ClockSource));
  
  /* Reset the SMS, TS, ECE, ETPS and ETRF bits */
  tmpsmcr = htim->Instance->SMCR;
 80022c8:	6881      	ldr	r1, [r0, #8]
  tmpsmcr &= ~(TIM_SMCR_SMS | TIM_SMCR_TS);
  tmpsmcr &= ~(TIM_SMCR_ETF | TIM_SMCR_ETPS | TIM_SMCR_ECE | TIM_SMCR_ETP);
 80022ca:	4a3e      	ldr	r2, [pc, #248]	; (80023c4 <HAL_TIM_ConfigClockSource+0x11c>)
 80022cc:	400a      	ands	r2, r1
  htim->Instance->SMCR = tmpsmcr;
 80022ce:	6082      	str	r2, [r0, #8]
  
  switch (sClockSourceConfig->ClockSource)
 80022d0:	681a      	ldr	r2, [r3, #0]
 80022d2:	2a40      	cmp	r2, #64	; 0x40
 80022d4:	d058      	beq.n	8002388 <HAL_TIM_ConfigClockSource+0xe0>
 80022d6:	d814      	bhi.n	8002302 <HAL_TIM_ConfigClockSource+0x5a>
 80022d8:	2a10      	cmp	r2, #16
 80022da:	d060      	beq.n	800239e <HAL_TIM_ConfigClockSource+0xf6>
 80022dc:	d807      	bhi.n	80022ee <HAL_TIM_ConfigClockSource+0x46>
 80022de:	2a00      	cmp	r2, #0
 80022e0:	d169      	bne.n	80023b6 <HAL_TIM_ConfigClockSource+0x10e>
static void TIM_ITRx_SetConfig(TIM_TypeDef *TIMx, uint16_t TIM_ITRx)
{
  uint32_t tmpsmcr = 0;
  
   /* Get the TIMx SMCR register value */
   tmpsmcr = TIMx->SMCR;
 80022e2:	6883      	ldr	r3, [r0, #8]
   /* Reset the TS Bits */
   tmpsmcr &= ~TIM_SMCR_TS;
 80022e4:	f023 0370 	bic.w	r3, r3, #112	; 0x70
   /* Set the Input Trigger source and the slave mode*/
   tmpsmcr |= TIM_ITRx | TIM_SLAVEMODE_EXTERNAL1;
 80022e8:	f043 0307 	orr.w	r3, r3, #7
 80022ec:	e062      	b.n	80023b4 <HAL_TIM_ConfigClockSource+0x10c>
  tmpsmcr = htim->Instance->SMCR;
  tmpsmcr &= ~(TIM_SMCR_SMS | TIM_SMCR_TS);
  tmpsmcr &= ~(TIM_SMCR_ETF | TIM_SMCR_ETPS | TIM_SMCR_ECE | TIM_SMCR_ETP);
  htim->Instance->SMCR = tmpsmcr;
  
  switch (sClockSourceConfig->ClockSource)
 80022ee:	2a20      	cmp	r2, #32
 80022f0:	d05b      	beq.n	80023aa <HAL_TIM_ConfigClockSource+0x102>
 80022f2:	2a30      	cmp	r2, #48	; 0x30
 80022f4:	d15f      	bne.n	80023b6 <HAL_TIM_ConfigClockSource+0x10e>
static void TIM_ITRx_SetConfig(TIM_TypeDef *TIMx, uint16_t TIM_ITRx)
{
  uint32_t tmpsmcr = 0;
  
   /* Get the TIMx SMCR register value */
   tmpsmcr = TIMx->SMCR;
 80022f6:	6883      	ldr	r3, [r0, #8]
   /* Reset the TS Bits */
   tmpsmcr &= ~TIM_SMCR_TS;
 80022f8:	f023 0370 	bic.w	r3, r3, #112	; 0x70
   /* Set the Input Trigger source and the slave mode*/
   tmpsmcr |= TIM_ITRx | TIM_SLAVEMODE_EXTERNAL1;
 80022fc:	f043 0337 	orr.w	r3, r3, #55	; 0x37
 8002300:	e058      	b.n	80023b4 <HAL_TIM_ConfigClockSource+0x10c>
  tmpsmcr = htim->Instance->SMCR;
  tmpsmcr &= ~(TIM_SMCR_SMS | TIM_SMCR_TS);
  tmpsmcr &= ~(TIM_SMCR_ETF | TIM_SMCR_ETPS | TIM_SMCR_ECE | TIM_SMCR_ETP);
  htim->Instance->SMCR = tmpsmcr;
  
  switch (sClockSourceConfig->ClockSource)
 8002302:	2a70      	cmp	r2, #112	; 0x70
 8002304:	d025      	beq.n	8002352 <HAL_TIM_ConfigClockSource+0xaa>
 8002306:	d80e      	bhi.n	8002326 <HAL_TIM_ConfigClockSource+0x7e>
 8002308:	2a50      	cmp	r2, #80	; 0x50
 800230a:	d031      	beq.n	8002370 <HAL_TIM_ConfigClockSource+0xc8>
 800230c:	2a60      	cmp	r2, #96	; 0x60
 800230e:	d152      	bne.n	80023b6 <HAL_TIM_ConfigClockSource+0x10e>
      
      /* Check TI1 input conditioning related parameters */
      assert_param(IS_TIM_CLOCKPOLARITY(sClockSourceConfig->ClockPolarity));
      assert_param(IS_TIM_CLOCKFILTER(sClockSourceConfig->ClockFilter));

      TIM_TI2_ConfigInputStage(htim->Instance, 
 8002310:	68da      	ldr	r2, [r3, #12]
 8002312:	6859      	ldr	r1, [r3, #4]
 8002314:	f7ff fe73 	bl	8001ffe <TIM_TI2_ConfigInputStage>
                        sClockSourceConfig->ClockPolarity, 
                        sClockSourceConfig->ClockFilter);
      TIM_ITRx_SetConfig(htim->Instance, TIM_CLOCKSOURCE_TI2);
 8002318:	6823      	ldr	r3, [r4, #0]
static void TIM_ITRx_SetConfig(TIM_TypeDef *TIMx, uint16_t TIM_ITRx)
{
  uint32_t tmpsmcr = 0;
  
   /* Get the TIMx SMCR register value */
   tmpsmcr = TIMx->SMCR;
 800231a:	689a      	ldr	r2, [r3, #8]
   /* Reset the TS Bits */
   tmpsmcr &= ~TIM_SMCR_TS;
 800231c:	f022 0270 	bic.w	r2, r2, #112	; 0x70
   /* Set the Input Trigger source and the slave mode*/
   tmpsmcr |= TIM_ITRx | TIM_SLAVEMODE_EXTERNAL1;
 8002320:	f042 0267 	orr.w	r2, r2, #103	; 0x67
 8002324:	e02e      	b.n	8002384 <HAL_TIM_ConfigClockSource+0xdc>
  tmpsmcr = htim->Instance->SMCR;
  tmpsmcr &= ~(TIM_SMCR_SMS | TIM_SMCR_TS);
  tmpsmcr &= ~(TIM_SMCR_ETF | TIM_SMCR_ETPS | TIM_SMCR_ECE | TIM_SMCR_ETP);
  htim->Instance->SMCR = tmpsmcr;
  
  switch (sClockSourceConfig->ClockSource)
 8002326:	f5b2 5f80 	cmp.w	r2, #4096	; 0x1000
 800232a:	d00c      	beq.n	8002346 <HAL_TIM_ConfigClockSource+0x9e>
 800232c:	f5b2 5f00 	cmp.w	r2, #8192	; 0x2000
 8002330:	d141      	bne.n	80023b6 <HAL_TIM_ConfigClockSource+0x10e>
      assert_param(IS_TIM_CLOCKPOLARITY(sClockSourceConfig->ClockPolarity));
      assert_param(IS_TIM_CLOCKPRESCALER(sClockSourceConfig->ClockPrescaler));
      assert_param(IS_TIM_CLOCKFILTER(sClockSourceConfig->ClockFilter));
      
      /* Configure the ETR Clock source */
      TIM_ETR_SetConfig(htim->Instance, 
 8002332:	685a      	ldr	r2, [r3, #4]
 8002334:	6899      	ldr	r1, [r3, #8]
 8002336:	68db      	ldr	r3, [r3, #12]
 8002338:	f7ff ffac 	bl	8002294 <TIM_ETR_SetConfig>
                        sClockSourceConfig->ClockPrescaler, 
                        sClockSourceConfig->ClockPolarity,
                        sClockSourceConfig->ClockFilter);
      /* Enable the External clock mode2 */
      htim->Instance->SMCR |= TIM_SMCR_ECE;
 800233c:	6823      	ldr	r3, [r4, #0]
 800233e:	689a      	ldr	r2, [r3, #8]
 8002340:	f442 4280 	orr.w	r2, r2, #16384	; 0x4000
 8002344:	e01e      	b.n	8002384 <HAL_TIM_ConfigClockSource+0xdc>
  {
    case TIM_CLOCKSOURCE_INTERNAL:
    { 
      assert_param(IS_TIM_INSTANCE(htim->Instance));      
      /* Disable slave mode to clock the prescaler directly with the internal clock */
      htim->Instance->SMCR &= ~TIM_SMCR_SMS;
 8002346:	6883      	ldr	r3, [r0, #8]
 8002348:	f423 3380 	bic.w	r3, r3, #65536	; 0x10000
 800234c:	f023 0307 	bic.w	r3, r3, #7
 8002350:	e030      	b.n	80023b4 <HAL_TIM_ConfigClockSource+0x10c>
      assert_param(IS_TIM_ETR_INSTANCE(htim->Instance));
      assert_param(IS_TIM_CLOCKPOLARITY(sClockSourceConfig->ClockPolarity));
      assert_param(IS_TIM_CLOCKPRESCALER(sClockSourceConfig->ClockPrescaler));
      assert_param(IS_TIM_CLOCKFILTER(sClockSourceConfig->ClockFilter));
      /* Configure the ETR Clock source */
      TIM_ETR_SetConfig(htim->Instance, 
 8002352:	685a      	ldr	r2, [r3, #4]
 8002354:	6899      	ldr	r1, [r3, #8]
 8002356:	68db      	ldr	r3, [r3, #12]
 8002358:	f7ff ff9c 	bl	8002294 <TIM_ETR_SetConfig>
                        sClockSourceConfig->ClockPrescaler, 
                        sClockSourceConfig->ClockPolarity, 
                        sClockSourceConfig->ClockFilter);
      /* Get the TIMx SMCR register value */
      tmpsmcr = htim->Instance->SMCR;
 800235c:	6822      	ldr	r2, [r4, #0]
 800235e:	6893      	ldr	r3, [r2, #8]
      /* Reset the SMS and TS Bits */
      tmpsmcr &= ~(TIM_SMCR_SMS | TIM_SMCR_TS);
 8002360:	f423 3380 	bic.w	r3, r3, #65536	; 0x10000
 8002364:	f023 0377 	bic.w	r3, r3, #119	; 0x77
      /* Select the External clock mode1 and the ETRF trigger */
      tmpsmcr |= (TIM_SLAVEMODE_EXTERNAL1 | TIM_CLOCKSOURCE_ETRMODE1);
 8002368:	f043 0377 	orr.w	r3, r3, #119	; 0x77
      /* Write to TIMx SMCR */
      htim->Instance->SMCR = tmpsmcr;
 800236c:	6093      	str	r3, [r2, #8]
    }
    break;
 800236e:	e022      	b.n	80023b6 <HAL_TIM_ConfigClockSource+0x10e>
  
      /* Check TI1 input conditioning related parameters */
      assert_param(IS_TIM_CLOCKPOLARITY(sClockSourceConfig->ClockPolarity));
      assert_param(IS_TIM_CLOCKFILTER(sClockSourceConfig->ClockFilter));

      TIM_TI1_ConfigInputStage(htim->Instance, 
 8002370:	68da      	ldr	r2, [r3, #12]
 8002372:	6859      	ldr	r1, [r3, #4]
 8002374:	f7ff fe32 	bl	8001fdc <TIM_TI1_ConfigInputStage>
                        sClockSourceConfig->ClockPolarity, 
                        sClockSourceConfig->ClockFilter);
      TIM_ITRx_SetConfig(htim->Instance, TIM_CLOCKSOURCE_TI1);
 8002378:	6823      	ldr	r3, [r4, #0]
static void TIM_ITRx_SetConfig(TIM_TypeDef *TIMx, uint16_t TIM_ITRx)
{
  uint32_t tmpsmcr = 0;
  
   /* Get the TIMx SMCR register value */
   tmpsmcr = TIMx->SMCR;
 800237a:	689a      	ldr	r2, [r3, #8]
   /* Reset the TS Bits */
   tmpsmcr &= ~TIM_SMCR_TS;
 800237c:	f022 0270 	bic.w	r2, r2, #112	; 0x70
   /* Set the Input Trigger source and the slave mode*/
   tmpsmcr |= TIM_ITRx | TIM_SLAVEMODE_EXTERNAL1;
 8002380:	f042 0257 	orr.w	r2, r2, #87	; 0x57
   /* Write to TIMx SMCR */
   TIMx->SMCR = tmpsmcr;
 8002384:	609a      	str	r2, [r3, #8]
 8002386:	e016      	b.n	80023b6 <HAL_TIM_ConfigClockSource+0x10e>
      assert_param(IS_TIM_CLOCKSOURCE_TIX_INSTANCE(htim->Instance));
      /* Check TI1 input conditioning related parameters */
      assert_param(IS_TIM_CLOCKPOLARITY(sClockSourceConfig->ClockPolarity));
      assert_param(IS_TIM_CLOCKFILTER(sClockSourceConfig->ClockFilter));
  
      TIM_TI1_ConfigInputStage(htim->Instance, 
 8002388:	68da      	ldr	r2, [r3, #12]
 800238a:	6859      	ldr	r1, [r3, #4]
 800238c:	f7ff fe26 	bl	8001fdc <TIM_TI1_ConfigInputStage>
                        sClockSourceConfig->ClockPolarity,
                        sClockSourceConfig->ClockFilter);
      TIM_ITRx_SetConfig(htim->Instance, TIM_CLOCKSOURCE_TI1ED);
 8002390:	6823      	ldr	r3, [r4, #0]
static void TIM_ITRx_SetConfig(TIM_TypeDef *TIMx, uint16_t TIM_ITRx)
{
  uint32_t tmpsmcr = 0;
  
   /* Get the TIMx SMCR register value */
   tmpsmcr = TIMx->SMCR;
 8002392:	689a      	ldr	r2, [r3, #8]
   /* Reset the TS Bits */
   tmpsmcr &= ~TIM_SMCR_TS;
 8002394:	f022 0270 	bic.w	r2, r2, #112	; 0x70
   /* Set the Input Trigger source and the slave mode*/
   tmpsmcr |= TIM_ITRx | TIM_SLAVEMODE_EXTERNAL1;
 8002398:	f042 0247 	orr.w	r2, r2, #71	; 0x47
 800239c:	e7f2      	b.n	8002384 <HAL_TIM_ConfigClockSource+0xdc>
static void TIM_ITRx_SetConfig(TIM_TypeDef *TIMx, uint16_t TIM_ITRx)
{
  uint32_t tmpsmcr = 0;
  
   /* Get the TIMx SMCR register value */
   tmpsmcr = TIMx->SMCR;
 800239e:	6883      	ldr	r3, [r0, #8]
   /* Reset the TS Bits */
   tmpsmcr &= ~TIM_SMCR_TS;
 80023a0:	f023 0370 	bic.w	r3, r3, #112	; 0x70
   /* Set the Input Trigger source and the slave mode*/
   tmpsmcr |= TIM_ITRx | TIM_SLAVEMODE_EXTERNAL1;
 80023a4:	f043 0317 	orr.w	r3, r3, #23
 80023a8:	e004      	b.n	80023b4 <HAL_TIM_ConfigClockSource+0x10c>
static void TIM_ITRx_SetConfig(TIM_TypeDef *TIMx, uint16_t TIM_ITRx)
{
  uint32_t tmpsmcr = 0;
  
   /* Get the TIMx SMCR register value */
   tmpsmcr = TIMx->SMCR;
 80023aa:	6883      	ldr	r3, [r0, #8]
   /* Reset the TS Bits */
   tmpsmcr &= ~TIM_SMCR_TS;
 80023ac:	f023 0370 	bic.w	r3, r3, #112	; 0x70
   /* Set the Input Trigger source and the slave mode*/
   tmpsmcr |= TIM_ITRx | TIM_SLAVEMODE_EXTERNAL1;
 80023b0:	f043 0327 	orr.w	r3, r3, #39	; 0x27
   /* Write to TIMx SMCR */
   TIMx->SMCR = tmpsmcr;
 80023b4:	6083      	str	r3, [r0, #8]
    break;
    
    default:
    break;    
  }
  htim->State = HAL_TIM_STATE_READY;
 80023b6:	2301      	movs	r3, #1
  
  __HAL_UNLOCK(htim);
 80023b8:	2000      	movs	r0, #0
    break;
    
    default:
    break;    
  }
  htim->State = HAL_TIM_STATE_READY;
 80023ba:	f884 3039 	strb.w	r3, [r4, #57]	; 0x39
  
  __HAL_UNLOCK(htim);
 80023be:	f884 0038 	strb.w	r0, [r4, #56]	; 0x38
  
  return HAL_OK;
}
 80023c2:	bd10      	pop	{r4, pc}
 80023c4:	fffe0088 	.word	0xfffe0088

080023c8 <HAL_RCCEx_PeriphCLKConfig>:
    
  /* Check the parameters */
  assert_param(IS_RCC_PERIPHCLOCK(PeriphClkInit->PeriphClockSelection));
  
  /*----------------------------------- I2S configuration ----------------------------------*/
  if(((PeriphClkInit->PeriphClockSelection) & RCC_PERIPHCLK_I2S) == (RCC_PERIPHCLK_I2S))
 80023c8:	6803      	ldr	r3, [r0, #0]
  *         the backup registers) and RCC_BDCR register are set to their reset values.
  *
  * @retval HAL status
  */
HAL_StatusTypeDef HAL_RCCEx_PeriphCLKConfig(RCC_PeriphCLKInitTypeDef  *PeriphClkInit)
{
 80023ca:	e92d 43f7 	stmdb	sp!, {r0, r1, r2, r4, r5, r6, r7, r8, r9, lr}
    
  /* Check the parameters */
  assert_param(IS_RCC_PERIPHCLOCK(PeriphClkInit->PeriphClockSelection));
  
  /*----------------------------------- I2S configuration ----------------------------------*/
  if(((PeriphClkInit->PeriphClockSelection) & RCC_PERIPHCLK_I2S) == (RCC_PERIPHCLK_I2S))
 80023ce:	f013 0601 	ands.w	r6, r3, #1
  *         the backup registers) and RCC_BDCR register are set to their reset values.
  *
  * @retval HAL status
  */
HAL_StatusTypeDef HAL_RCCEx_PeriphCLKConfig(RCC_PeriphCLKInitTypeDef  *PeriphClkInit)
{
 80023d2:	4604      	mov	r4, r0
    
  /* Check the parameters */
  assert_param(IS_RCC_PERIPHCLOCK(PeriphClkInit->PeriphClockSelection));
  
  /*----------------------------------- I2S configuration ----------------------------------*/
  if(((PeriphClkInit->PeriphClockSelection) & RCC_PERIPHCLK_I2S) == (RCC_PERIPHCLK_I2S))
 80023d4:	d00c      	beq.n	80023f0 <HAL_RCCEx_PeriphCLKConfig+0x28>
  {
    /* Check the parameters */
    assert_param(IS_RCC_I2SCLKSOURCE(PeriphClkInit->I2sClockSelection));
    
    /* Configure I2S Clock source */
    __HAL_RCC_I2S_CONFIG(PeriphClkInit->I2sClockSelection);
 80023d6:	4ab5      	ldr	r2, [pc, #724]	; (80026ac <HAL_RCCEx_PeriphCLKConfig+0x2e4>)
 80023d8:	6891      	ldr	r1, [r2, #8]
 80023da:	f421 0100 	bic.w	r1, r1, #8388608	; 0x800000
 80023de:	6091      	str	r1, [r2, #8]
 80023e0:	6b46      	ldr	r6, [r0, #52]	; 0x34
 80023e2:	6891      	ldr	r1, [r2, #8]
 80023e4:	4331      	orrs	r1, r6
    
    /* Enable the PLLI2S when it's used as clock source for I2S */
    if(PeriphClkInit->I2sClockSelection == RCC_I2SCLKSOURCE_PLLI2S)
 80023e6:	f1d6 0601 	rsbs	r6, r6, #1
  {
    /* Check the parameters */
    assert_param(IS_RCC_I2SCLKSOURCE(PeriphClkInit->I2sClockSelection));
    
    /* Configure I2S Clock source */
    __HAL_RCC_I2S_CONFIG(PeriphClkInit->I2sClockSelection);
 80023ea:	6091      	str	r1, [r2, #8]
    
    /* Enable the PLLI2S when it's used as clock source for I2S */
    if(PeriphClkInit->I2sClockSelection == RCC_I2SCLKSOURCE_PLLI2S)
 80023ec:	bf38      	it	cc
 80023ee:	2600      	movcc	r6, #0
      plli2sused = 1; 
    }
  }
  
  /*------------------------------------ SAI1 configuration --------------------------------------*/
  if(((PeriphClkInit->PeriphClockSelection) & RCC_PERIPHCLK_SAI1) == (RCC_PERIPHCLK_SAI1))
 80023f0:	f413 2500 	ands.w	r5, r3, #524288	; 0x80000
 80023f4:	d012      	beq.n	800241c <HAL_RCCEx_PeriphCLKConfig+0x54>
  {
    /* Check the parameters */
    assert_param(IS_RCC_SAI1CLKSOURCE(PeriphClkInit->Sai1ClockSelection));
    
    /* Configure SAI1 Clock source */
    __HAL_RCC_SAI1_CONFIG(PeriphClkInit->Sai1ClockSelection);
 80023f6:	4aad      	ldr	r2, [pc, #692]	; (80026ac <HAL_RCCEx_PeriphCLKConfig+0x2e4>)
 80023f8:	6be5      	ldr	r5, [r4, #60]	; 0x3c
 80023fa:	f8d2 108c 	ldr.w	r1, [r2, #140]	; 0x8c
 80023fe:	f421 1140 	bic.w	r1, r1, #3145728	; 0x300000
 8002402:	4329      	orrs	r1, r5
    /* Enable the PLLI2S when it's used as clock source for SAI */
    if(PeriphClkInit->Sai1ClockSelection == RCC_SAI1CLKSOURCE_PLLI2S)
 8002404:	f5b5 1f80 	cmp.w	r5, #1048576	; 0x100000
  {
    /* Check the parameters */
    assert_param(IS_RCC_SAI1CLKSOURCE(PeriphClkInit->Sai1ClockSelection));
    
    /* Configure SAI1 Clock source */
    __HAL_RCC_SAI1_CONFIG(PeriphClkInit->Sai1ClockSelection);
 8002408:	f8c2 108c 	str.w	r1, [r2, #140]	; 0x8c
    /* Enable the PLLI2S when it's used as clock source for SAI */
    if(PeriphClkInit->Sai1ClockSelection == RCC_SAI1CLKSOURCE_PLLI2S)
 800240c:	d004      	beq.n	8002418 <HAL_RCCEx_PeriphCLKConfig+0x50>
    {
      plli2sused = 1; 
    }
    /* Enable the PLLSAI when it's used as clock source for SAI */
    if(PeriphClkInit->Sai1ClockSelection == RCC_SAI1CLKSOURCE_PLLSAI)
 800240e:	f1d5 0501 	rsbs	r5, r5, #1
 8002412:	bf38      	it	cc
 8002414:	2500      	movcc	r5, #0
 8002416:	e001      	b.n	800241c <HAL_RCCEx_PeriphCLKConfig+0x54>
{
  uint32_t tickstart = 0;
  uint32_t tmpreg0 = 0;
  uint32_t tmpreg1 = 0;
  uint32_t plli2sused = 0;
  uint32_t pllsaiused = 0;
 8002418:	2500      	movs	r5, #0
    /* Configure SAI1 Clock source */
    __HAL_RCC_SAI1_CONFIG(PeriphClkInit->Sai1ClockSelection);
    /* Enable the PLLI2S when it's used as clock source for SAI */
    if(PeriphClkInit->Sai1ClockSelection == RCC_SAI1CLKSOURCE_PLLI2S)
    {
      plli2sused = 1; 
 800241a:	2601      	movs	r6, #1
      pllsaiused = 1; 
    }
  }
  
  /*------------------------------------ SAI2 configuration --------------------------------------*/
  if(((PeriphClkInit->PeriphClockSelection) & RCC_PERIPHCLK_SAI2) == (RCC_PERIPHCLK_SAI2))
 800241c:	02d9      	lsls	r1, r3, #11
 800241e:	d510      	bpl.n	8002442 <HAL_RCCEx_PeriphCLKConfig+0x7a>
  {
    /* Check the parameters */
    assert_param(IS_RCC_SAI2CLKSOURCE(PeriphClkInit->Sai2ClockSelection));
    
    /* Configure SAI2 Clock source */
    __HAL_RCC_SAI2_CONFIG(PeriphClkInit->Sai2ClockSelection);
 8002420:	49a2      	ldr	r1, [pc, #648]	; (80026ac <HAL_RCCEx_PeriphCLKConfig+0x2e4>)
 8002422:	6c22      	ldr	r2, [r4, #64]	; 0x40
 8002424:	f8d1 008c 	ldr.w	r0, [r1, #140]	; 0x8c
 8002428:	f420 0040 	bic.w	r0, r0, #12582912	; 0xc00000
 800242c:	4310      	orrs	r0, r2
    
    /* Enable the PLLI2S when it's used as clock source for SAI */
    if(PeriphClkInit->Sai2ClockSelection == RCC_SAI2CLKSOURCE_PLLI2S)
 800242e:	f5b2 0f80 	cmp.w	r2, #4194304	; 0x400000
  {
    /* Check the parameters */
    assert_param(IS_RCC_SAI2CLKSOURCE(PeriphClkInit->Sai2ClockSelection));
    
    /* Configure SAI2 Clock source */
    __HAL_RCC_SAI2_CONFIG(PeriphClkInit->Sai2ClockSelection);
 8002432:	f8c1 008c 	str.w	r0, [r1, #140]	; 0x8c
    
    /* Enable the PLLI2S when it's used as clock source for SAI */
    if(PeriphClkInit->Sai2ClockSelection == RCC_SAI2CLKSOURCE_PLLI2S)
 8002436:	d003      	beq.n	8002440 <HAL_RCCEx_PeriphCLKConfig+0x78>
      plli2sused = 1; 
    }
    /* Enable the PLLSAI when it's used as clock source for SAI */
    if(PeriphClkInit->Sai2ClockSelection == RCC_SAI2CLKSOURCE_PLLSAI)
    {
      pllsaiused = 1; 
 8002438:	2a00      	cmp	r2, #0
 800243a:	bf08      	it	eq
 800243c:	2501      	moveq	r5, #1
 800243e:	e000      	b.n	8002442 <HAL_RCCEx_PeriphCLKConfig+0x7a>
    __HAL_RCC_SAI2_CONFIG(PeriphClkInit->Sai2ClockSelection);
    
    /* Enable the PLLI2S when it's used as clock source for SAI */
    if(PeriphClkInit->Sai2ClockSelection == RCC_SAI2CLKSOURCE_PLLI2S)
    {
      plli2sused = 1; 
 8002440:	2601      	movs	r6, #1
  }
  
  /*-------------------------------------- SPDIF-RX Configuration -----------------------------------*/
  if(((PeriphClkInit->PeriphClockSelection) & RCC_PERIPHCLK_SPDIFRX) == RCC_PERIPHCLK_SPDIFRX)
  {    
      plli2sused = 1; 
 8002442:	f013 7f80 	tst.w	r3, #16777216	; 0x1000000
 8002446:	bf18      	it	ne
 8002448:	2601      	movne	r6, #1
  }  
  
  /*------------------------------------ RTC configuration --------------------------------------*/
  if(((PeriphClkInit->PeriphClockSelection) & RCC_PERIPHCLK_RTC) == (RCC_PERIPHCLK_RTC))
 800244a:	069a      	lsls	r2, r3, #26
 800244c:	d55b      	bpl.n	8002506 <HAL_RCCEx_PeriphCLKConfig+0x13e>
  {
    /* Enable Power Clock*/
    __HAL_RCC_PWR_CLK_ENABLE();
 800244e:	2300      	movs	r3, #0
 8002450:	9301      	str	r3, [sp, #4]
 8002452:	4b96      	ldr	r3, [pc, #600]	; (80026ac <HAL_RCCEx_PeriphCLKConfig+0x2e4>)
 8002454:	6c1a      	ldr	r2, [r3, #64]	; 0x40
 8002456:	f042 5280 	orr.w	r2, r2, #268435456	; 0x10000000
 800245a:	641a      	str	r2, [r3, #64]	; 0x40
 800245c:	6c1b      	ldr	r3, [r3, #64]	; 0x40
 800245e:	f003 5380 	and.w	r3, r3, #268435456	; 0x10000000
 8002462:	9301      	str	r3, [sp, #4]
 8002464:	9b01      	ldr	r3, [sp, #4]
      
    /* Enable write access to Backup domain */
    PWR->CR1 |= PWR_CR1_DBP;
 8002466:	4b92      	ldr	r3, [pc, #584]	; (80026b0 <HAL_RCCEx_PeriphCLKConfig+0x2e8>)
 8002468:	681a      	ldr	r2, [r3, #0]
 800246a:	f442 7280 	orr.w	r2, r2, #256	; 0x100
 800246e:	601a      	str	r2, [r3, #0]
      
    /* Get Start Tick*/
    tickstart = HAL_GetTick();
 8002470:	f001 f872 	bl	8003558 <HAL_GetTick>
 8002474:	4607      	mov	r7, r0
      
    /* Wait for Backup domain Write protection disable */
    while((PWR->CR1 & PWR_CR1_DBP) == RESET)
 8002476:	4b8e      	ldr	r3, [pc, #568]	; (80026b0 <HAL_RCCEx_PeriphCLKConfig+0x2e8>)
 8002478:	681b      	ldr	r3, [r3, #0]
 800247a:	05db      	lsls	r3, r3, #23
 800247c:	d406      	bmi.n	800248c <HAL_RCCEx_PeriphCLKConfig+0xc4>
    {
      if((HAL_GetTick() - tickstart) > RCC_DBP_TIMEOUT_VALUE)
 800247e:	f001 f86b 	bl	8003558 <HAL_GetTick>
 8002482:	1bc0      	subs	r0, r0, r7
 8002484:	2864      	cmp	r0, #100	; 0x64
 8002486:	d9f6      	bls.n	8002476 <HAL_RCCEx_PeriphCLKConfig+0xae>
      {
        return HAL_TIMEOUT;
 8002488:	2003      	movs	r0, #3
 800248a:	e346      	b.n	8002b1a <HAL_RCCEx_PeriphCLKConfig+0x752>
      }      
    }
    /* Reset the Backup domain only if the RTC Clock source selection is modified */ 
    if((RCC->BDCR & RCC_BDCR_RTCSEL) != (PeriphClkInit->RTCClockSelection & RCC_BDCR_RTCSEL))
 800248c:	4b87      	ldr	r3, [pc, #540]	; (80026ac <HAL_RCCEx_PeriphCLKConfig+0x2e4>)
 800248e:	6b22      	ldr	r2, [r4, #48]	; 0x30
 8002490:	6f19      	ldr	r1, [r3, #112]	; 0x70
 8002492:	404a      	eors	r2, r1
 8002494:	f412 7f40 	tst.w	r2, #768	; 0x300
 8002498:	d035      	beq.n	8002506 <HAL_RCCEx_PeriphCLKConfig+0x13e>
    {
      /* Store the content of BDCR register before the reset of Backup Domain */
      tmpreg0 = (RCC->BDCR & ~(RCC_BDCR_RTCSEL));
 800249a:	6f1a      	ldr	r2, [r3, #112]	; 0x70
      
      /* RTC Clock selection can be changed only if the Backup Domain is reset */
      __HAL_RCC_BACKUPRESET_FORCE();
 800249c:	6f18      	ldr	r0, [r3, #112]	; 0x70
 800249e:	f440 3080 	orr.w	r0, r0, #65536	; 0x10000
 80024a2:	6718      	str	r0, [r3, #112]	; 0x70
      __HAL_RCC_BACKUPRESET_RELEASE();
 80024a4:	6f18      	ldr	r0, [r3, #112]	; 0x70
 80024a6:	f420 3080 	bic.w	r0, r0, #65536	; 0x10000
 80024aa:	6718      	str	r0, [r3, #112]	; 0x70
    }
    /* Reset the Backup domain only if the RTC Clock source selection is modified */ 
    if((RCC->BDCR & RCC_BDCR_RTCSEL) != (PeriphClkInit->RTCClockSelection & RCC_BDCR_RTCSEL))
    {
      /* Store the content of BDCR register before the reset of Backup Domain */
      tmpreg0 = (RCC->BDCR & ~(RCC_BDCR_RTCSEL));
 80024ac:	f422 7140 	bic.w	r1, r2, #768	; 0x300
      
      /* Restore the Content of BDCR register */
      RCC->BDCR = tmpreg0;
      
      /* If LSE is selected as RTC clock source, wait for LSE reactivation */
      if (HAL_IS_BIT_SET(tmpreg0, RCC_BDCR_LSERDY))
 80024b0:	0790      	lsls	r0, r2, #30
      /* RTC Clock selection can be changed only if the Backup Domain is reset */
      __HAL_RCC_BACKUPRESET_FORCE();
      __HAL_RCC_BACKUPRESET_RELEASE();
      
      /* Restore the Content of BDCR register */
      RCC->BDCR = tmpreg0;
 80024b2:	6719      	str	r1, [r3, #112]	; 0x70
      
      /* If LSE is selected as RTC clock source, wait for LSE reactivation */
      if (HAL_IS_BIT_SET(tmpreg0, RCC_BDCR_LSERDY))
 80024b4:	d40f      	bmi.n	80024d6 <HAL_RCCEx_PeriphCLKConfig+0x10e>
          {
            return HAL_TIMEOUT;
          }
        }
      }
      __HAL_RCC_RTC_CONFIG(PeriphClkInit->RTCClockSelection); 			
 80024b6:	6b22      	ldr	r2, [r4, #48]	; 0x30
 80024b8:	f402 7340 	and.w	r3, r2, #768	; 0x300
 80024bc:	f5b3 7f40 	cmp.w	r3, #768	; 0x300
 80024c0:	4b7a      	ldr	r3, [pc, #488]	; (80026ac <HAL_RCCEx_PeriphCLKConfig+0x2e4>)
 80024c2:	d117      	bne.n	80024f4 <HAL_RCCEx_PeriphCLKConfig+0x12c>
 80024c4:	6898      	ldr	r0, [r3, #8]
 80024c6:	f022 4170 	bic.w	r1, r2, #4026531840	; 0xf0000000
 80024ca:	f421 7140 	bic.w	r1, r1, #768	; 0x300
 80024ce:	f420 10f8 	bic.w	r0, r0, #2031616	; 0x1f0000
 80024d2:	4301      	orrs	r1, r0
 80024d4:	e011      	b.n	80024fa <HAL_RCCEx_PeriphCLKConfig+0x132>
      
      /* If LSE is selected as RTC clock source, wait for LSE reactivation */
      if (HAL_IS_BIT_SET(tmpreg0, RCC_BDCR_LSERDY))
      {
        /* Get Start Tick*/
        tickstart = HAL_GetTick();
 80024d6:	f001 f83f 	bl	8003558 <HAL_GetTick>
 80024da:	4607      	mov	r7, r0
        
        /* Wait till LSE is ready */  
        while(__HAL_RCC_GET_FLAG(RCC_FLAG_LSERDY) == RESET)
 80024dc:	4b73      	ldr	r3, [pc, #460]	; (80026ac <HAL_RCCEx_PeriphCLKConfig+0x2e4>)
 80024de:	6f1b      	ldr	r3, [r3, #112]	; 0x70
 80024e0:	0799      	lsls	r1, r3, #30
 80024e2:	d4e8      	bmi.n	80024b6 <HAL_RCCEx_PeriphCLKConfig+0xee>
        {
          if((HAL_GetTick() - tickstart ) > RCC_LSE_TIMEOUT_VALUE)
 80024e4:	f001 f838 	bl	8003558 <HAL_GetTick>
 80024e8:	f241 3388 	movw	r3, #5000	; 0x1388
 80024ec:	1bc0      	subs	r0, r0, r7
 80024ee:	4298      	cmp	r0, r3
 80024f0:	d9f4      	bls.n	80024dc <HAL_RCCEx_PeriphCLKConfig+0x114>
 80024f2:	e7c9      	b.n	8002488 <HAL_RCCEx_PeriphCLKConfig+0xc0>
          {
            return HAL_TIMEOUT;
          }
        }
      }
      __HAL_RCC_RTC_CONFIG(PeriphClkInit->RTCClockSelection); 			
 80024f4:	6899      	ldr	r1, [r3, #8]
 80024f6:	f421 11f8 	bic.w	r1, r1, #2031616	; 0x1f0000
 80024fa:	6099      	str	r1, [r3, #8]
 80024fc:	6f19      	ldr	r1, [r3, #112]	; 0x70
 80024fe:	f3c2 020b 	ubfx	r2, r2, #0, #12
 8002502:	430a      	orrs	r2, r1
 8002504:	671a      	str	r2, [r3, #112]	; 0x70
    }
  }

  /*------------------------------------ TIM configuration --------------------------------------*/
  if(((PeriphClkInit->PeriphClockSelection) & RCC_PERIPHCLK_TIM) == (RCC_PERIPHCLK_TIM))
 8002506:	6823      	ldr	r3, [r4, #0]
 8002508:	06da      	lsls	r2, r3, #27
 800250a:	d50c      	bpl.n	8002526 <HAL_RCCEx_PeriphCLKConfig+0x15e>
  {
    /* Check the parameters */
    assert_param(IS_RCC_TIMPRES(PeriphClkInit->TIMPresSelection));
    
    /* Configure Timer Prescaler */
    __HAL_RCC_TIMCLKPRESCALER(PeriphClkInit->TIMPresSelection);
 800250c:	4a67      	ldr	r2, [pc, #412]	; (80026ac <HAL_RCCEx_PeriphCLKConfig+0x2e4>)
 800250e:	f8d2 108c 	ldr.w	r1, [r2, #140]	; 0x8c
 8002512:	f021 7180 	bic.w	r1, r1, #16777216	; 0x1000000
 8002516:	f8c2 108c 	str.w	r1, [r2, #140]	; 0x8c
 800251a:	f8d2 008c 	ldr.w	r0, [r2, #140]	; 0x8c
 800251e:	6ba1      	ldr	r1, [r4, #56]	; 0x38
 8002520:	4301      	orrs	r1, r0
 8002522:	f8c2 108c 	str.w	r1, [r2, #140]	; 0x8c
  }
  
  /*-------------------------------------- I2C1 Configuration -----------------------------------*/
  if(((PeriphClkInit->PeriphClockSelection) & RCC_PERIPHCLK_I2C1) == RCC_PERIPHCLK_I2C1)
 8002526:	045f      	lsls	r7, r3, #17
 8002528:	d508      	bpl.n	800253c <HAL_RCCEx_PeriphCLKConfig+0x174>
  {
    /* Check the parameters */
    assert_param(IS_RCC_I2C1CLKSOURCE(PeriphClkInit->I2c1ClockSelection));
    
    /* Configure the I2C1 clock source */
    __HAL_RCC_I2C1_CONFIG(PeriphClkInit->I2c1ClockSelection);
 800252a:	4a60      	ldr	r2, [pc, #384]	; (80026ac <HAL_RCCEx_PeriphCLKConfig+0x2e4>)
 800252c:	6e61      	ldr	r1, [r4, #100]	; 0x64
 800252e:	f8d2 0090 	ldr.w	r0, [r2, #144]	; 0x90
 8002532:	f420 3040 	bic.w	r0, r0, #196608	; 0x30000
 8002536:	4301      	orrs	r1, r0
 8002538:	f8c2 1090 	str.w	r1, [r2, #144]	; 0x90
  }
  
  /*-------------------------------------- I2C2 Configuration -----------------------------------*/
  if(((PeriphClkInit->PeriphClockSelection) & RCC_PERIPHCLK_I2C2) == RCC_PERIPHCLK_I2C2)
 800253c:	0418      	lsls	r0, r3, #16
 800253e:	d508      	bpl.n	8002552 <HAL_RCCEx_PeriphCLKConfig+0x18a>
  {
    /* Check the parameters */
    assert_param(IS_RCC_I2C2CLKSOURCE(PeriphClkInit->I2c2ClockSelection));
    
    /* Configure the I2C2 clock source */
    __HAL_RCC_I2C2_CONFIG(PeriphClkInit->I2c2ClockSelection);
 8002540:	4a5a      	ldr	r2, [pc, #360]	; (80026ac <HAL_RCCEx_PeriphCLKConfig+0x2e4>)
 8002542:	6ea1      	ldr	r1, [r4, #104]	; 0x68
 8002544:	f8d2 0090 	ldr.w	r0, [r2, #144]	; 0x90
 8002548:	f420 2040 	bic.w	r0, r0, #786432	; 0xc0000
 800254c:	4301      	orrs	r1, r0
 800254e:	f8c2 1090 	str.w	r1, [r2, #144]	; 0x90
  }
  
  /*-------------------------------------- I2C3 Configuration -----------------------------------*/
  if(((PeriphClkInit->PeriphClockSelection) & RCC_PERIPHCLK_I2C3) == RCC_PERIPHCLK_I2C3)
 8002552:	03d9      	lsls	r1, r3, #15
 8002554:	d508      	bpl.n	8002568 <HAL_RCCEx_PeriphCLKConfig+0x1a0>
  {
    /* Check the parameters */
    assert_param(IS_RCC_I2C3CLKSOURCE(PeriphClkInit->I2c3ClockSelection));
    
    /* Configure the I2C3 clock source */
    __HAL_RCC_I2C3_CONFIG(PeriphClkInit->I2c3ClockSelection);
 8002556:	4a55      	ldr	r2, [pc, #340]	; (80026ac <HAL_RCCEx_PeriphCLKConfig+0x2e4>)
 8002558:	6ee1      	ldr	r1, [r4, #108]	; 0x6c
 800255a:	f8d2 0090 	ldr.w	r0, [r2, #144]	; 0x90
 800255e:	f420 1040 	bic.w	r0, r0, #3145728	; 0x300000
 8002562:	4301      	orrs	r1, r0
 8002564:	f8c2 1090 	str.w	r1, [r2, #144]	; 0x90
  }
    
  /*-------------------------------------- I2C4 Configuration -----------------------------------*/
  if(((PeriphClkInit->PeriphClockSelection) & RCC_PERIPHCLK_I2C4) == RCC_PERIPHCLK_I2C4)
 8002568:	039a      	lsls	r2, r3, #14
 800256a:	d508      	bpl.n	800257e <HAL_RCCEx_PeriphCLKConfig+0x1b6>
  {
    /* Check the parameters */
    assert_param(IS_RCC_I2C4CLKSOURCE(PeriphClkInit->I2c4ClockSelection));
    
    /* Configure the I2C4 clock source */
    __HAL_RCC_I2C4_CONFIG(PeriphClkInit->I2c4ClockSelection);
 800256c:	4a4f      	ldr	r2, [pc, #316]	; (80026ac <HAL_RCCEx_PeriphCLKConfig+0x2e4>)
 800256e:	6f21      	ldr	r1, [r4, #112]	; 0x70
 8002570:	f8d2 0090 	ldr.w	r0, [r2, #144]	; 0x90
 8002574:	f420 0040 	bic.w	r0, r0, #12582912	; 0xc00000
 8002578:	4301      	orrs	r1, r0
 800257a:	f8c2 1090 	str.w	r1, [r2, #144]	; 0x90
  }

  /*-------------------------------------- USART1 Configuration -----------------------------------*/
  if(((PeriphClkInit->PeriphClockSelection) & RCC_PERIPHCLK_USART1) == RCC_PERIPHCLK_USART1)
 800257e:	065f      	lsls	r7, r3, #25
 8002580:	d508      	bpl.n	8002594 <HAL_RCCEx_PeriphCLKConfig+0x1cc>
  {
    /* Check the parameters */
    assert_param(IS_RCC_USART1CLKSOURCE(PeriphClkInit->Usart1ClockSelection));
    
    /* Configure the USART1 clock source */
    __HAL_RCC_USART1_CONFIG(PeriphClkInit->Usart1ClockSelection);
 8002582:	4a4a      	ldr	r2, [pc, #296]	; (80026ac <HAL_RCCEx_PeriphCLKConfig+0x2e4>)
 8002584:	6c61      	ldr	r1, [r4, #68]	; 0x44
 8002586:	f8d2 0090 	ldr.w	r0, [r2, #144]	; 0x90
 800258a:	f020 0003 	bic.w	r0, r0, #3
 800258e:	4301      	orrs	r1, r0
 8002590:	f8c2 1090 	str.w	r1, [r2, #144]	; 0x90
  }

  /*-------------------------------------- USART2 Configuration -----------------------------------*/
  if(((PeriphClkInit->PeriphClockSelection) & RCC_PERIPHCLK_USART2) == RCC_PERIPHCLK_USART2)
 8002594:	0618      	lsls	r0, r3, #24
 8002596:	d508      	bpl.n	80025aa <HAL_RCCEx_PeriphCLKConfig+0x1e2>
  {
    /* Check the parameters */
    assert_param(IS_RCC_USART2CLKSOURCE(PeriphClkInit->Usart2ClockSelection));
    
    /* Configure the USART2 clock source */
    __HAL_RCC_USART2_CONFIG(PeriphClkInit->Usart2ClockSelection);
 8002598:	4a44      	ldr	r2, [pc, #272]	; (80026ac <HAL_RCCEx_PeriphCLKConfig+0x2e4>)
 800259a:	6ca1      	ldr	r1, [r4, #72]	; 0x48
 800259c:	f8d2 0090 	ldr.w	r0, [r2, #144]	; 0x90
 80025a0:	f020 000c 	bic.w	r0, r0, #12
 80025a4:	4301      	orrs	r1, r0
 80025a6:	f8c2 1090 	str.w	r1, [r2, #144]	; 0x90
  }

  /*-------------------------------------- USART3 Configuration -----------------------------------*/
  if(((PeriphClkInit->PeriphClockSelection) & RCC_PERIPHCLK_USART3) == RCC_PERIPHCLK_USART3)
 80025aa:	05d9      	lsls	r1, r3, #23
 80025ac:	d508      	bpl.n	80025c0 <HAL_RCCEx_PeriphCLKConfig+0x1f8>
  {
    /* Check the parameters */
    assert_param(IS_RCC_USART3CLKSOURCE(PeriphClkInit->Usart3ClockSelection));
    
    /* Configure the USART3 clock source */
    __HAL_RCC_USART3_CONFIG(PeriphClkInit->Usart3ClockSelection);
 80025ae:	4a3f      	ldr	r2, [pc, #252]	; (80026ac <HAL_RCCEx_PeriphCLKConfig+0x2e4>)
 80025b0:	6ce1      	ldr	r1, [r4, #76]	; 0x4c
 80025b2:	f8d2 0090 	ldr.w	r0, [r2, #144]	; 0x90
 80025b6:	f020 0030 	bic.w	r0, r0, #48	; 0x30
 80025ba:	4301      	orrs	r1, r0
 80025bc:	f8c2 1090 	str.w	r1, [r2, #144]	; 0x90
  }

  /*-------------------------------------- UART4 Configuration -----------------------------------*/
  if(((PeriphClkInit->PeriphClockSelection) & RCC_PERIPHCLK_UART4) == RCC_PERIPHCLK_UART4)
 80025c0:	059a      	lsls	r2, r3, #22
 80025c2:	d508      	bpl.n	80025d6 <HAL_RCCEx_PeriphCLKConfig+0x20e>
  {
    /* Check the parameters */
    assert_param(IS_RCC_UART4CLKSOURCE(PeriphClkInit->Uart4ClockSelection));
    
    /* Configure the UART4 clock source */
    __HAL_RCC_UART4_CONFIG(PeriphClkInit->Uart4ClockSelection);
 80025c4:	4a39      	ldr	r2, [pc, #228]	; (80026ac <HAL_RCCEx_PeriphCLKConfig+0x2e4>)
 80025c6:	6d21      	ldr	r1, [r4, #80]	; 0x50
 80025c8:	f8d2 0090 	ldr.w	r0, [r2, #144]	; 0x90
 80025cc:	f020 00c0 	bic.w	r0, r0, #192	; 0xc0
 80025d0:	4301      	orrs	r1, r0
 80025d2:	f8c2 1090 	str.w	r1, [r2, #144]	; 0x90
  }

  /*-------------------------------------- UART5 Configuration -----------------------------------*/
  if(((PeriphClkInit->PeriphClockSelection) & RCC_PERIPHCLK_UART5) == RCC_PERIPHCLK_UART5)
 80025d6:	055f      	lsls	r7, r3, #21
 80025d8:	d508      	bpl.n	80025ec <HAL_RCCEx_PeriphCLKConfig+0x224>
  {
    /* Check the parameters */
    assert_param(IS_RCC_UART5CLKSOURCE(PeriphClkInit->Uart5ClockSelection));
    
    /* Configure the UART5 clock source */
    __HAL_RCC_UART5_CONFIG(PeriphClkInit->Uart5ClockSelection);
 80025da:	4a34      	ldr	r2, [pc, #208]	; (80026ac <HAL_RCCEx_PeriphCLKConfig+0x2e4>)
 80025dc:	6d61      	ldr	r1, [r4, #84]	; 0x54
 80025de:	f8d2 0090 	ldr.w	r0, [r2, #144]	; 0x90
 80025e2:	f420 7040 	bic.w	r0, r0, #768	; 0x300
 80025e6:	4301      	orrs	r1, r0
 80025e8:	f8c2 1090 	str.w	r1, [r2, #144]	; 0x90
  }

  /*-------------------------------------- USART6 Configuration -----------------------------------*/
  if(((PeriphClkInit->PeriphClockSelection) & RCC_PERIPHCLK_USART6) == RCC_PERIPHCLK_USART6)
 80025ec:	0518      	lsls	r0, r3, #20
 80025ee:	d508      	bpl.n	8002602 <HAL_RCCEx_PeriphCLKConfig+0x23a>
  {
    /* Check the parameters */
    assert_param(IS_RCC_USART6CLKSOURCE(PeriphClkInit->Usart6ClockSelection));
    
    /* Configure the USART6 clock source */
    __HAL_RCC_USART6_CONFIG(PeriphClkInit->Usart6ClockSelection);
 80025f0:	4a2e      	ldr	r2, [pc, #184]	; (80026ac <HAL_RCCEx_PeriphCLKConfig+0x2e4>)
 80025f2:	6da1      	ldr	r1, [r4, #88]	; 0x58
 80025f4:	f8d2 0090 	ldr.w	r0, [r2, #144]	; 0x90
 80025f8:	f420 6040 	bic.w	r0, r0, #3072	; 0xc00
 80025fc:	4301      	orrs	r1, r0
 80025fe:	f8c2 1090 	str.w	r1, [r2, #144]	; 0x90
  }

  /*-------------------------------------- UART7 Configuration -----------------------------------*/
  if(((PeriphClkInit->PeriphClockSelection) & RCC_PERIPHCLK_UART7) == RCC_PERIPHCLK_UART7)
 8002602:	04d9      	lsls	r1, r3, #19
 8002604:	d508      	bpl.n	8002618 <HAL_RCCEx_PeriphCLKConfig+0x250>
  {
    /* Check the parameters */
    assert_param(IS_RCC_UART7CLKSOURCE(PeriphClkInit->Uart7ClockSelection));
    
    /* Configure the UART7 clock source */
    __HAL_RCC_UART7_CONFIG(PeriphClkInit->Uart7ClockSelection);
 8002606:	4a29      	ldr	r2, [pc, #164]	; (80026ac <HAL_RCCEx_PeriphCLKConfig+0x2e4>)
 8002608:	6de1      	ldr	r1, [r4, #92]	; 0x5c
 800260a:	f8d2 0090 	ldr.w	r0, [r2, #144]	; 0x90
 800260e:	f420 5040 	bic.w	r0, r0, #12288	; 0x3000
 8002612:	4301      	orrs	r1, r0
 8002614:	f8c2 1090 	str.w	r1, [r2, #144]	; 0x90
  }

  /*-------------------------------------- UART8 Configuration -----------------------------------*/
  if(((PeriphClkInit->PeriphClockSelection) & RCC_PERIPHCLK_UART8) == RCC_PERIPHCLK_UART8)
 8002618:	049a      	lsls	r2, r3, #18
 800261a:	d508      	bpl.n	800262e <HAL_RCCEx_PeriphCLKConfig+0x266>
  {
    /* Check the parameters */
    assert_param(IS_RCC_UART8CLKSOURCE(PeriphClkInit->Uart8ClockSelection));
    
    /* Configure the UART8 clock source */
    __HAL_RCC_UART8_CONFIG(PeriphClkInit->Uart8ClockSelection);
 800261c:	4a23      	ldr	r2, [pc, #140]	; (80026ac <HAL_RCCEx_PeriphCLKConfig+0x2e4>)
 800261e:	6e21      	ldr	r1, [r4, #96]	; 0x60
 8002620:	f8d2 0090 	ldr.w	r0, [r2, #144]	; 0x90
 8002624:	f420 4040 	bic.w	r0, r0, #49152	; 0xc000
 8002628:	4301      	orrs	r1, r0
 800262a:	f8c2 1090 	str.w	r1, [r2, #144]	; 0x90
  }
  
  /*--------------------------------------- CEC Configuration -----------------------------------*/
  if(((PeriphClkInit->PeriphClockSelection) & RCC_PERIPHCLK_CEC) == RCC_PERIPHCLK_CEC)
 800262e:	025f      	lsls	r7, r3, #9
 8002630:	d508      	bpl.n	8002644 <HAL_RCCEx_PeriphCLKConfig+0x27c>
  {
    /* Check the parameters */
    assert_param(IS_RCC_CECCLKSOURCE(PeriphClkInit->CecClockSelection));
    
    /* Configure the CEC clock source */
    __HAL_RCC_CEC_CONFIG(PeriphClkInit->CecClockSelection);
 8002632:	4a1e      	ldr	r2, [pc, #120]	; (80026ac <HAL_RCCEx_PeriphCLKConfig+0x2e4>)
 8002634:	6fa1      	ldr	r1, [r4, #120]	; 0x78
 8002636:	f8d2 0090 	ldr.w	r0, [r2, #144]	; 0x90
 800263a:	f020 6080 	bic.w	r0, r0, #67108864	; 0x4000000
 800263e:	4301      	orrs	r1, r0
 8002640:	f8c2 1090 	str.w	r1, [r2, #144]	; 0x90
  }
  
  /*-------------------------------------- CK48 Configuration -----------------------------------*/
  if(((PeriphClkInit->PeriphClockSelection) & RCC_PERIPHCLK_CLK48) == RCC_PERIPHCLK_CLK48)
 8002644:	0298      	lsls	r0, r3, #10
 8002646:	d50c      	bpl.n	8002662 <HAL_RCCEx_PeriphCLKConfig+0x29a>
  {
    /* Check the parameters */
    assert_param(IS_RCC_CLK48SOURCE(PeriphClkInit->Clk48ClockSelection));
    
    /* Configure the CLK48 source */
    __HAL_RCC_CLK48_CONFIG(PeriphClkInit->Clk48ClockSelection);
 8002648:	4918      	ldr	r1, [pc, #96]	; (80026ac <HAL_RCCEx_PeriphCLKConfig+0x2e4>)
 800264a:	6fe2      	ldr	r2, [r4, #124]	; 0x7c
 800264c:	f8d1 0090 	ldr.w	r0, [r1, #144]	; 0x90
 8002650:	f020 6000 	bic.w	r0, r0, #134217728	; 0x8000000
 8002654:	4310      	orrs	r0, r2

    /* Enable the PLLSAI when it's used as clock source for CK48 */
    if(PeriphClkInit->Clk48ClockSelection == RCC_CLK48SOURCE_PLLSAIP)
    {
      pllsaiused = 1; 
 8002656:	f1b2 6f00 	cmp.w	r2, #134217728	; 0x8000000
  {
    /* Check the parameters */
    assert_param(IS_RCC_CLK48SOURCE(PeriphClkInit->Clk48ClockSelection));
    
    /* Configure the CLK48 source */
    __HAL_RCC_CLK48_CONFIG(PeriphClkInit->Clk48ClockSelection);
 800265a:	f8c1 0090 	str.w	r0, [r1, #144]	; 0x90

    /* Enable the PLLSAI when it's used as clock source for CK48 */
    if(PeriphClkInit->Clk48ClockSelection == RCC_CLK48SOURCE_PLLSAIP)
    {
      pllsaiused = 1; 
 800265e:	bf08      	it	eq
 8002660:	2501      	moveq	r5, #1

  /*-------------------------------------- LTDC Configuration -----------------------------------*/
#if defined(STM32F756xx) || defined(STM32F746xx)
  if(((PeriphClkInit->PeriphClockSelection) & RCC_PERIPHCLK_LTDC) == RCC_PERIPHCLK_LTDC)
  {
    pllsaiused = 1; 
 8002662:	f013 0f08 	tst.w	r3, #8
 8002666:	bf18      	it	ne
 8002668:	2501      	movne	r5, #1
  }
#endif /* STM32F756xx || STM32F746xx */
  /*-------------------------------------- LPTIM1 Configuration -----------------------------------*/
  if(((PeriphClkInit->PeriphClockSelection) & RCC_PERIPHCLK_LPTIM1) == RCC_PERIPHCLK_LPTIM1)
 800266a:	0359      	lsls	r1, r3, #13
 800266c:	d508      	bpl.n	8002680 <HAL_RCCEx_PeriphCLKConfig+0x2b8>
  {
    /* Check the parameters */
    assert_param(IS_RCC_LPTIM1CLK(PeriphClkInit->Lptim1ClockSelection));
    
    /* Configure the LTPIM1 clock source */
    __HAL_RCC_LPTIM1_CONFIG(PeriphClkInit->Lptim1ClockSelection);
 800266e:	4a0f      	ldr	r2, [pc, #60]	; (80026ac <HAL_RCCEx_PeriphCLKConfig+0x2e4>)
 8002670:	6f61      	ldr	r1, [r4, #116]	; 0x74
 8002672:	f8d2 0090 	ldr.w	r0, [r2, #144]	; 0x90
 8002676:	f020 7040 	bic.w	r0, r0, #50331648	; 0x3000000
 800267a:	4301      	orrs	r1, r0
 800267c:	f8c2 1090 	str.w	r1, [r2, #144]	; 0x90
   }
  
  /*------------------------------------- SDMMC1 Configuration ------------------------------------*/
  if(((PeriphClkInit->PeriphClockSelection) & RCC_PERIPHCLK_SDMMC1) == RCC_PERIPHCLK_SDMMC1)
 8002680:	021a      	lsls	r2, r3, #8
 8002682:	d509      	bpl.n	8002698 <HAL_RCCEx_PeriphCLKConfig+0x2d0>
  {
    /* Check the parameters */
    assert_param(IS_RCC_SDMMC1CLKSOURCE(PeriphClkInit->Sdmmc1ClockSelection));
    
    /* Configure the SDMMC1 clock source */
    __HAL_RCC_SDMMC1_CONFIG(PeriphClkInit->Sdmmc1ClockSelection);
 8002684:	4a09      	ldr	r2, [pc, #36]	; (80026ac <HAL_RCCEx_PeriphCLKConfig+0x2e4>)
 8002686:	f8d4 1080 	ldr.w	r1, [r4, #128]	; 0x80
 800268a:	f8d2 0090 	ldr.w	r0, [r2, #144]	; 0x90
 800268e:	f020 5080 	bic.w	r0, r0, #268435456	; 0x10000000
 8002692:	4301      	orrs	r1, r0
 8002694:	f8c2 1090 	str.w	r1, [r2, #144]	; 0x90
  }

  /*-------------------------------------- PLLI2S Configuration ---------------------------------*/
  /* PLLI2S is configured when a peripheral will use it as source clock : SAI1, SAI2, I2S or SPDIF-RX */
  if((plli2sused == 1) || (PeriphClkInit->PeriphClockSelection == RCC_PERIPHCLK_PLLI2S))
 8002698:	2e01      	cmp	r6, #1
 800269a:	d00b      	beq.n	80026b4 <HAL_RCCEx_PeriphCLKConfig+0x2ec>
 800269c:	f1b3 7f00 	cmp.w	r3, #33554432	; 0x2000000
 80026a0:	d008      	beq.n	80026b4 <HAL_RCCEx_PeriphCLKConfig+0x2ec>
    }
  } 
  
  /*-------------------------------------- PLLSAI Configuration ---------------------------------*/
  /* PLLSAI is configured when a peripheral will use it as source clock : SAI1, SAI2, LTDC or CK48 */
  if(pllsaiused == 1)
 80026a2:	2d01      	cmp	r5, #1
 80026a4:	f040 8195 	bne.w	80029d2 <HAL_RCCEx_PeriphCLKConfig+0x60a>
 80026a8:	e12b      	b.n	8002902 <HAL_RCCEx_PeriphCLKConfig+0x53a>
 80026aa:	bf00      	nop
 80026ac:	40023800 	.word	0x40023800
 80026b0:	40007000 	.word	0x40007000
  /*-------------------------------------- PLLI2S Configuration ---------------------------------*/
  /* PLLI2S is configured when a peripheral will use it as source clock : SAI1, SAI2, I2S or SPDIF-RX */
  if((plli2sused == 1) || (PeriphClkInit->PeriphClockSelection == RCC_PERIPHCLK_PLLI2S))
  {
    /* Disable the PLLI2S */
    __HAL_RCC_PLLI2S_DISABLE();  
 80026b4:	4bcc      	ldr	r3, [pc, #816]	; (80029e8 <HAL_RCCEx_PeriphCLKConfig+0x620>)
 80026b6:	681a      	ldr	r2, [r3, #0]
 80026b8:	f022 6280 	bic.w	r2, r2, #67108864	; 0x4000000
 80026bc:	601a      	str	r2, [r3, #0]
    
    /* Get Start Tick*/
    tickstart = HAL_GetTick();
 80026be:	f000 ff4b 	bl	8003558 <HAL_GetTick>
 80026c2:	4606      	mov	r6, r0
    
    /* Wait till PLLI2S is disabled */
    while(__HAL_RCC_GET_FLAG(RCC_FLAG_PLLI2SRDY)  != RESET)
 80026c4:	4ac8      	ldr	r2, [pc, #800]	; (80029e8 <HAL_RCCEx_PeriphCLKConfig+0x620>)
 80026c6:	6813      	ldr	r3, [r2, #0]
 80026c8:	011f      	lsls	r7, r3, #4
 80026ca:	d505      	bpl.n	80026d8 <HAL_RCCEx_PeriphCLKConfig+0x310>
    {
      if((HAL_GetTick() - tickstart) > PLLI2S_TIMEOUT_VALUE)
 80026cc:	f000 ff44 	bl	8003558 <HAL_GetTick>
 80026d0:	1b80      	subs	r0, r0, r6
 80026d2:	2864      	cmp	r0, #100	; 0x64
 80026d4:	d9f6      	bls.n	80026c4 <HAL_RCCEx_PeriphCLKConfig+0x2fc>
 80026d6:	e6d7      	b.n	8002488 <HAL_RCCEx_PeriphCLKConfig+0xc0>
    
    /* check for common PLLI2S Parameters */
    assert_param(IS_RCC_PLLI2SN_VALUE(PeriphClkInit->PLLI2S.PLLI2SN));
      
    /*----------------- In Case of PLLI2S is selected as source clock for I2S -------------------*/ 
    if(((((PeriphClkInit->PeriphClockSelection) & RCC_PERIPHCLK_I2S) == RCC_PERIPHCLK_I2S) && (PeriphClkInit->I2sClockSelection == RCC_I2SCLKSOURCE_PLLI2S)))
 80026d8:	6823      	ldr	r3, [r4, #0]
 80026da:	07de      	lsls	r6, r3, #31
 80026dc:	d540      	bpl.n	8002760 <HAL_RCCEx_PeriphCLKConfig+0x398>
 80026de:	6b61      	ldr	r1, [r4, #52]	; 0x34
 80026e0:	2900      	cmp	r1, #0
 80026e2:	d13d      	bne.n	8002760 <HAL_RCCEx_PeriphCLKConfig+0x398>
    {
      /* check for Parameters */
      assert_param(IS_RCC_PLLI2SR_VALUE(PeriphClkInit->PLLI2S.PLLI2SR));
    
      /* Read PLLI2SP and PLLI2SQ value from PLLI2SCFGR register (this value is not needed for I2S configuration) */
      tmpreg0 = ((RCC->PLLI2SCFGR & RCC_PLLI2SCFGR_PLLI2SP) >> POSITION_VAL(RCC_PLLI2SCFGR_PLLI2SP));
 80026e4:	f8d2 e084 	ldr.w	lr, [r2, #132]	; 0x84
__attribute__((always_inline)) __STATIC_INLINE uint32_t __RBIT(uint32_t value)
{
  uint32_t result;

#if       (__CORTEX_M >= 0x03U) || (__CORTEX_SC >= 300U)
   __ASM volatile ("rbit %0, %1" : "=r" (result) : "r" (value) );
 80026e8:	f44f 3840 	mov.w	r8, #196608	; 0x30000
 80026ec:	fa98 f8a8 	rbit	r8, r8
 80026f0:	f04f 6770 	mov.w	r7, #251658240	; 0xf000000
 80026f4:	fab8 f888 	clz	r8, r8
      tmpreg1 = ((RCC->PLLI2SCFGR & RCC_PLLI2SCFGR_PLLI2SQ) >> POSITION_VAL(RCC_PLLI2SCFGR_PLLI2SQ));
 80026f8:	f8d2 0084 	ldr.w	r0, [r2, #132]	; 0x84
 80026fc:	fa97 f7a7 	rbit	r7, r7
 8002700:	f647 79c0 	movw	r9, #32704	; 0x7fc0
 8002704:	fab7 f787 	clz	r7, r7
 8002708:	fa99 f9a9 	rbit	r9, r9
 800270c:	f44f 3c40 	mov.w	ip, #196608	; 0x30000
      /* Configure the PLLI2S division factors */
      /* PLLI2S_VCO = f(VCO clock) = f(PLLI2S clock input) x (PLLI2SN/PLLM) */
      /* I2SCLK = f(PLLI2S clock output) = f(VCO clock) / PLLI2SR */
      __HAL_RCC_PLLI2S_CONFIG(PeriphClkInit->PLLI2S.PLLI2SN , tmpreg0, tmpreg1, PeriphClkInit->PLLI2S.PLLI2SR);
 8002710:	fab9 f989 	clz	r9, r9
 8002714:	fa9c fcac 	rbit	ip, ip
 8002718:	f04f 6670 	mov.w	r6, #251658240	; 0xf000000
 800271c:	fabc fc8c 	clz	ip, ip
 8002720:	fa96 f6a6 	rbit	r6, r6
 8002724:	f04f 42e0 	mov.w	r2, #1879048192	; 0x70000000
 8002728:	fab6 f686 	clz	r6, r6
 800272c:	fa92 f2a2 	rbit	r2, r2
 8002730:	68a1      	ldr	r1, [r4, #8]
 8002732:	fab2 f282 	clz	r2, r2
 8002736:	4091      	lsls	r1, r2
 8002738:	6862      	ldr	r2, [r4, #4]
    {
      /* check for Parameters */
      assert_param(IS_RCC_PLLI2SR_VALUE(PeriphClkInit->PLLI2S.PLLI2SR));
    
      /* Read PLLI2SP and PLLI2SQ value from PLLI2SCFGR register (this value is not needed for I2S configuration) */
      tmpreg0 = ((RCC->PLLI2SCFGR & RCC_PLLI2SCFGR_PLLI2SP) >> POSITION_VAL(RCC_PLLI2SCFGR_PLLI2SP));
 800273a:	f40e 3e40 	and.w	lr, lr, #196608	; 0x30000
      tmpreg1 = ((RCC->PLLI2SCFGR & RCC_PLLI2SCFGR_PLLI2SQ) >> POSITION_VAL(RCC_PLLI2SCFGR_PLLI2SQ));
      /* Configure the PLLI2S division factors */
      /* PLLI2S_VCO = f(VCO clock) = f(PLLI2S clock input) x (PLLI2SN/PLLM) */
      /* I2SCLK = f(PLLI2S clock output) = f(VCO clock) / PLLI2SR */
      __HAL_RCC_PLLI2S_CONFIG(PeriphClkInit->PLLI2S.PLLI2SN , tmpreg0, tmpreg1, PeriphClkInit->PLLI2S.PLLI2SR);
 800273e:	fa02 f209 	lsl.w	r2, r2, r9
    {
      /* check for Parameters */
      assert_param(IS_RCC_PLLI2SR_VALUE(PeriphClkInit->PLLI2S.PLLI2SR));
    
      /* Read PLLI2SP and PLLI2SQ value from PLLI2SCFGR register (this value is not needed for I2S configuration) */
      tmpreg0 = ((RCC->PLLI2SCFGR & RCC_PLLI2SCFGR_PLLI2SP) >> POSITION_VAL(RCC_PLLI2SCFGR_PLLI2SP));
 8002742:	fa2e fe08 	lsr.w	lr, lr, r8
      tmpreg1 = ((RCC->PLLI2SCFGR & RCC_PLLI2SCFGR_PLLI2SQ) >> POSITION_VAL(RCC_PLLI2SCFGR_PLLI2SQ));
 8002746:	f000 6070 	and.w	r0, r0, #251658240	; 0xf000000
      /* Configure the PLLI2S division factors */
      /* PLLI2S_VCO = f(VCO clock) = f(PLLI2S clock input) x (PLLI2SN/PLLM) */
      /* I2SCLK = f(PLLI2S clock output) = f(VCO clock) / PLLI2SR */
      __HAL_RCC_PLLI2S_CONFIG(PeriphClkInit->PLLI2S.PLLI2SN , tmpreg0, tmpreg1, PeriphClkInit->PLLI2S.PLLI2SR);
 800274a:	430a      	orrs	r2, r1
 800274c:	fa0e fe0c 	lsl.w	lr, lr, ip
      /* check for Parameters */
      assert_param(IS_RCC_PLLI2SR_VALUE(PeriphClkInit->PLLI2S.PLLI2SR));
    
      /* Read PLLI2SP and PLLI2SQ value from PLLI2SCFGR register (this value is not needed for I2S configuration) */
      tmpreg0 = ((RCC->PLLI2SCFGR & RCC_PLLI2SCFGR_PLLI2SP) >> POSITION_VAL(RCC_PLLI2SCFGR_PLLI2SP));
      tmpreg1 = ((RCC->PLLI2SCFGR & RCC_PLLI2SCFGR_PLLI2SQ) >> POSITION_VAL(RCC_PLLI2SCFGR_PLLI2SQ));
 8002750:	40f8      	lsrs	r0, r7
      /* Configure the PLLI2S division factors */
      /* PLLI2S_VCO = f(VCO clock) = f(PLLI2S clock input) x (PLLI2SN/PLLM) */
      /* I2SCLK = f(PLLI2S clock output) = f(VCO clock) / PLLI2SR */
      __HAL_RCC_PLLI2S_CONFIG(PeriphClkInit->PLLI2S.PLLI2SN , tmpreg0, tmpreg1, PeriphClkInit->PLLI2S.PLLI2SR);
 8002752:	40b0      	lsls	r0, r6
 8002754:	ea42 020e 	orr.w	r2, r2, lr
 8002758:	4302      	orrs	r2, r0
 800275a:	48a3      	ldr	r0, [pc, #652]	; (80029e8 <HAL_RCCEx_PeriphCLKConfig+0x620>)
 800275c:	f8c0 2084 	str.w	r2, [r0, #132]	; 0x84
    }
        
    /*----------------- In Case of PLLI2S is selected as source clock for SAI -------------------*/  
    if(((((PeriphClkInit->PeriphClockSelection) & RCC_PERIPHCLK_SAI1) == RCC_PERIPHCLK_SAI1) && (PeriphClkInit->Sai1ClockSelection == RCC_SAI1CLKSOURCE_PLLI2S)) ||
 8002760:	0318      	lsls	r0, r3, #12
 8002762:	d503      	bpl.n	800276c <HAL_RCCEx_PeriphCLKConfig+0x3a4>
 8002764:	6be2      	ldr	r2, [r4, #60]	; 0x3c
 8002766:	f5b2 1f80 	cmp.w	r2, #1048576	; 0x100000
 800276a:	d005      	beq.n	8002778 <HAL_RCCEx_PeriphCLKConfig+0x3b0>
 800276c:	02d9      	lsls	r1, r3, #11
 800276e:	d54b      	bpl.n	8002808 <HAL_RCCEx_PeriphCLKConfig+0x440>
       ((((PeriphClkInit->PeriphClockSelection) & RCC_PERIPHCLK_SAI2) == RCC_PERIPHCLK_SAI2) && (PeriphClkInit->Sai2ClockSelection == RCC_SAI2CLKSOURCE_PLLI2S))) 
 8002770:	6c22      	ldr	r2, [r4, #64]	; 0x40
 8002772:	f5b2 0f80 	cmp.w	r2, #4194304	; 0x400000
 8002776:	d147      	bne.n	8002808 <HAL_RCCEx_PeriphCLKConfig+0x440>
      assert_param(IS_RCC_PLLI2SQ_VALUE(PeriphClkInit->PLLI2S.PLLI2SQ));
      /* Check for PLLI2S/DIVQ parameters */
      assert_param(IS_RCC_PLLI2S_DIVQ_VALUE(PeriphClkInit->PLLI2SDivQ));
            
      /* Read PLLI2SP and PLLI2SR values from PLLI2SCFGR register (this value is not needed for SAI configuration) */
      tmpreg0 = ((RCC->PLLI2SCFGR & RCC_PLLI2SCFGR_PLLI2SP) >> POSITION_VAL(RCC_PLLI2SCFGR_PLLI2SP));
 8002778:	4a9b      	ldr	r2, [pc, #620]	; (80029e8 <HAL_RCCEx_PeriphCLKConfig+0x620>)
 800277a:	f44f 3840 	mov.w	r8, #196608	; 0x30000
 800277e:	f8d2 e084 	ldr.w	lr, [r2, #132]	; 0x84
 8002782:	fa98 f8a8 	rbit	r8, r8
 8002786:	f04f 47e0 	mov.w	r7, #1879048192	; 0x70000000
 800278a:	fab8 f888 	clz	r8, r8
      tmpreg1 = ((RCC->PLLI2SCFGR & RCC_PLLI2SCFGR_PLLI2SR) >> POSITION_VAL(RCC_PLLI2SCFGR_PLLI2SR));
 800278e:	f8d2 0084 	ldr.w	r0, [r2, #132]	; 0x84
 8002792:	fa97 f7a7 	rbit	r7, r7
 8002796:	f647 79c0 	movw	r9, #32704	; 0x7fc0
 800279a:	fab7 f787 	clz	r7, r7
 800279e:	fa99 f9a9 	rbit	r9, r9
 80027a2:	f44f 3c40 	mov.w	ip, #196608	; 0x30000
      /* Configure the PLLI2S division factors */      
      /* PLLI2S_VCO Input  = PLL_SOURCE/PLLM */
      /* PLLI2S_VCO Output = PLLI2S_VCO Input * PLLI2SN */
      /* SAI_CLK(first level) = PLLI2S_VCO Output/PLLI2SQ */
      __HAL_RCC_PLLI2S_CONFIG(PeriphClkInit->PLLI2S.PLLI2SN, tmpreg0, PeriphClkInit->PLLI2S.PLLI2SQ, tmpreg1);
 80027a6:	fab9 f989 	clz	r9, r9
 80027aa:	fa9c fcac 	rbit	ip, ip
 80027ae:	f04f 6270 	mov.w	r2, #251658240	; 0xf000000
 80027b2:	fabc fc8c 	clz	ip, ip
 80027b6:	fa92 f2a2 	rbit	r2, r2
 80027ba:	f04f 46e0 	mov.w	r6, #1879048192	; 0x70000000
 80027be:	fab2 f282 	clz	r2, r2
 80027c2:	fa96 f6a6 	rbit	r6, r6
 80027c6:	68e1      	ldr	r1, [r4, #12]
 80027c8:	4091      	lsls	r1, r2
 80027ca:	6862      	ldr	r2, [r4, #4]
      assert_param(IS_RCC_PLLI2SQ_VALUE(PeriphClkInit->PLLI2S.PLLI2SQ));
      /* Check for PLLI2S/DIVQ parameters */
      assert_param(IS_RCC_PLLI2S_DIVQ_VALUE(PeriphClkInit->PLLI2SDivQ));
            
      /* Read PLLI2SP and PLLI2SR values from PLLI2SCFGR register (this value is not needed for SAI configuration) */
      tmpreg0 = ((RCC->PLLI2SCFGR & RCC_PLLI2SCFGR_PLLI2SP) >> POSITION_VAL(RCC_PLLI2SCFGR_PLLI2SP));
 80027cc:	f40e 3e40 	and.w	lr, lr, #196608	; 0x30000
      tmpreg1 = ((RCC->PLLI2SCFGR & RCC_PLLI2SCFGR_PLLI2SR) >> POSITION_VAL(RCC_PLLI2SCFGR_PLLI2SR));
      /* Configure the PLLI2S division factors */      
      /* PLLI2S_VCO Input  = PLL_SOURCE/PLLM */
      /* PLLI2S_VCO Output = PLLI2S_VCO Input * PLLI2SN */
      /* SAI_CLK(first level) = PLLI2S_VCO Output/PLLI2SQ */
      __HAL_RCC_PLLI2S_CONFIG(PeriphClkInit->PLLI2S.PLLI2SN, tmpreg0, PeriphClkInit->PLLI2S.PLLI2SQ, tmpreg1);
 80027d0:	fa02 f209 	lsl.w	r2, r2, r9
      assert_param(IS_RCC_PLLI2SQ_VALUE(PeriphClkInit->PLLI2S.PLLI2SQ));
      /* Check for PLLI2S/DIVQ parameters */
      assert_param(IS_RCC_PLLI2S_DIVQ_VALUE(PeriphClkInit->PLLI2SDivQ));
            
      /* Read PLLI2SP and PLLI2SR values from PLLI2SCFGR register (this value is not needed for SAI configuration) */
      tmpreg0 = ((RCC->PLLI2SCFGR & RCC_PLLI2SCFGR_PLLI2SP) >> POSITION_VAL(RCC_PLLI2SCFGR_PLLI2SP));
 80027d4:	fa2e fe08 	lsr.w	lr, lr, r8
      tmpreg1 = ((RCC->PLLI2SCFGR & RCC_PLLI2SCFGR_PLLI2SR) >> POSITION_VAL(RCC_PLLI2SCFGR_PLLI2SR));
 80027d8:	f000 40e0 	and.w	r0, r0, #1879048192	; 0x70000000
      /* Configure the PLLI2S division factors */      
      /* PLLI2S_VCO Input  = PLL_SOURCE/PLLM */
      /* PLLI2S_VCO Output = PLLI2S_VCO Input * PLLI2SN */
      /* SAI_CLK(first level) = PLLI2S_VCO Output/PLLI2SQ */
      __HAL_RCC_PLLI2S_CONFIG(PeriphClkInit->PLLI2S.PLLI2SN, tmpreg0, PeriphClkInit->PLLI2S.PLLI2SQ, tmpreg1);
 80027dc:	4311      	orrs	r1, r2
 80027de:	fab6 f686 	clz	r6, r6
 80027e2:	fa0e fe0c 	lsl.w	lr, lr, ip
      /* Check for PLLI2S/DIVQ parameters */
      assert_param(IS_RCC_PLLI2S_DIVQ_VALUE(PeriphClkInit->PLLI2SDivQ));
            
      /* Read PLLI2SP and PLLI2SR values from PLLI2SCFGR register (this value is not needed for SAI configuration) */
      tmpreg0 = ((RCC->PLLI2SCFGR & RCC_PLLI2SCFGR_PLLI2SP) >> POSITION_VAL(RCC_PLLI2SCFGR_PLLI2SP));
      tmpreg1 = ((RCC->PLLI2SCFGR & RCC_PLLI2SCFGR_PLLI2SR) >> POSITION_VAL(RCC_PLLI2SCFGR_PLLI2SR));
 80027e6:	40f8      	lsrs	r0, r7
      /* Configure the PLLI2S division factors */      
      /* PLLI2S_VCO Input  = PLL_SOURCE/PLLM */
      /* PLLI2S_VCO Output = PLLI2S_VCO Input * PLLI2SN */
      /* SAI_CLK(first level) = PLLI2S_VCO Output/PLLI2SQ */
      __HAL_RCC_PLLI2S_CONFIG(PeriphClkInit->PLLI2S.PLLI2SN, tmpreg0, PeriphClkInit->PLLI2S.PLLI2SQ, tmpreg1);
 80027e8:	4a7f      	ldr	r2, [pc, #508]	; (80029e8 <HAL_RCCEx_PeriphCLKConfig+0x620>)
 80027ea:	40b0      	lsls	r0, r6
 80027ec:	ea41 010e 	orr.w	r1, r1, lr
 80027f0:	4301      	orrs	r1, r0
 80027f2:	f8c2 1084 	str.w	r1, [r2, #132]	; 0x84
   
      /* SAI_CLK_x = SAI_CLK(first level)/PLLI2SDIVQ */ 
      __HAL_RCC_PLLI2S_PLLSAICLKDIVQ_CONFIG(PeriphClkInit->PLLI2SDivQ);   
 80027f6:	f8d2 008c 	ldr.w	r0, [r2, #140]	; 0x8c
 80027fa:	6a61      	ldr	r1, [r4, #36]	; 0x24
 80027fc:	f020 001f 	bic.w	r0, r0, #31
 8002800:	3901      	subs	r1, #1
 8002802:	4301      	orrs	r1, r0
 8002804:	f8c2 108c 	str.w	r1, [r2, #140]	; 0x8c
    }          

    /*----------------- In Case of PLLI2S is selected as source clock for SPDIF-RX -------------------*/  
    if(((PeriphClkInit->PeriphClockSelection) & RCC_PERIPHCLK_SPDIFRX) == RCC_PERIPHCLK_SPDIFRX)
 8002808:	01da      	lsls	r2, r3, #7
 800280a:	d53e      	bpl.n	800288a <HAL_RCCEx_PeriphCLKConfig+0x4c2>
    {
      /* check for Parameters */
      assert_param(IS_RCC_PLLI2SP_VALUE(PeriphClkInit->PLLI2S.PLLI2SP));
     
     /* Read PLLI2SR value from PLLI2SCFGR register (this value is not needed for SPDIF-RX configuration) */
      tmpreg0 = ((RCC->PLLI2SCFGR & RCC_PLLI2SCFGR_PLLI2SQ) >> POSITION_VAL(RCC_PLLI2SCFGR_PLLI2SQ));
 800280c:	4a76      	ldr	r2, [pc, #472]	; (80029e8 <HAL_RCCEx_PeriphCLKConfig+0x620>)
 800280e:	f04f 6870 	mov.w	r8, #251658240	; 0xf000000
 8002812:	f8d2 e084 	ldr.w	lr, [r2, #132]	; 0x84
 8002816:	fa98 f8a8 	rbit	r8, r8
 800281a:	f04f 47e0 	mov.w	r7, #1879048192	; 0x70000000
 800281e:	fab8 f888 	clz	r8, r8
      tmpreg1 = ((RCC->PLLI2SCFGR & RCC_PLLI2SCFGR_PLLI2SR) >> POSITION_VAL(RCC_PLLI2SCFGR_PLLI2SR));
 8002822:	f8d2 0084 	ldr.w	r0, [r2, #132]	; 0x84
 8002826:	fa97 f7a7 	rbit	r7, r7
 800282a:	f647 79c0 	movw	r9, #32704	; 0x7fc0
 800282e:	fab7 f787 	clz	r7, r7
 8002832:	fa99 f9a9 	rbit	r9, r9
 8002836:	f44f 3240 	mov.w	r2, #196608	; 0x30000
      /* Configure the PLLI2S division factors */
      /* PLLI2S_VCO = f(VCO clock) = f(PLLI2S clock input) x (PLLI2SN/PLLM) */
      /* SPDIFCLK = f(PLLI2S clock output) = f(VCO clock) / PLLI2SP */
      __HAL_RCC_PLLI2S_CONFIG(PeriphClkInit->PLLI2S.PLLI2SN , PeriphClkInit->PLLI2S.PLLI2SP, tmpreg0, tmpreg1);
 800283a:	fab9 f989 	clz	r9, r9
 800283e:	fa92 f2a2 	rbit	r2, r2
 8002842:	f04f 6c70 	mov.w	ip, #251658240	; 0xf000000
 8002846:	fab2 f282 	clz	r2, r2
 800284a:	fa9c fcac 	rbit	ip, ip
 800284e:	f04f 46e0 	mov.w	r6, #1879048192	; 0x70000000
 8002852:	fabc fc8c 	clz	ip, ip
 8002856:	fa96 f6a6 	rbit	r6, r6
 800285a:	6921      	ldr	r1, [r4, #16]
 800285c:	4091      	lsls	r1, r2
 800285e:	6862      	ldr	r2, [r4, #4]
    {
      /* check for Parameters */
      assert_param(IS_RCC_PLLI2SP_VALUE(PeriphClkInit->PLLI2S.PLLI2SP));
     
     /* Read PLLI2SR value from PLLI2SCFGR register (this value is not needed for SPDIF-RX configuration) */
      tmpreg0 = ((RCC->PLLI2SCFGR & RCC_PLLI2SCFGR_PLLI2SQ) >> POSITION_VAL(RCC_PLLI2SCFGR_PLLI2SQ));
 8002860:	f00e 6e70 	and.w	lr, lr, #251658240	; 0xf000000
      tmpreg1 = ((RCC->PLLI2SCFGR & RCC_PLLI2SCFGR_PLLI2SR) >> POSITION_VAL(RCC_PLLI2SCFGR_PLLI2SR));
      /* Configure the PLLI2S division factors */
      /* PLLI2S_VCO = f(VCO clock) = f(PLLI2S clock input) x (PLLI2SN/PLLM) */
      /* SPDIFCLK = f(PLLI2S clock output) = f(VCO clock) / PLLI2SP */
      __HAL_RCC_PLLI2S_CONFIG(PeriphClkInit->PLLI2S.PLLI2SN , PeriphClkInit->PLLI2S.PLLI2SP, tmpreg0, tmpreg1);
 8002864:	fa02 f209 	lsl.w	r2, r2, r9
    {
      /* check for Parameters */
      assert_param(IS_RCC_PLLI2SP_VALUE(PeriphClkInit->PLLI2S.PLLI2SP));
     
     /* Read PLLI2SR value from PLLI2SCFGR register (this value is not needed for SPDIF-RX configuration) */
      tmpreg0 = ((RCC->PLLI2SCFGR & RCC_PLLI2SCFGR_PLLI2SQ) >> POSITION_VAL(RCC_PLLI2SCFGR_PLLI2SQ));
 8002868:	fa2e fe08 	lsr.w	lr, lr, r8
      tmpreg1 = ((RCC->PLLI2SCFGR & RCC_PLLI2SCFGR_PLLI2SR) >> POSITION_VAL(RCC_PLLI2SCFGR_PLLI2SR));
 800286c:	f000 40e0 	and.w	r0, r0, #1879048192	; 0x70000000
      /* Configure the PLLI2S division factors */
      /* PLLI2S_VCO = f(VCO clock) = f(PLLI2S clock input) x (PLLI2SN/PLLM) */
      /* SPDIFCLK = f(PLLI2S clock output) = f(VCO clock) / PLLI2SP */
      __HAL_RCC_PLLI2S_CONFIG(PeriphClkInit->PLLI2S.PLLI2SN , PeriphClkInit->PLLI2S.PLLI2SP, tmpreg0, tmpreg1);
 8002870:	fab6 f686 	clz	r6, r6
 8002874:	430a      	orrs	r2, r1
 8002876:	fa0e fe0c 	lsl.w	lr, lr, ip
      /* check for Parameters */
      assert_param(IS_RCC_PLLI2SP_VALUE(PeriphClkInit->PLLI2S.PLLI2SP));
     
     /* Read PLLI2SR value from PLLI2SCFGR register (this value is not needed for SPDIF-RX configuration) */
      tmpreg0 = ((RCC->PLLI2SCFGR & RCC_PLLI2SCFGR_PLLI2SQ) >> POSITION_VAL(RCC_PLLI2SCFGR_PLLI2SQ));
      tmpreg1 = ((RCC->PLLI2SCFGR & RCC_PLLI2SCFGR_PLLI2SR) >> POSITION_VAL(RCC_PLLI2SCFGR_PLLI2SR));
 800287a:	40f8      	lsrs	r0, r7
      /* Configure the PLLI2S division factors */
      /* PLLI2S_VCO = f(VCO clock) = f(PLLI2S clock input) x (PLLI2SN/PLLM) */
      /* SPDIFCLK = f(PLLI2S clock output) = f(VCO clock) / PLLI2SP */
      __HAL_RCC_PLLI2S_CONFIG(PeriphClkInit->PLLI2S.PLLI2SN , PeriphClkInit->PLLI2S.PLLI2SP, tmpreg0, tmpreg1);
 800287c:	40b0      	lsls	r0, r6
 800287e:	ea42 020e 	orr.w	r2, r2, lr
 8002882:	4302      	orrs	r2, r0
 8002884:	4858      	ldr	r0, [pc, #352]	; (80029e8 <HAL_RCCEx_PeriphCLKConfig+0x620>)
 8002886:	f8c0 2084 	str.w	r2, [r0, #132]	; 0x84
    }  
         
    /*----------------- In Case of PLLI2S is just selected  -----------------*/  
    if((PeriphClkInit->PeriphClockSelection & RCC_PERIPHCLK_PLLI2S) == RCC_PERIPHCLK_PLLI2S)
 800288a:	019b      	lsls	r3, r3, #6
 800288c:	d526      	bpl.n	80028dc <HAL_RCCEx_PeriphCLKConfig+0x514>
 800288e:	f647 7ec0 	movw	lr, #32704	; 0x7fc0
 8002892:	fa9e feae 	rbit	lr, lr
 8002896:	f44f 3140 	mov.w	r1, #196608	; 0x30000
      assert_param(IS_RCC_PLLI2SQ_VALUE(PeriphClkInit->PLLI2S.PLLI2SQ));

      /* Configure the PLLI2S division factors */
      /* PLLI2S_VCO = f(VCO clock) = f(PLLI2S clock input) x (PLLI2SN/PLLI2SM) */
      /* SPDIFRXCLK = f(PLLI2S clock output) = f(VCO clock) / PLLI2SP */
      __HAL_RCC_PLLI2S_CONFIG(PeriphClkInit->PLLI2S.PLLI2SN , PeriphClkInit->PLLI2S.PLLI2SP, PeriphClkInit->PLLI2S.PLLI2SQ, PeriphClkInit->PLLI2S.PLLI2SR);
 800289a:	fabe fe8e 	clz	lr, lr
 800289e:	fa91 f1a1 	rbit	r1, r1
 80028a2:	f04f 6770 	mov.w	r7, #251658240	; 0xf000000
 80028a6:	fab1 f181 	clz	r1, r1
 80028aa:	fa97 f7a7 	rbit	r7, r7
 80028ae:	f04f 46e0 	mov.w	r6, #1879048192	; 0x70000000
 80028b2:	fab7 f787 	clz	r7, r7
 80028b6:	fa96 f6a6 	rbit	r6, r6
 80028ba:	6920      	ldr	r0, [r4, #16]
 80028bc:	68e2      	ldr	r2, [r4, #12]
 80028be:	68a3      	ldr	r3, [r4, #8]
 80028c0:	4088      	lsls	r0, r1
 80028c2:	6861      	ldr	r1, [r4, #4]
 80028c4:	fa01 f10e 	lsl.w	r1, r1, lr
 80028c8:	fab6 f686 	clz	r6, r6
 80028cc:	4301      	orrs	r1, r0
 80028ce:	40ba      	lsls	r2, r7
 80028d0:	40b3      	lsls	r3, r6
 80028d2:	430a      	orrs	r2, r1
 80028d4:	4e44      	ldr	r6, [pc, #272]	; (80029e8 <HAL_RCCEx_PeriphCLKConfig+0x620>)
 80028d6:	4313      	orrs	r3, r2
 80028d8:	f8c6 3084 	str.w	r3, [r6, #132]	; 0x84
    } 
    
    /* Enable the PLLI2S */
    __HAL_RCC_PLLI2S_ENABLE();
 80028dc:	4b42      	ldr	r3, [pc, #264]	; (80029e8 <HAL_RCCEx_PeriphCLKConfig+0x620>)
 80028de:	681a      	ldr	r2, [r3, #0]
 80028e0:	f042 6280 	orr.w	r2, r2, #67108864	; 0x4000000
 80028e4:	601a      	str	r2, [r3, #0]
    
    /* Get Start Tick*/
    tickstart = HAL_GetTick();
 80028e6:	f000 fe37 	bl	8003558 <HAL_GetTick>
 80028ea:	4606      	mov	r6, r0

    /* Wait till PLLI2S is ready */
    while(__HAL_RCC_GET_FLAG(RCC_FLAG_PLLI2SRDY)  == RESET)
 80028ec:	4b3e      	ldr	r3, [pc, #248]	; (80029e8 <HAL_RCCEx_PeriphCLKConfig+0x620>)
 80028ee:	681b      	ldr	r3, [r3, #0]
 80028f0:	011f      	lsls	r7, r3, #4
 80028f2:	f53f aed6 	bmi.w	80026a2 <HAL_RCCEx_PeriphCLKConfig+0x2da>
    {
      if((HAL_GetTick() - tickstart) > PLLI2S_TIMEOUT_VALUE)
 80028f6:	f000 fe2f 	bl	8003558 <HAL_GetTick>
 80028fa:	1b80      	subs	r0, r0, r6
 80028fc:	2864      	cmp	r0, #100	; 0x64
 80028fe:	d9f5      	bls.n	80028ec <HAL_RCCEx_PeriphCLKConfig+0x524>
 8002900:	e5c2      	b.n	8002488 <HAL_RCCEx_PeriphCLKConfig+0xc0>
  /*-------------------------------------- PLLSAI Configuration ---------------------------------*/
  /* PLLSAI is configured when a peripheral will use it as source clock : SAI1, SAI2, LTDC or CK48 */
  if(pllsaiused == 1)
  {
    /* Disable PLLSAI Clock */
    __HAL_RCC_PLLSAI_DISABLE(); 
 8002902:	4b39      	ldr	r3, [pc, #228]	; (80029e8 <HAL_RCCEx_PeriphCLKConfig+0x620>)
 8002904:	681a      	ldr	r2, [r3, #0]
 8002906:	f022 5280 	bic.w	r2, r2, #268435456	; 0x10000000
 800290a:	601a      	str	r2, [r3, #0]
    
    /* Get Start Tick*/
    tickstart = HAL_GetTick();
 800290c:	f000 fe24 	bl	8003558 <HAL_GetTick>
 8002910:	4605      	mov	r5, r0

    /* Wait till PLLSAI is disabled */
    while(__HAL_RCC_PLLSAI_GET_FLAG() != RESET)
 8002912:	4b35      	ldr	r3, [pc, #212]	; (80029e8 <HAL_RCCEx_PeriphCLKConfig+0x620>)
 8002914:	681b      	ldr	r3, [r3, #0]
 8002916:	009e      	lsls	r6, r3, #2
 8002918:	d45d      	bmi.n	80029d6 <HAL_RCCEx_PeriphCLKConfig+0x60e>
    
    /* Check the PLLSAI division factors */
    assert_param(IS_RCC_PLLSAIN_VALUE(PeriphClkInit->PLLSAI.PLLSAIN));
    
    /*----------------- In Case of PLLSAI is selected as source clock for SAI -------------------*/  
    if(((((PeriphClkInit->PeriphClockSelection) & RCC_PERIPHCLK_SAI1) == RCC_PERIPHCLK_SAI1) && (PeriphClkInit->Sai1ClockSelection == RCC_SAI1CLKSOURCE_PLLSAI)) ||\
 800291a:	6823      	ldr	r3, [r4, #0]
 800291c:	031d      	lsls	r5, r3, #12
 800291e:	d460      	bmi.n	80029e2 <HAL_RCCEx_PeriphCLKConfig+0x61a>
 8002920:	02d8      	lsls	r0, r3, #11
 8002922:	d463      	bmi.n	80029ec <HAL_RCCEx_PeriphCLKConfig+0x624>
      __HAL_RCC_PLLSAI_PLLSAICLKDIVQ_CONFIG(PeriphClkInit->PLLSAIDivQ);
    }           

    /*----------------- In Case of PLLSAI is selected as source clock for CLK48 -------------------*/   
    /* In Case of PLLI2S is selected as source clock for CK48 */ 
    if((((PeriphClkInit->PeriphClockSelection) & RCC_PERIPHCLK_CLK48) == RCC_PERIPHCLK_CLK48) && (PeriphClkInit->Clk48ClockSelection == RCC_CLK48SOURCE_PLLSAIP))
 8002924:	0299      	lsls	r1, r3, #10
 8002926:	f100 80ad 	bmi.w	8002a84 <HAL_RCCEx_PeriphCLKConfig+0x6bc>
      __HAL_RCC_PLLSAI_CONFIG(PeriphClkInit->PLLSAI.PLLSAIN , PeriphClkInit->PLLSAI.PLLSAIP, tmpreg0, tmpreg1);
    }        

#if defined(STM32F756xx) || defined(STM32F746xx)
    /*---------------------------- LTDC configuration -------------------------------*/
    if(((PeriphClkInit->PeriphClockSelection) & RCC_PERIPHCLK_LTDC) == (RCC_PERIPHCLK_LTDC))
 800292a:	071a      	lsls	r2, r3, #28
 800292c:	d544      	bpl.n	80029b8 <HAL_RCCEx_PeriphCLKConfig+0x5f0>
    {
      assert_param(IS_RCC_PLLSAIR_VALUE(PeriphClkInit->PLLSAI.PLLSAIR));
      assert_param(IS_RCC_PLLSAI_DIVR_VALUE(PeriphClkInit->PLLSAIDivR));
      
      /* Read PLLSAIP and PLLSAIQ value from PLLSAICFGR register (these value are not needed for LTDC configuration) */
      tmpreg0 = ((RCC->PLLSAICFGR & RCC_PLLSAICFGR_PLLSAIQ) >> POSITION_VAL(RCC_PLLSAICFGR_PLLSAIQ));
 800292e:	4b2e      	ldr	r3, [pc, #184]	; (80029e8 <HAL_RCCEx_PeriphCLKConfig+0x620>)
 8002930:	f04f 6570 	mov.w	r5, #251658240	; 0xf000000
 8002934:	f8d3 1088 	ldr.w	r1, [r3, #136]	; 0x88
 8002938:	fa95 f5a5 	rbit	r5, r5
 800293c:	f44f 3e40 	mov.w	lr, #196608	; 0x30000
 8002940:	fab5 f585 	clz	r5, r5
      tmpreg1 = ((RCC->PLLSAICFGR & RCC_PLLSAICFGR_PLLSAIP) >> POSITION_VAL(RCC_PLLSAICFGR_PLLSAIP));
 8002944:	f8d3 6088 	ldr.w	r6, [r3, #136]	; 0x88
 8002948:	fa9e feae 	rbit	lr, lr
 800294c:	f647 7cc0 	movw	ip, #32704	; 0x7fc0
 8002950:	fabe fe8e 	clz	lr, lr
 8002954:	fa9c fcac 	rbit	ip, ip
 8002958:	f44f 3740 	mov.w	r7, #196608	; 0x30000
      
      /* PLLSAI_VCO Input  = PLL_SOURCE/PLLM */
      /* PLLSAI_VCO Output = PLLSAI_VCO Input * PLLSAIN */
      /* LTDC_CLK(first level) = PLLSAI_VCO Output/PLLSAIR */
      __HAL_RCC_PLLSAI_CONFIG(PeriphClkInit->PLLSAI.PLLSAIN , tmpreg1, tmpreg0, PeriphClkInit->PLLSAI.PLLSAIR);
 800295c:	fabc fc8c 	clz	ip, ip
 8002960:	fa97 f7a7 	rbit	r7, r7
 8002964:	f04f 6070 	mov.w	r0, #251658240	; 0xf000000
 8002968:	fab7 f787 	clz	r7, r7
 800296c:	fa90 f0a0 	rbit	r0, r0
 8002970:	f04f 43e0 	mov.w	r3, #1879048192	; 0x70000000
 8002974:	fab0 f080 	clz	r0, r0
 8002978:	fa93 f3a3 	rbit	r3, r3
 800297c:	69e2      	ldr	r2, [r4, #28]
 800297e:	fab3 f383 	clz	r3, r3
 8002982:	409a      	lsls	r2, r3
 8002984:	6963      	ldr	r3, [r4, #20]
      assert_param(IS_RCC_PLLSAIR_VALUE(PeriphClkInit->PLLSAI.PLLSAIR));
      assert_param(IS_RCC_PLLSAI_DIVR_VALUE(PeriphClkInit->PLLSAIDivR));
      
      /* Read PLLSAIP and PLLSAIQ value from PLLSAICFGR register (these value are not needed for LTDC configuration) */
      tmpreg0 = ((RCC->PLLSAICFGR & RCC_PLLSAICFGR_PLLSAIQ) >> POSITION_VAL(RCC_PLLSAICFGR_PLLSAIQ));
      tmpreg1 = ((RCC->PLLSAICFGR & RCC_PLLSAICFGR_PLLSAIP) >> POSITION_VAL(RCC_PLLSAICFGR_PLLSAIP));
 8002986:	f406 3640 	and.w	r6, r6, #196608	; 0x30000
      
      /* PLLSAI_VCO Input  = PLL_SOURCE/PLLM */
      /* PLLSAI_VCO Output = PLLSAI_VCO Input * PLLSAIN */
      /* LTDC_CLK(first level) = PLLSAI_VCO Output/PLLSAIR */
      __HAL_RCC_PLLSAI_CONFIG(PeriphClkInit->PLLSAI.PLLSAIN , tmpreg1, tmpreg0, PeriphClkInit->PLLSAI.PLLSAIR);
 800298a:	fa03 f30c 	lsl.w	r3, r3, ip
      assert_param(IS_RCC_PLLSAIR_VALUE(PeriphClkInit->PLLSAI.PLLSAIR));
      assert_param(IS_RCC_PLLSAI_DIVR_VALUE(PeriphClkInit->PLLSAIDivR));
      
      /* Read PLLSAIP and PLLSAIQ value from PLLSAICFGR register (these value are not needed for LTDC configuration) */
      tmpreg0 = ((RCC->PLLSAICFGR & RCC_PLLSAICFGR_PLLSAIQ) >> POSITION_VAL(RCC_PLLSAICFGR_PLLSAIQ));
      tmpreg1 = ((RCC->PLLSAICFGR & RCC_PLLSAICFGR_PLLSAIP) >> POSITION_VAL(RCC_PLLSAICFGR_PLLSAIP));
 800298e:	fa26 f60e 	lsr.w	r6, r6, lr
    {
      assert_param(IS_RCC_PLLSAIR_VALUE(PeriphClkInit->PLLSAI.PLLSAIR));
      assert_param(IS_RCC_PLLSAI_DIVR_VALUE(PeriphClkInit->PLLSAIDivR));
      
      /* Read PLLSAIP and PLLSAIQ value from PLLSAICFGR register (these value are not needed for LTDC configuration) */
      tmpreg0 = ((RCC->PLLSAICFGR & RCC_PLLSAICFGR_PLLSAIQ) >> POSITION_VAL(RCC_PLLSAICFGR_PLLSAIQ));
 8002992:	f001 6170 	and.w	r1, r1, #251658240	; 0xf000000
      tmpreg1 = ((RCC->PLLSAICFGR & RCC_PLLSAICFGR_PLLSAIP) >> POSITION_VAL(RCC_PLLSAICFGR_PLLSAIP));
      
      /* PLLSAI_VCO Input  = PLL_SOURCE/PLLM */
      /* PLLSAI_VCO Output = PLLSAI_VCO Input * PLLSAIN */
      /* LTDC_CLK(first level) = PLLSAI_VCO Output/PLLSAIR */
      __HAL_RCC_PLLSAI_CONFIG(PeriphClkInit->PLLSAI.PLLSAIN , tmpreg1, tmpreg0, PeriphClkInit->PLLSAI.PLLSAIR);
 8002996:	431a      	orrs	r2, r3
 8002998:	40be      	lsls	r6, r7
    {
      assert_param(IS_RCC_PLLSAIR_VALUE(PeriphClkInit->PLLSAI.PLLSAIR));
      assert_param(IS_RCC_PLLSAI_DIVR_VALUE(PeriphClkInit->PLLSAIDivR));
      
      /* Read PLLSAIP and PLLSAIQ value from PLLSAICFGR register (these value are not needed for LTDC configuration) */
      tmpreg0 = ((RCC->PLLSAICFGR & RCC_PLLSAICFGR_PLLSAIQ) >> POSITION_VAL(RCC_PLLSAICFGR_PLLSAIQ));
 800299a:	40e9      	lsrs	r1, r5
      tmpreg1 = ((RCC->PLLSAICFGR & RCC_PLLSAICFGR_PLLSAIP) >> POSITION_VAL(RCC_PLLSAICFGR_PLLSAIP));
      
      /* PLLSAI_VCO Input  = PLL_SOURCE/PLLM */
      /* PLLSAI_VCO Output = PLLSAI_VCO Input * PLLSAIN */
      /* LTDC_CLK(first level) = PLLSAI_VCO Output/PLLSAIR */
      __HAL_RCC_PLLSAI_CONFIG(PeriphClkInit->PLLSAI.PLLSAIN , tmpreg1, tmpreg0, PeriphClkInit->PLLSAI.PLLSAIR);
 800299c:	4b12      	ldr	r3, [pc, #72]	; (80029e8 <HAL_RCCEx_PeriphCLKConfig+0x620>)
 800299e:	4081      	lsls	r1, r0
 80029a0:	4332      	orrs	r2, r6
 80029a2:	430a      	orrs	r2, r1
 80029a4:	f8c3 2088 	str.w	r2, [r3, #136]	; 0x88
      
      /* LTDC_CLK = LTDC_CLK(first level)/PLLSAIDIVR */ 
      __HAL_RCC_PLLSAI_PLLSAICLKDIVR_CONFIG(PeriphClkInit->PLLSAIDivR);
 80029a8:	f8d3 208c 	ldr.w	r2, [r3, #140]	; 0x8c
 80029ac:	6ae1      	ldr	r1, [r4, #44]	; 0x2c
 80029ae:	f422 3240 	bic.w	r2, r2, #196608	; 0x30000
 80029b2:	430a      	orrs	r2, r1
 80029b4:	f8c3 208c 	str.w	r2, [r3, #140]	; 0x8c
    }    
#endif /* STM32F756xx || STM32F746xx */  

    /* Enable PLLSAI Clock */
    __HAL_RCC_PLLSAI_ENABLE();
 80029b8:	4b0b      	ldr	r3, [pc, #44]	; (80029e8 <HAL_RCCEx_PeriphCLKConfig+0x620>)
 80029ba:	681a      	ldr	r2, [r3, #0]
 80029bc:	f042 5280 	orr.w	r2, r2, #268435456	; 0x10000000
 80029c0:	601a      	str	r2, [r3, #0]
    
    /* Get Start Tick*/
    tickstart = HAL_GetTick();
 80029c2:	f000 fdc9 	bl	8003558 <HAL_GetTick>
 80029c6:	4604      	mov	r4, r0

    /* Wait till PLLSAI is ready */
    while(__HAL_RCC_PLLSAI_GET_FLAG() == RESET)
 80029c8:	4b07      	ldr	r3, [pc, #28]	; (80029e8 <HAL_RCCEx_PeriphCLKConfig+0x620>)
 80029ca:	681b      	ldr	r3, [r3, #0]
 80029cc:	009b      	lsls	r3, r3, #2
 80029ce:	f140 809d 	bpl.w	8002b0c <HAL_RCCEx_PeriphCLKConfig+0x744>
        /* return in case of Timeout detected */        
        return HAL_TIMEOUT;
      }
    }
  }
  return HAL_OK;
 80029d2:	2000      	movs	r0, #0
 80029d4:	e0a1      	b.n	8002b1a <HAL_RCCEx_PeriphCLKConfig+0x752>
    tickstart = HAL_GetTick();

    /* Wait till PLLSAI is disabled */
    while(__HAL_RCC_PLLSAI_GET_FLAG() != RESET)
    {
      if((HAL_GetTick() - tickstart) > PLLSAI_TIMEOUT_VALUE)
 80029d6:	f000 fdbf 	bl	8003558 <HAL_GetTick>
 80029da:	1b40      	subs	r0, r0, r5
 80029dc:	2864      	cmp	r0, #100	; 0x64
 80029de:	d998      	bls.n	8002912 <HAL_RCCEx_PeriphCLKConfig+0x54a>
 80029e0:	e552      	b.n	8002488 <HAL_RCCEx_PeriphCLKConfig+0xc0>
    
    /* Check the PLLSAI division factors */
    assert_param(IS_RCC_PLLSAIN_VALUE(PeriphClkInit->PLLSAI.PLLSAIN));
    
    /*----------------- In Case of PLLSAI is selected as source clock for SAI -------------------*/  
    if(((((PeriphClkInit->PeriphClockSelection) & RCC_PERIPHCLK_SAI1) == RCC_PERIPHCLK_SAI1) && (PeriphClkInit->Sai1ClockSelection == RCC_SAI1CLKSOURCE_PLLSAI)) ||\
 80029e2:	6be2      	ldr	r2, [r4, #60]	; 0x3c
 80029e4:	b12a      	cbz	r2, 80029f2 <HAL_RCCEx_PeriphCLKConfig+0x62a>
 80029e6:	e79b      	b.n	8002920 <HAL_RCCEx_PeriphCLKConfig+0x558>
 80029e8:	40023800 	.word	0x40023800
       ((((PeriphClkInit->PeriphClockSelection) & RCC_PERIPHCLK_SAI2) == RCC_PERIPHCLK_SAI2) && (PeriphClkInit->Sai2ClockSelection == RCC_SAI2CLKSOURCE_PLLSAI)))
 80029ec:	6c22      	ldr	r2, [r4, #64]	; 0x40
 80029ee:	2a00      	cmp	r2, #0
 80029f0:	d198      	bne.n	8002924 <HAL_RCCEx_PeriphCLKConfig+0x55c>
      assert_param(IS_RCC_PLLSAIQ_VALUE(PeriphClkInit->PLLSAI.PLLSAIQ));
      /* check for PLLSAI/DIVQ Parameter */
      assert_param(IS_RCC_PLLSAI_DIVQ_VALUE(PeriphClkInit->PLLSAIDivQ));
    
      /* Read PLLSAIP value from PLLSAICFGR register (this value is not needed for SAI configuration) */
      tmpreg0 = ((RCC->PLLSAICFGR & RCC_PLLSAICFGR_PLLSAIP) >> POSITION_VAL(RCC_PLLSAICFGR_PLLSAIP));
 80029f2:	4a4b      	ldr	r2, [pc, #300]	; (8002b20 <HAL_RCCEx_PeriphCLKConfig+0x758>)
 80029f4:	f44f 3c40 	mov.w	ip, #196608	; 0x30000
 80029f8:	f8d2 7088 	ldr.w	r7, [r2, #136]	; 0x88
 80029fc:	fa9c fcac 	rbit	ip, ip
 8002a00:	f04f 46e0 	mov.w	r6, #1879048192	; 0x70000000
 8002a04:	fabc fc8c 	clz	ip, ip
      tmpreg1 = ((RCC->PLLSAICFGR & RCC_PLLI2SCFGR_PLLI2SR) >> POSITION_VAL(RCC_PLLSAICFGR_PLLSAIR));
 8002a08:	f8d2 0088 	ldr.w	r0, [r2, #136]	; 0x88
 8002a0c:	fa96 f6a6 	rbit	r6, r6
 8002a10:	f647 78c0 	movw	r8, #32704	; 0x7fc0
 8002a14:	fab6 f686 	clz	r6, r6
 8002a18:	fa98 f8a8 	rbit	r8, r8
 8002a1c:	f44f 3e40 	mov.w	lr, #196608	; 0x30000
      /* PLLSAI_VCO Input  = PLL_SOURCE/PLLM */
      /* PLLSAI_VCO Output = PLLSAI_VCO Input * PLLSAIN */
      /* SAI_CLK(first level) = PLLSAI_VCO Output/PLLSAIQ */
      __HAL_RCC_PLLSAI_CONFIG(PeriphClkInit->PLLSAI.PLLSAIN , tmpreg0, PeriphClkInit->PLLSAI.PLLSAIQ, tmpreg1);
 8002a20:	fab8 f888 	clz	r8, r8
 8002a24:	fa9e feae 	rbit	lr, lr
 8002a28:	f04f 6270 	mov.w	r2, #251658240	; 0xf000000
 8002a2c:	fabe fe8e 	clz	lr, lr
 8002a30:	fa92 f2a2 	rbit	r2, r2
 8002a34:	f04f 45e0 	mov.w	r5, #1879048192	; 0x70000000
 8002a38:	fab2 f282 	clz	r2, r2
 8002a3c:	fa95 f5a5 	rbit	r5, r5
 8002a40:	69a1      	ldr	r1, [r4, #24]
 8002a42:	4091      	lsls	r1, r2
 8002a44:	6962      	ldr	r2, [r4, #20]
      assert_param(IS_RCC_PLLSAIQ_VALUE(PeriphClkInit->PLLSAI.PLLSAIQ));
      /* check for PLLSAI/DIVQ Parameter */
      assert_param(IS_RCC_PLLSAI_DIVQ_VALUE(PeriphClkInit->PLLSAIDivQ));
    
      /* Read PLLSAIP value from PLLSAICFGR register (this value is not needed for SAI configuration) */
      tmpreg0 = ((RCC->PLLSAICFGR & RCC_PLLSAICFGR_PLLSAIP) >> POSITION_VAL(RCC_PLLSAICFGR_PLLSAIP));
 8002a46:	f407 3740 	and.w	r7, r7, #196608	; 0x30000
      tmpreg1 = ((RCC->PLLSAICFGR & RCC_PLLI2SCFGR_PLLI2SR) >> POSITION_VAL(RCC_PLLSAICFGR_PLLSAIR));
      /* PLLSAI_VCO Input  = PLL_SOURCE/PLLM */
      /* PLLSAI_VCO Output = PLLSAI_VCO Input * PLLSAIN */
      /* SAI_CLK(first level) = PLLSAI_VCO Output/PLLSAIQ */
      __HAL_RCC_PLLSAI_CONFIG(PeriphClkInit->PLLSAI.PLLSAIN , tmpreg0, PeriphClkInit->PLLSAI.PLLSAIQ, tmpreg1);
 8002a4a:	fa02 f208 	lsl.w	r2, r2, r8
      assert_param(IS_RCC_PLLSAIQ_VALUE(PeriphClkInit->PLLSAI.PLLSAIQ));
      /* check for PLLSAI/DIVQ Parameter */
      assert_param(IS_RCC_PLLSAI_DIVQ_VALUE(PeriphClkInit->PLLSAIDivQ));
    
      /* Read PLLSAIP value from PLLSAICFGR register (this value is not needed for SAI configuration) */
      tmpreg0 = ((RCC->PLLSAICFGR & RCC_PLLSAICFGR_PLLSAIP) >> POSITION_VAL(RCC_PLLSAICFGR_PLLSAIP));
 8002a4e:	fa27 f70c 	lsr.w	r7, r7, ip
      tmpreg1 = ((RCC->PLLSAICFGR & RCC_PLLI2SCFGR_PLLI2SR) >> POSITION_VAL(RCC_PLLSAICFGR_PLLSAIR));
 8002a52:	f000 40e0 	and.w	r0, r0, #1879048192	; 0x70000000
      /* PLLSAI_VCO Input  = PLL_SOURCE/PLLM */
      /* PLLSAI_VCO Output = PLLSAI_VCO Input * PLLSAIN */
      /* SAI_CLK(first level) = PLLSAI_VCO Output/PLLSAIQ */
      __HAL_RCC_PLLSAI_CONFIG(PeriphClkInit->PLLSAI.PLLSAIN , tmpreg0, PeriphClkInit->PLLSAI.PLLSAIQ, tmpreg1);
 8002a56:	4311      	orrs	r1, r2
 8002a58:	fab5 f585 	clz	r5, r5
 8002a5c:	fa07 f70e 	lsl.w	r7, r7, lr
      /* check for PLLSAI/DIVQ Parameter */
      assert_param(IS_RCC_PLLSAI_DIVQ_VALUE(PeriphClkInit->PLLSAIDivQ));
    
      /* Read PLLSAIP value from PLLSAICFGR register (this value is not needed for SAI configuration) */
      tmpreg0 = ((RCC->PLLSAICFGR & RCC_PLLSAICFGR_PLLSAIP) >> POSITION_VAL(RCC_PLLSAICFGR_PLLSAIP));
      tmpreg1 = ((RCC->PLLSAICFGR & RCC_PLLI2SCFGR_PLLI2SR) >> POSITION_VAL(RCC_PLLSAICFGR_PLLSAIR));
 8002a60:	40f0      	lsrs	r0, r6
      /* PLLSAI_VCO Input  = PLL_SOURCE/PLLM */
      /* PLLSAI_VCO Output = PLLSAI_VCO Input * PLLSAIN */
      /* SAI_CLK(first level) = PLLSAI_VCO Output/PLLSAIQ */
      __HAL_RCC_PLLSAI_CONFIG(PeriphClkInit->PLLSAI.PLLSAIN , tmpreg0, PeriphClkInit->PLLSAI.PLLSAIQ, tmpreg1);
 8002a62:	4a2f      	ldr	r2, [pc, #188]	; (8002b20 <HAL_RCCEx_PeriphCLKConfig+0x758>)
 8002a64:	40a8      	lsls	r0, r5
 8002a66:	4339      	orrs	r1, r7
 8002a68:	4301      	orrs	r1, r0
 8002a6a:	f8c2 1088 	str.w	r1, [r2, #136]	; 0x88
      
      /* SAI_CLK_x = SAI_CLK(first level)/PLLSAIDIVQ */ 
      __HAL_RCC_PLLSAI_PLLSAICLKDIVQ_CONFIG(PeriphClkInit->PLLSAIDivQ);
 8002a6e:	f8d2 008c 	ldr.w	r0, [r2, #140]	; 0x8c
 8002a72:	6aa1      	ldr	r1, [r4, #40]	; 0x28
 8002a74:	f420 50f8 	bic.w	r0, r0, #7936	; 0x1f00
 8002a78:	3901      	subs	r1, #1
 8002a7a:	ea40 2101 	orr.w	r1, r0, r1, lsl #8
 8002a7e:	f8c2 108c 	str.w	r1, [r2, #140]	; 0x8c
 8002a82:	e74f      	b.n	8002924 <HAL_RCCEx_PeriphCLKConfig+0x55c>
    }           

    /*----------------- In Case of PLLSAI is selected as source clock for CLK48 -------------------*/   
    /* In Case of PLLI2S is selected as source clock for CK48 */ 
    if((((PeriphClkInit->PeriphClockSelection) & RCC_PERIPHCLK_CLK48) == RCC_PERIPHCLK_CLK48) && (PeriphClkInit->Clk48ClockSelection == RCC_CLK48SOURCE_PLLSAIP))
 8002a84:	6fe2      	ldr	r2, [r4, #124]	; 0x7c
 8002a86:	f1b2 6f00 	cmp.w	r2, #134217728	; 0x8000000
 8002a8a:	f47f af4e 	bne.w	800292a <HAL_RCCEx_PeriphCLKConfig+0x562>
    {
      /* check for Parameters */
      assert_param(IS_RCC_PLLSAIP_VALUE(PeriphClkInit->PLLSAI.PLLSAIP));
      /* Read PLLSAIQ and PLLSAIR value from PLLSAICFGR register (this value is not needed for CK48 configuration) */
      tmpreg0 = ((RCC->PLLSAICFGR & RCC_PLLSAICFGR_PLLSAIQ) >> POSITION_VAL(RCC_PLLSAICFGR_PLLSAIQ));
 8002a8e:	4a24      	ldr	r2, [pc, #144]	; (8002b20 <HAL_RCCEx_PeriphCLKConfig+0x758>)
 8002a90:	f04f 6c70 	mov.w	ip, #251658240	; 0xf000000
 8002a94:	f8d2 7088 	ldr.w	r7, [r2, #136]	; 0x88
 8002a98:	fa9c fcac 	rbit	ip, ip
 8002a9c:	f04f 46e0 	mov.w	r6, #1879048192	; 0x70000000
 8002aa0:	fabc fc8c 	clz	ip, ip
      tmpreg1 = ((RCC->PLLSAICFGR & RCC_PLLSAICFGR_PLLSAIR) >> POSITION_VAL(RCC_PLLSAICFGR_PLLSAIR));
 8002aa4:	f8d2 0088 	ldr.w	r0, [r2, #136]	; 0x88
 8002aa8:	fa96 f6a6 	rbit	r6, r6
 8002aac:	f647 78c0 	movw	r8, #32704	; 0x7fc0
 8002ab0:	fab6 f686 	clz	r6, r6
 8002ab4:	fa98 f8a8 	rbit	r8, r8
 8002ab8:	f44f 3240 	mov.w	r2, #196608	; 0x30000
      
      /* Configure the PLLSAI division factors */
      /* PLLSAI_VCO = f(VCO clock) = f(PLLSAI clock input) x (PLLI2SN/PLLM) */
      /* 48CLK = f(PLLSAI clock output) = f(VCO clock) / PLLSAIP */
      __HAL_RCC_PLLSAI_CONFIG(PeriphClkInit->PLLSAI.PLLSAIN , PeriphClkInit->PLLSAI.PLLSAIP, tmpreg0, tmpreg1);
 8002abc:	fab8 f888 	clz	r8, r8
 8002ac0:	fa92 f2a2 	rbit	r2, r2
 8002ac4:	f04f 6e70 	mov.w	lr, #251658240	; 0xf000000
 8002ac8:	fab2 f282 	clz	r2, r2
 8002acc:	fa9e feae 	rbit	lr, lr
 8002ad0:	f04f 45e0 	mov.w	r5, #1879048192	; 0x70000000
 8002ad4:	fabe fe8e 	clz	lr, lr
 8002ad8:	fa95 f5a5 	rbit	r5, r5
 8002adc:	6a21      	ldr	r1, [r4, #32]
 8002ade:	4091      	lsls	r1, r2
 8002ae0:	6962      	ldr	r2, [r4, #20]
    if((((PeriphClkInit->PeriphClockSelection) & RCC_PERIPHCLK_CLK48) == RCC_PERIPHCLK_CLK48) && (PeriphClkInit->Clk48ClockSelection == RCC_CLK48SOURCE_PLLSAIP))
    {
      /* check for Parameters */
      assert_param(IS_RCC_PLLSAIP_VALUE(PeriphClkInit->PLLSAI.PLLSAIP));
      /* Read PLLSAIQ and PLLSAIR value from PLLSAICFGR register (this value is not needed for CK48 configuration) */
      tmpreg0 = ((RCC->PLLSAICFGR & RCC_PLLSAICFGR_PLLSAIQ) >> POSITION_VAL(RCC_PLLSAICFGR_PLLSAIQ));
 8002ae2:	f007 6770 	and.w	r7, r7, #251658240	; 0xf000000
      tmpreg1 = ((RCC->PLLSAICFGR & RCC_PLLSAICFGR_PLLSAIR) >> POSITION_VAL(RCC_PLLSAICFGR_PLLSAIR));
      
      /* Configure the PLLSAI division factors */
      /* PLLSAI_VCO = f(VCO clock) = f(PLLSAI clock input) x (PLLI2SN/PLLM) */
      /* 48CLK = f(PLLSAI clock output) = f(VCO clock) / PLLSAIP */
      __HAL_RCC_PLLSAI_CONFIG(PeriphClkInit->PLLSAI.PLLSAIN , PeriphClkInit->PLLSAI.PLLSAIP, tmpreg0, tmpreg1);
 8002ae6:	fa02 f208 	lsl.w	r2, r2, r8
    if((((PeriphClkInit->PeriphClockSelection) & RCC_PERIPHCLK_CLK48) == RCC_PERIPHCLK_CLK48) && (PeriphClkInit->Clk48ClockSelection == RCC_CLK48SOURCE_PLLSAIP))
    {
      /* check for Parameters */
      assert_param(IS_RCC_PLLSAIP_VALUE(PeriphClkInit->PLLSAI.PLLSAIP));
      /* Read PLLSAIQ and PLLSAIR value from PLLSAICFGR register (this value is not needed for CK48 configuration) */
      tmpreg0 = ((RCC->PLLSAICFGR & RCC_PLLSAICFGR_PLLSAIQ) >> POSITION_VAL(RCC_PLLSAICFGR_PLLSAIQ));
 8002aea:	fa27 f70c 	lsr.w	r7, r7, ip
      tmpreg1 = ((RCC->PLLSAICFGR & RCC_PLLSAICFGR_PLLSAIR) >> POSITION_VAL(RCC_PLLSAICFGR_PLLSAIR));
 8002aee:	f000 40e0 	and.w	r0, r0, #1879048192	; 0x70000000
      
      /* Configure the PLLSAI division factors */
      /* PLLSAI_VCO = f(VCO clock) = f(PLLSAI clock input) x (PLLI2SN/PLLM) */
      /* 48CLK = f(PLLSAI clock output) = f(VCO clock) / PLLSAIP */
      __HAL_RCC_PLLSAI_CONFIG(PeriphClkInit->PLLSAI.PLLSAIN , PeriphClkInit->PLLSAI.PLLSAIP, tmpreg0, tmpreg1);
 8002af2:	fab5 f585 	clz	r5, r5
 8002af6:	430a      	orrs	r2, r1
 8002af8:	fa07 f70e 	lsl.w	r7, r7, lr
    {
      /* check for Parameters */
      assert_param(IS_RCC_PLLSAIP_VALUE(PeriphClkInit->PLLSAI.PLLSAIP));
      /* Read PLLSAIQ and PLLSAIR value from PLLSAICFGR register (this value is not needed for CK48 configuration) */
      tmpreg0 = ((RCC->PLLSAICFGR & RCC_PLLSAICFGR_PLLSAIQ) >> POSITION_VAL(RCC_PLLSAICFGR_PLLSAIQ));
      tmpreg1 = ((RCC->PLLSAICFGR & RCC_PLLSAICFGR_PLLSAIR) >> POSITION_VAL(RCC_PLLSAICFGR_PLLSAIR));
 8002afc:	40f0      	lsrs	r0, r6
      
      /* Configure the PLLSAI division factors */
      /* PLLSAI_VCO = f(VCO clock) = f(PLLSAI clock input) x (PLLI2SN/PLLM) */
      /* 48CLK = f(PLLSAI clock output) = f(VCO clock) / PLLSAIP */
      __HAL_RCC_PLLSAI_CONFIG(PeriphClkInit->PLLSAI.PLLSAIN , PeriphClkInit->PLLSAI.PLLSAIP, tmpreg0, tmpreg1);
 8002afe:	40a8      	lsls	r0, r5
 8002b00:	433a      	orrs	r2, r7
 8002b02:	4302      	orrs	r2, r0
 8002b04:	4806      	ldr	r0, [pc, #24]	; (8002b20 <HAL_RCCEx_PeriphCLKConfig+0x758>)
 8002b06:	f8c0 2088 	str.w	r2, [r0, #136]	; 0x88
 8002b0a:	e70e      	b.n	800292a <HAL_RCCEx_PeriphCLKConfig+0x562>
    tickstart = HAL_GetTick();

    /* Wait till PLLSAI is ready */
    while(__HAL_RCC_PLLSAI_GET_FLAG() == RESET)
    {
      if((HAL_GetTick() - tickstart) > PLLSAI_TIMEOUT_VALUE)
 8002b0c:	f000 fd24 	bl	8003558 <HAL_GetTick>
 8002b10:	1b00      	subs	r0, r0, r4
 8002b12:	2864      	cmp	r0, #100	; 0x64
 8002b14:	f67f af58 	bls.w	80029c8 <HAL_RCCEx_PeriphCLKConfig+0x600>
 8002b18:	e4b6      	b.n	8002488 <HAL_RCCEx_PeriphCLKConfig+0xc0>
        return HAL_TIMEOUT;
      }
    }
  }
  return HAL_OK;
}
 8002b1a:	b003      	add	sp, #12
 8002b1c:	e8bd 83f0 	ldmia.w	sp!, {r4, r5, r6, r7, r8, r9, pc}
 8002b20:	40023800 	.word	0x40023800

08002b24 <HAL_RCC_OscConfig>:
 
  /* Check the parameters */
  assert_param(IS_RCC_OSCILLATORTYPE(RCC_OscInitStruct->OscillatorType));
  
  /*------------------------------- HSE Configuration ------------------------*/ 
  if(((RCC_OscInitStruct->OscillatorType) & RCC_OSCILLATORTYPE_HSE) == RCC_OSCILLATORTYPE_HSE)
 8002b24:	6803      	ldr	r3, [r0, #0]
  *         contains the configuration information for the RCC Oscillators.
  * @note   The PLL is not disabled when used as system clock.
  * @retval HAL status
  */
HAL_StatusTypeDef HAL_RCC_OscConfig(RCC_OscInitTypeDef  *RCC_OscInitStruct)
{
 8002b26:	b5f7      	push	{r0, r1, r2, r4, r5, r6, r7, lr}
 8002b28:	4604      	mov	r4, r0
 
  /* Check the parameters */
  assert_param(IS_RCC_OSCILLATORTYPE(RCC_OscInitStruct->OscillatorType));
  
  /*------------------------------- HSE Configuration ------------------------*/ 
  if(((RCC_OscInitStruct->OscillatorType) & RCC_OSCILLATORTYPE_HSE) == RCC_OSCILLATORTYPE_HSE)
 8002b2a:	07d8      	lsls	r0, r3, #31
 8002b2c:	d403      	bmi.n	8002b36 <HAL_RCC_OscConfig+0x12>
        }
      }
    }
  }
  /*----------------------------- HSI Configuration --------------------------*/ 
  if(((RCC_OscInitStruct->OscillatorType) & RCC_OSCILLATORTYPE_HSI) == RCC_OSCILLATORTYPE_HSI)
 8002b2e:	6823      	ldr	r3, [r4, #0]
 8002b30:	0799      	lsls	r1, r3, #30
 8002b32:	d46d      	bmi.n	8002c10 <HAL_RCC_OscConfig+0xec>
 8002b34:	e0b4      	b.n	8002ca0 <HAL_RCC_OscConfig+0x17c>
  if(((RCC_OscInitStruct->OscillatorType) & RCC_OSCILLATORTYPE_HSE) == RCC_OSCILLATORTYPE_HSE)
  {
    /* Check the parameters */
    assert_param(IS_RCC_HSE(RCC_OscInitStruct->HSEState));
    /* When the HSE is used as system clock or clock source for PLL, It can not be disabled */
    if((__HAL_RCC_GET_SYSCLK_SOURCE() == RCC_SYSCLKSOURCE_STATUS_HSE) 
 8002b36:	4b9d      	ldr	r3, [pc, #628]	; (8002dac <HAL_RCC_OscConfig+0x288>)
 8002b38:	689a      	ldr	r2, [r3, #8]
 8002b3a:	f002 020c 	and.w	r2, r2, #12
 8002b3e:	2a04      	cmp	r2, #4
 8002b40:	d007      	beq.n	8002b52 <HAL_RCC_OscConfig+0x2e>
       || ((__HAL_RCC_GET_SYSCLK_SOURCE() == RCC_SYSCLKSOURCE_STATUS_PLLCLK) && ((RCC->PLLCFGR & RCC_PLLCFGR_PLLSRC) == RCC_PLLCFGR_PLLSRC_HSE)))
 8002b42:	689a      	ldr	r2, [r3, #8]
 8002b44:	f002 020c 	and.w	r2, r2, #12
 8002b48:	2a08      	cmp	r2, #8
 8002b4a:	d10b      	bne.n	8002b64 <HAL_RCC_OscConfig+0x40>
 8002b4c:	685b      	ldr	r3, [r3, #4]
 8002b4e:	025a      	lsls	r2, r3, #9
 8002b50:	d508      	bpl.n	8002b64 <HAL_RCC_OscConfig+0x40>
    {
	  if((__HAL_RCC_GET_FLAG(RCC_FLAG_HSERDY) != RESET) && (RCC_OscInitStruct->HSEState == RCC_HSE_OFF))
 8002b52:	4b96      	ldr	r3, [pc, #600]	; (8002dac <HAL_RCC_OscConfig+0x288>)
 8002b54:	681b      	ldr	r3, [r3, #0]
 8002b56:	039b      	lsls	r3, r3, #14
 8002b58:	d5e9      	bpl.n	8002b2e <HAL_RCC_OscConfig+0xa>
 8002b5a:	6863      	ldr	r3, [r4, #4]
 8002b5c:	2b00      	cmp	r3, #0
 8002b5e:	d1e6      	bne.n	8002b2e <HAL_RCC_OscConfig+0xa>
      {
        return HAL_ERROR;
 8002b60:	2001      	movs	r0, #1
 8002b62:	e1a6      	b.n	8002eb2 <HAL_RCC_OscConfig+0x38e>
      }
    }
    else
    {
      /* Reset HSEON and HSEBYP bits before configuring the HSE --------------*/
      __HAL_RCC_HSE_CONFIG(RCC_HSE_OFF);
 8002b64:	4b91      	ldr	r3, [pc, #580]	; (8002dac <HAL_RCC_OscConfig+0x288>)
 8002b66:	681a      	ldr	r2, [r3, #0]
 8002b68:	f422 3280 	bic.w	r2, r2, #65536	; 0x10000
 8002b6c:	601a      	str	r2, [r3, #0]
 8002b6e:	681a      	ldr	r2, [r3, #0]
 8002b70:	f422 2280 	bic.w	r2, r2, #262144	; 0x40000
 8002b74:	601a      	str	r2, [r3, #0]
 8002b76:	681a      	ldr	r2, [r3, #0]
 8002b78:	f422 3280 	bic.w	r2, r2, #65536	; 0x10000
 8002b7c:	601a      	str	r2, [r3, #0]
      
      /* Get Start Tick*/
      tickstart = HAL_GetTick();
 8002b7e:	f000 fceb 	bl	8003558 <HAL_GetTick>
 8002b82:	4605      	mov	r5, r0
      
      /* Wait till HSE is disabled */  
      while(__HAL_RCC_GET_FLAG(RCC_FLAG_HSERDY) != RESET)
 8002b84:	4b89      	ldr	r3, [pc, #548]	; (8002dac <HAL_RCC_OscConfig+0x288>)
 8002b86:	681a      	ldr	r2, [r3, #0]
 8002b88:	0397      	lsls	r7, r2, #14
 8002b8a:	d506      	bpl.n	8002b9a <HAL_RCC_OscConfig+0x76>
      {
        if((HAL_GetTick() - tickstart ) > HSE_TIMEOUT_VALUE)
 8002b8c:	f000 fce4 	bl	8003558 <HAL_GetTick>
 8002b90:	1b40      	subs	r0, r0, r5
 8002b92:	2864      	cmp	r0, #100	; 0x64
 8002b94:	d9f6      	bls.n	8002b84 <HAL_RCC_OscConfig+0x60>
        {
          return HAL_TIMEOUT;
 8002b96:	2003      	movs	r0, #3
 8002b98:	e18b      	b.n	8002eb2 <HAL_RCC_OscConfig+0x38e>
        }
      }
      
      /* Set the new HSE configuration ---------------------------------------*/
      __HAL_RCC_HSE_CONFIG(RCC_OscInitStruct->HSEState);
 8002b9a:	681a      	ldr	r2, [r3, #0]
 8002b9c:	f422 3280 	bic.w	r2, r2, #65536	; 0x10000
 8002ba0:	601a      	str	r2, [r3, #0]
 8002ba2:	6862      	ldr	r2, [r4, #4]
 8002ba4:	f5b2 3f80 	cmp.w	r2, #65536	; 0x10000
 8002ba8:	d103      	bne.n	8002bb2 <HAL_RCC_OscConfig+0x8e>
 8002baa:	681a      	ldr	r2, [r3, #0]
 8002bac:	f422 2280 	bic.w	r2, r2, #262144	; 0x40000
 8002bb0:	e005      	b.n	8002bbe <HAL_RCC_OscConfig+0x9a>
 8002bb2:	f5b2 2fa0 	cmp.w	r2, #327680	; 0x50000
 8002bb6:	d108      	bne.n	8002bca <HAL_RCC_OscConfig+0xa6>
 8002bb8:	681a      	ldr	r2, [r3, #0]
 8002bba:	f442 2280 	orr.w	r2, r2, #262144	; 0x40000
 8002bbe:	601a      	str	r2, [r3, #0]
 8002bc0:	681a      	ldr	r2, [r3, #0]
 8002bc2:	f442 3280 	orr.w	r2, r2, #65536	; 0x10000
 8002bc6:	601a      	str	r2, [r3, #0]
 8002bc8:	e008      	b.n	8002bdc <HAL_RCC_OscConfig+0xb8>
 8002bca:	6819      	ldr	r1, [r3, #0]
 8002bcc:	f421 2180 	bic.w	r1, r1, #262144	; 0x40000
 8002bd0:	6019      	str	r1, [r3, #0]
 8002bd2:	6819      	ldr	r1, [r3, #0]
 8002bd4:	f421 3180 	bic.w	r1, r1, #65536	; 0x10000
 8002bd8:	6019      	str	r1, [r3, #0]
      
      /* Check the HSE State */
      if(RCC_OscInitStruct->HSEState != RCC_HSE_OFF)
 8002bda:	b162      	cbz	r2, 8002bf6 <HAL_RCC_OscConfig+0xd2>
      {
        /* Get Start Tick*/
        tickstart = HAL_GetTick();
 8002bdc:	f000 fcbc 	bl	8003558 <HAL_GetTick>
 8002be0:	4605      	mov	r5, r0
        
        /* Wait till HSE is ready */  
        while(__HAL_RCC_GET_FLAG(RCC_FLAG_HSERDY) == RESET)
 8002be2:	4b72      	ldr	r3, [pc, #456]	; (8002dac <HAL_RCC_OscConfig+0x288>)
 8002be4:	681b      	ldr	r3, [r3, #0]
 8002be6:	039e      	lsls	r6, r3, #14
 8002be8:	d4a1      	bmi.n	8002b2e <HAL_RCC_OscConfig+0xa>
        {
          if((HAL_GetTick() - tickstart ) > HSE_TIMEOUT_VALUE)
 8002bea:	f000 fcb5 	bl	8003558 <HAL_GetTick>
 8002bee:	1b40      	subs	r0, r0, r5
 8002bf0:	2864      	cmp	r0, #100	; 0x64
 8002bf2:	d9f6      	bls.n	8002be2 <HAL_RCC_OscConfig+0xbe>
 8002bf4:	e7cf      	b.n	8002b96 <HAL_RCC_OscConfig+0x72>
        }
      }
      else
      {
        /* Get Start Tick*/
        tickstart = HAL_GetTick();
 8002bf6:	f000 fcaf 	bl	8003558 <HAL_GetTick>
 8002bfa:	4605      	mov	r5, r0
        
        /* Wait till HSE is bypassed or disabled */
        while(__HAL_RCC_GET_FLAG(RCC_FLAG_HSERDY) != RESET)
 8002bfc:	4b6b      	ldr	r3, [pc, #428]	; (8002dac <HAL_RCC_OscConfig+0x288>)
 8002bfe:	681b      	ldr	r3, [r3, #0]
 8002c00:	0398      	lsls	r0, r3, #14
 8002c02:	d594      	bpl.n	8002b2e <HAL_RCC_OscConfig+0xa>
        {
           if((HAL_GetTick() - tickstart ) > HSE_TIMEOUT_VALUE)
 8002c04:	f000 fca8 	bl	8003558 <HAL_GetTick>
 8002c08:	1b40      	subs	r0, r0, r5
 8002c0a:	2864      	cmp	r0, #100	; 0x64
 8002c0c:	d9f6      	bls.n	8002bfc <HAL_RCC_OscConfig+0xd8>
 8002c0e:	e7c2      	b.n	8002b96 <HAL_RCC_OscConfig+0x72>
    /* Check the parameters */
    assert_param(IS_RCC_HSI(RCC_OscInitStruct->HSIState));
    assert_param(IS_RCC_CALIBRATION_VALUE(RCC_OscInitStruct->HSICalibrationValue));
    
    /* Check if HSI is used as system clock or as PLL source when PLL is selected as system clock */ 
    if((__HAL_RCC_GET_SYSCLK_SOURCE() == RCC_SYSCLKSOURCE_STATUS_HSI) 
 8002c10:	4b66      	ldr	r3, [pc, #408]	; (8002dac <HAL_RCC_OscConfig+0x288>)
 8002c12:	689a      	ldr	r2, [r3, #8]
 8002c14:	f012 0f0c 	tst.w	r2, #12
 8002c18:	d007      	beq.n	8002c2a <HAL_RCC_OscConfig+0x106>
       || ((__HAL_RCC_GET_SYSCLK_SOURCE() == RCC_SYSCLKSOURCE_STATUS_PLLCLK) && ((RCC->PLLCFGR & RCC_PLLCFGR_PLLSRC) == RCC_PLLCFGR_PLLSRC_HSI)))
 8002c1a:	689a      	ldr	r2, [r3, #8]
 8002c1c:	f002 020c 	and.w	r2, r2, #12
 8002c20:	2a08      	cmp	r2, #8
 8002c22:	d10a      	bne.n	8002c3a <HAL_RCC_OscConfig+0x116>
 8002c24:	685b      	ldr	r3, [r3, #4]
 8002c26:	0259      	lsls	r1, r3, #9
 8002c28:	d407      	bmi.n	8002c3a <HAL_RCC_OscConfig+0x116>
    {
      /* When HSI is used as system clock it will not disabled */
      if((__HAL_RCC_GET_FLAG(RCC_FLAG_HSIRDY) != RESET) && (RCC_OscInitStruct->HSIState != RCC_HSI_ON))
 8002c2a:	4b60      	ldr	r3, [pc, #384]	; (8002dac <HAL_RCC_OscConfig+0x288>)
 8002c2c:	681a      	ldr	r2, [r3, #0]
 8002c2e:	0792      	lsls	r2, r2, #30
 8002c30:	d517      	bpl.n	8002c62 <HAL_RCC_OscConfig+0x13e>
 8002c32:	68e2      	ldr	r2, [r4, #12]
 8002c34:	2a01      	cmp	r2, #1
 8002c36:	d193      	bne.n	8002b60 <HAL_RCC_OscConfig+0x3c>
 8002c38:	e013      	b.n	8002c62 <HAL_RCC_OscConfig+0x13e>
      }
    }
    else
    {
      /* Check the HSI State */
      if((RCC_OscInitStruct->HSIState)!= RCC_HSI_OFF)
 8002c3a:	68e2      	ldr	r2, [r4, #12]
 8002c3c:	4b5b      	ldr	r3, [pc, #364]	; (8002dac <HAL_RCC_OscConfig+0x288>)
 8002c3e:	b1f2      	cbz	r2, 8002c7e <HAL_RCC_OscConfig+0x15a>
      {
        /* Enable the Internal High Speed oscillator (HSI). */
        __HAL_RCC_HSI_ENABLE();
 8002c40:	681a      	ldr	r2, [r3, #0]
 8002c42:	f042 0201 	orr.w	r2, r2, #1
 8002c46:	601a      	str	r2, [r3, #0]

        /* Get Start Tick*/
        tickstart = HAL_GetTick();
 8002c48:	f000 fc86 	bl	8003558 <HAL_GetTick>
 8002c4c:	4605      	mov	r5, r0

        /* Wait till HSI is ready */  
        while(__HAL_RCC_GET_FLAG(RCC_FLAG_HSIRDY) == RESET)
 8002c4e:	4b57      	ldr	r3, [pc, #348]	; (8002dac <HAL_RCC_OscConfig+0x288>)
 8002c50:	681a      	ldr	r2, [r3, #0]
 8002c52:	0797      	lsls	r7, r2, #30
 8002c54:	d405      	bmi.n	8002c62 <HAL_RCC_OscConfig+0x13e>
        {
          if((HAL_GetTick() - tickstart ) > HSI_TIMEOUT_VALUE)
 8002c56:	f000 fc7f 	bl	8003558 <HAL_GetTick>
 8002c5a:	1b40      	subs	r0, r0, r5
 8002c5c:	2864      	cmp	r0, #100	; 0x64
 8002c5e:	d9f6      	bls.n	8002c4e <HAL_RCC_OscConfig+0x12a>
 8002c60:	e799      	b.n	8002b96 <HAL_RCC_OscConfig+0x72>
            return HAL_TIMEOUT;
          }
        }
                
        /* Adjusts the Internal High Speed oscillator (HSI) calibration value.*/
        __HAL_RCC_HSI_CALIBRATIONVALUE_ADJUST(RCC_OscInitStruct->HSICalibrationValue);
 8002c62:	681a      	ldr	r2, [r3, #0]
 8002c64:	21f8      	movs	r1, #248	; 0xf8
 8002c66:	fa91 f1a1 	rbit	r1, r1
 8002c6a:	6923      	ldr	r3, [r4, #16]
 8002c6c:	fab1 f181 	clz	r1, r1
 8002c70:	f022 02f8 	bic.w	r2, r2, #248	; 0xf8
 8002c74:	408b      	lsls	r3, r1
 8002c76:	4313      	orrs	r3, r2
 8002c78:	4a4c      	ldr	r2, [pc, #304]	; (8002dac <HAL_RCC_OscConfig+0x288>)
 8002c7a:	6013      	str	r3, [r2, #0]
 8002c7c:	e010      	b.n	8002ca0 <HAL_RCC_OscConfig+0x17c>
      }
      else
      {
        /* Disable the Internal High Speed oscillator (HSI). */
        __HAL_RCC_HSI_DISABLE();
 8002c7e:	681a      	ldr	r2, [r3, #0]
 8002c80:	f022 0201 	bic.w	r2, r2, #1
 8002c84:	601a      	str	r2, [r3, #0]

        /* Get Start Tick*/
        tickstart = HAL_GetTick();
 8002c86:	f000 fc67 	bl	8003558 <HAL_GetTick>
 8002c8a:	4605      	mov	r5, r0
      
        /* Wait till HSI is ready */  
        while(__HAL_RCC_GET_FLAG(RCC_FLAG_HSIRDY) != RESET)
 8002c8c:	4b47      	ldr	r3, [pc, #284]	; (8002dac <HAL_RCC_OscConfig+0x288>)
 8002c8e:	681b      	ldr	r3, [r3, #0]
 8002c90:	079e      	lsls	r6, r3, #30
 8002c92:	d505      	bpl.n	8002ca0 <HAL_RCC_OscConfig+0x17c>
        {
          if((HAL_GetTick() - tickstart ) > HSI_TIMEOUT_VALUE)
 8002c94:	f000 fc60 	bl	8003558 <HAL_GetTick>
 8002c98:	1b40      	subs	r0, r0, r5
 8002c9a:	2864      	cmp	r0, #100	; 0x64
 8002c9c:	d9f6      	bls.n	8002c8c <HAL_RCC_OscConfig+0x168>
 8002c9e:	e77a      	b.n	8002b96 <HAL_RCC_OscConfig+0x72>
        } 
      }
    }
  }
  /*------------------------------ LSI Configuration -------------------------*/
  if(((RCC_OscInitStruct->OscillatorType) & RCC_OSCILLATORTYPE_LSI) == RCC_OSCILLATORTYPE_LSI)
 8002ca0:	6823      	ldr	r3, [r4, #0]
 8002ca2:	071d      	lsls	r5, r3, #28
 8002ca4:	d403      	bmi.n	8002cae <HAL_RCC_OscConfig+0x18a>
        }
      }
    }
  }
  /*------------------------------ LSE Configuration -------------------------*/ 
  if(((RCC_OscInitStruct->OscillatorType) & RCC_OSCILLATORTYPE_LSE) == RCC_OSCILLATORTYPE_LSE)
 8002ca6:	6823      	ldr	r3, [r4, #0]
 8002ca8:	0758      	lsls	r0, r3, #29
 8002caa:	d567      	bpl.n	8002d7c <HAL_RCC_OscConfig+0x258>
 8002cac:	e024      	b.n	8002cf8 <HAL_RCC_OscConfig+0x1d4>
  {
    /* Check the parameters */
    assert_param(IS_RCC_LSI(RCC_OscInitStruct->LSIState));

    /* Check the LSI State */
    if((RCC_OscInitStruct->LSIState)!= RCC_LSI_OFF)
 8002cae:	6962      	ldr	r2, [r4, #20]
 8002cb0:	4b3e      	ldr	r3, [pc, #248]	; (8002dac <HAL_RCC_OscConfig+0x288>)
 8002cb2:	b182      	cbz	r2, 8002cd6 <HAL_RCC_OscConfig+0x1b2>
    {
      /* Enable the Internal Low Speed oscillator (LSI). */
      __HAL_RCC_LSI_ENABLE();
 8002cb4:	6f5a      	ldr	r2, [r3, #116]	; 0x74
 8002cb6:	f042 0201 	orr.w	r2, r2, #1
 8002cba:	675a      	str	r2, [r3, #116]	; 0x74
      
      /* Get Start Tick*/
      tickstart = HAL_GetTick();
 8002cbc:	f000 fc4c 	bl	8003558 <HAL_GetTick>
 8002cc0:	4605      	mov	r5, r0
      
      /* Wait till LSI is ready */
      while(__HAL_RCC_GET_FLAG(RCC_FLAG_LSIRDY) == RESET)
 8002cc2:	4b3a      	ldr	r3, [pc, #232]	; (8002dac <HAL_RCC_OscConfig+0x288>)
 8002cc4:	6f5b      	ldr	r3, [r3, #116]	; 0x74
 8002cc6:	0799      	lsls	r1, r3, #30
 8002cc8:	d4ed      	bmi.n	8002ca6 <HAL_RCC_OscConfig+0x182>
      {
        if((HAL_GetTick() - tickstart ) > LSI_TIMEOUT_VALUE)
 8002cca:	f000 fc45 	bl	8003558 <HAL_GetTick>
 8002cce:	1b40      	subs	r0, r0, r5
 8002cd0:	2864      	cmp	r0, #100	; 0x64
 8002cd2:	d9f6      	bls.n	8002cc2 <HAL_RCC_OscConfig+0x19e>
 8002cd4:	e75f      	b.n	8002b96 <HAL_RCC_OscConfig+0x72>
      }
    }
    else
    {
      /* Disable the Internal Low Speed oscillator (LSI). */
      __HAL_RCC_LSI_DISABLE();
 8002cd6:	6f5a      	ldr	r2, [r3, #116]	; 0x74
 8002cd8:	f022 0201 	bic.w	r2, r2, #1
 8002cdc:	675a      	str	r2, [r3, #116]	; 0x74
      
      /* Get Start Tick*/
      tickstart = HAL_GetTick();
 8002cde:	f000 fc3b 	bl	8003558 <HAL_GetTick>
 8002ce2:	4605      	mov	r5, r0
      
      /* Wait till LSI is ready */  
      while(__HAL_RCC_GET_FLAG(RCC_FLAG_LSIRDY) != RESET)
 8002ce4:	4b31      	ldr	r3, [pc, #196]	; (8002dac <HAL_RCC_OscConfig+0x288>)
 8002ce6:	6f5b      	ldr	r3, [r3, #116]	; 0x74
 8002ce8:	079a      	lsls	r2, r3, #30
 8002cea:	d5dc      	bpl.n	8002ca6 <HAL_RCC_OscConfig+0x182>
      {
        if((HAL_GetTick() - tickstart ) > LSI_TIMEOUT_VALUE)
 8002cec:	f000 fc34 	bl	8003558 <HAL_GetTick>
 8002cf0:	1b40      	subs	r0, r0, r5
 8002cf2:	2864      	cmp	r0, #100	; 0x64
 8002cf4:	d9f6      	bls.n	8002ce4 <HAL_RCC_OscConfig+0x1c0>
 8002cf6:	e74e      	b.n	8002b96 <HAL_RCC_OscConfig+0x72>
  {
    /* Check the parameters */
    assert_param(IS_RCC_LSE(RCC_OscInitStruct->LSEState));
    
    /* Enable Power Clock*/
    __HAL_RCC_PWR_CLK_ENABLE();
 8002cf8:	2300      	movs	r3, #0
 8002cfa:	9301      	str	r3, [sp, #4]
 8002cfc:	4b2b      	ldr	r3, [pc, #172]	; (8002dac <HAL_RCC_OscConfig+0x288>)
 8002cfe:	6c1a      	ldr	r2, [r3, #64]	; 0x40
 8002d00:	f042 5280 	orr.w	r2, r2, #268435456	; 0x10000000
 8002d04:	641a      	str	r2, [r3, #64]	; 0x40
 8002d06:	6c1b      	ldr	r3, [r3, #64]	; 0x40
 8002d08:	f003 5380 	and.w	r3, r3, #268435456	; 0x10000000
 8002d0c:	9301      	str	r3, [sp, #4]
 8002d0e:	9b01      	ldr	r3, [sp, #4]
    
    /* Enable write access to Backup domain */
    PWR->CR1 |= PWR_CR1_DBP;
 8002d10:	4b27      	ldr	r3, [pc, #156]	; (8002db0 <HAL_RCC_OscConfig+0x28c>)
 8002d12:	681a      	ldr	r2, [r3, #0]
 8002d14:	f442 7280 	orr.w	r2, r2, #256	; 0x100
 8002d18:	601a      	str	r2, [r3, #0]
    
    /* Wait for Backup domain Write protection disable */
    tickstart = HAL_GetTick();
 8002d1a:	f000 fc1d 	bl	8003558 <HAL_GetTick>
 8002d1e:	4605      	mov	r5, r0
    
    while((PWR->CR1 & PWR_CR1_DBP) == RESET)
 8002d20:	4b23      	ldr	r3, [pc, #140]	; (8002db0 <HAL_RCC_OscConfig+0x28c>)
 8002d22:	681b      	ldr	r3, [r3, #0]
 8002d24:	05db      	lsls	r3, r3, #23
 8002d26:	d52d      	bpl.n	8002d84 <HAL_RCC_OscConfig+0x260>
        return HAL_TIMEOUT;
      }      
    }
    
    /* Reset LSEON and LSEBYP bits before configuring the LSE ----------------*/
    __HAL_RCC_LSE_CONFIG(RCC_LSE_OFF);
 8002d28:	4b20      	ldr	r3, [pc, #128]	; (8002dac <HAL_RCC_OscConfig+0x288>)
 8002d2a:	6f1a      	ldr	r2, [r3, #112]	; 0x70
 8002d2c:	f022 0201 	bic.w	r2, r2, #1
 8002d30:	671a      	str	r2, [r3, #112]	; 0x70
 8002d32:	6f1a      	ldr	r2, [r3, #112]	; 0x70
 8002d34:	f022 0204 	bic.w	r2, r2, #4
 8002d38:	671a      	str	r2, [r3, #112]	; 0x70
 8002d3a:	6f1a      	ldr	r2, [r3, #112]	; 0x70
 8002d3c:	f022 0201 	bic.w	r2, r2, #1
 8002d40:	671a      	str	r2, [r3, #112]	; 0x70
    
    /* Get Start Tick*/
    tickstart = HAL_GetTick();
 8002d42:	f000 fc09 	bl	8003558 <HAL_GetTick>
 8002d46:	4605      	mov	r5, r0
    
    /* Wait till LSE is ready */  
    while(__HAL_RCC_GET_FLAG(RCC_FLAG_LSERDY) != RESET)
 8002d48:	4b18      	ldr	r3, [pc, #96]	; (8002dac <HAL_RCC_OscConfig+0x288>)
 8002d4a:	6f1a      	ldr	r2, [r3, #112]	; 0x70
 8002d4c:	0797      	lsls	r7, r2, #30
 8002d4e:	d41f      	bmi.n	8002d90 <HAL_RCC_OscConfig+0x26c>
        return HAL_TIMEOUT;
      }    
    } 
    
    /* Set the new LSE configuration -----------------------------------------*/
    __HAL_RCC_LSE_CONFIG(RCC_OscInitStruct->LSEState);
 8002d50:	6f1a      	ldr	r2, [r3, #112]	; 0x70
 8002d52:	f022 0201 	bic.w	r2, r2, #1
 8002d56:	671a      	str	r2, [r3, #112]	; 0x70
 8002d58:	68a2      	ldr	r2, [r4, #8]
 8002d5a:	2a01      	cmp	r2, #1
 8002d5c:	d120      	bne.n	8002da0 <HAL_RCC_OscConfig+0x27c>
 8002d5e:	6f1a      	ldr	r2, [r3, #112]	; 0x70
 8002d60:	f022 0204 	bic.w	r2, r2, #4
 8002d64:	671a      	str	r2, [r3, #112]	; 0x70
 8002d66:	6f1a      	ldr	r2, [r3, #112]	; 0x70
 8002d68:	f042 0201 	orr.w	r2, r2, #1
 8002d6c:	671a      	str	r2, [r3, #112]	; 0x70
    /* Check the LSE State */
    if((RCC_OscInitStruct->LSEState) != RCC_LSE_OFF)
    {
      /* Get Start Tick*/
      tickstart = HAL_GetTick();
 8002d6e:	f000 fbf3 	bl	8003558 <HAL_GetTick>
 8002d72:	4605      	mov	r5, r0
      
      /* Wait till LSE is ready */  
      while(__HAL_RCC_GET_FLAG(RCC_FLAG_LSERDY) == RESET)
 8002d74:	4b0d      	ldr	r3, [pc, #52]	; (8002dac <HAL_RCC_OscConfig+0x288>)
 8002d76:	6f1b      	ldr	r3, [r3, #112]	; 0x70
 8002d78:	079e      	lsls	r6, r3, #30
 8002d7a:	d525      	bpl.n	8002dc8 <HAL_RCC_OscConfig+0x2a4>
    }
  }
  /*-------------------------------- PLL Configuration -----------------------*/
  /* Check the parameters */
  assert_param(IS_RCC_PLL(RCC_OscInitStruct->PLL.PLLState));
  if ((RCC_OscInitStruct->PLL.PLLState) != RCC_PLL_NONE)
 8002d7c:	69a2      	ldr	r2, [r4, #24]
 8002d7e:	2a00      	cmp	r2, #0
 8002d80:	d139      	bne.n	8002df6 <HAL_RCC_OscConfig+0x2d2>
 8002d82:	e07b      	b.n	8002e7c <HAL_RCC_OscConfig+0x358>
    /* Wait for Backup domain Write protection disable */
    tickstart = HAL_GetTick();
    
    while((PWR->CR1 & PWR_CR1_DBP) == RESET)
    {
      if((HAL_GetTick() - tickstart ) > RCC_DBP_TIMEOUT_VALUE)
 8002d84:	f000 fbe8 	bl	8003558 <HAL_GetTick>
 8002d88:	1b40      	subs	r0, r0, r5
 8002d8a:	2864      	cmp	r0, #100	; 0x64
 8002d8c:	d9c8      	bls.n	8002d20 <HAL_RCC_OscConfig+0x1fc>
 8002d8e:	e702      	b.n	8002b96 <HAL_RCC_OscConfig+0x72>
    tickstart = HAL_GetTick();
    
    /* Wait till LSE is ready */  
    while(__HAL_RCC_GET_FLAG(RCC_FLAG_LSERDY) != RESET)
    {
      if((HAL_GetTick() - tickstart ) > RCC_LSE_TIMEOUT_VALUE)
 8002d90:	f000 fbe2 	bl	8003558 <HAL_GetTick>
 8002d94:	f241 3388 	movw	r3, #5000	; 0x1388
 8002d98:	1b40      	subs	r0, r0, r5
 8002d9a:	4298      	cmp	r0, r3
 8002d9c:	d9d4      	bls.n	8002d48 <HAL_RCC_OscConfig+0x224>
 8002d9e:	e6fa      	b.n	8002b96 <HAL_RCC_OscConfig+0x72>
        return HAL_TIMEOUT;
      }    
    } 
    
    /* Set the new LSE configuration -----------------------------------------*/
    __HAL_RCC_LSE_CONFIG(RCC_OscInitStruct->LSEState);
 8002da0:	2a05      	cmp	r2, #5
 8002da2:	d107      	bne.n	8002db4 <HAL_RCC_OscConfig+0x290>
 8002da4:	6f1a      	ldr	r2, [r3, #112]	; 0x70
 8002da6:	f042 0204 	orr.w	r2, r2, #4
 8002daa:	e7db      	b.n	8002d64 <HAL_RCC_OscConfig+0x240>
 8002dac:	40023800 	.word	0x40023800
 8002db0:	40007000 	.word	0x40007000
 8002db4:	6f19      	ldr	r1, [r3, #112]	; 0x70
 8002db6:	f021 0104 	bic.w	r1, r1, #4
 8002dba:	6719      	str	r1, [r3, #112]	; 0x70
 8002dbc:	6f19      	ldr	r1, [r3, #112]	; 0x70
 8002dbe:	f021 0101 	bic.w	r1, r1, #1
 8002dc2:	6719      	str	r1, [r3, #112]	; 0x70
    /* Check the LSE State */
    if((RCC_OscInitStruct->LSEState) != RCC_LSE_OFF)
 8002dc4:	b142      	cbz	r2, 8002dd8 <HAL_RCC_OscConfig+0x2b4>
 8002dc6:	e7d2      	b.n	8002d6e <HAL_RCC_OscConfig+0x24a>
      tickstart = HAL_GetTick();
      
      /* Wait till LSE is ready */  
      while(__HAL_RCC_GET_FLAG(RCC_FLAG_LSERDY) == RESET)
      {
        if((HAL_GetTick() - tickstart ) > RCC_LSE_TIMEOUT_VALUE)
 8002dc8:	f000 fbc6 	bl	8003558 <HAL_GetTick>
 8002dcc:	f241 3388 	movw	r3, #5000	; 0x1388
 8002dd0:	1b40      	subs	r0, r0, r5
 8002dd2:	4298      	cmp	r0, r3
 8002dd4:	d9ce      	bls.n	8002d74 <HAL_RCC_OscConfig+0x250>
 8002dd6:	e6de      	b.n	8002b96 <HAL_RCC_OscConfig+0x72>
      }
    }
    else
    {
      /* Get Start Tick*/
      tickstart = HAL_GetTick();
 8002dd8:	f000 fbbe 	bl	8003558 <HAL_GetTick>
 8002ddc:	4605      	mov	r5, r0
      
      /* Wait till LSE is ready */  
      while(__HAL_RCC_GET_FLAG(RCC_FLAG_LSERDY) != RESET)
 8002dde:	4b36      	ldr	r3, [pc, #216]	; (8002eb8 <HAL_RCC_OscConfig+0x394>)
 8002de0:	6f1b      	ldr	r3, [r3, #112]	; 0x70
 8002de2:	0798      	lsls	r0, r3, #30
 8002de4:	d5ca      	bpl.n	8002d7c <HAL_RCC_OscConfig+0x258>
      {
        if((HAL_GetTick() - tickstart ) > RCC_LSE_TIMEOUT_VALUE)
 8002de6:	f000 fbb7 	bl	8003558 <HAL_GetTick>
 8002dea:	f241 3388 	movw	r3, #5000	; 0x1388
 8002dee:	1b40      	subs	r0, r0, r5
 8002df0:	4298      	cmp	r0, r3
 8002df2:	d9f4      	bls.n	8002dde <HAL_RCC_OscConfig+0x2ba>
 8002df4:	e6cf      	b.n	8002b96 <HAL_RCC_OscConfig+0x72>
  /* Check the parameters */
  assert_param(IS_RCC_PLL(RCC_OscInitStruct->PLL.PLLState));
  if ((RCC_OscInitStruct->PLL.PLLState) != RCC_PLL_NONE)
  {
    /* Check if the PLL is used as system clock or not */
    if(__HAL_RCC_GET_SYSCLK_SOURCE() != RCC_SYSCLKSOURCE_STATUS_PLLCLK)
 8002df6:	4b30      	ldr	r3, [pc, #192]	; (8002eb8 <HAL_RCC_OscConfig+0x394>)
 8002df8:	6899      	ldr	r1, [r3, #8]
 8002dfa:	f001 010c 	and.w	r1, r1, #12
 8002dfe:	2908      	cmp	r1, #8
 8002e00:	f43f aeae 	beq.w	8002b60 <HAL_RCC_OscConfig+0x3c>
    { 
      if((RCC_OscInitStruct->PLL.PLLState) == RCC_PLL_ON)
 8002e04:	2a02      	cmp	r2, #2
        assert_param(IS_RCC_PLLN_VALUE(RCC_OscInitStruct->PLL.PLLN));
        assert_param(IS_RCC_PLLP_VALUE(RCC_OscInitStruct->PLL.PLLP));
        assert_param(IS_RCC_PLLQ_VALUE(RCC_OscInitStruct->PLL.PLLQ));
        
        /* Disable the main PLL. */
        __HAL_RCC_PLL_DISABLE();
 8002e06:	681a      	ldr	r2, [r3, #0]
 8002e08:	f022 7280 	bic.w	r2, r2, #16777216	; 0x1000000
 8002e0c:	601a      	str	r2, [r3, #0]
  if ((RCC_OscInitStruct->PLL.PLLState) != RCC_PLL_NONE)
  {
    /* Check if the PLL is used as system clock or not */
    if(__HAL_RCC_GET_SYSCLK_SOURCE() != RCC_SYSCLKSOURCE_STATUS_PLLCLK)
    { 
      if((RCC_OscInitStruct->PLL.PLLState) == RCC_PLL_ON)
 8002e0e:	d143      	bne.n	8002e98 <HAL_RCC_OscConfig+0x374>
        
        /* Disable the main PLL. */
        __HAL_RCC_PLL_DISABLE();
        
        /* Get Start Tick*/
        tickstart = HAL_GetTick();
 8002e10:	f000 fba2 	bl	8003558 <HAL_GetTick>
 8002e14:	4605      	mov	r5, r0
        
        /* Wait till PLL is ready */  
        while(__HAL_RCC_GET_FLAG(RCC_FLAG_PLLRDY) != RESET)
 8002e16:	4b28      	ldr	r3, [pc, #160]	; (8002eb8 <HAL_RCC_OscConfig+0x394>)
 8002e18:	681b      	ldr	r3, [r3, #0]
 8002e1a:	0199      	lsls	r1, r3, #6
 8002e1c:	d430      	bmi.n	8002e80 <HAL_RCC_OscConfig+0x35c>
 8002e1e:	f647 77c0 	movw	r7, #32704	; 0x7fc0
 8002e22:	fa97 f7a7 	rbit	r7, r7
 8002e26:	f44f 3640 	mov.w	r6, #196608	; 0x30000
            return HAL_TIMEOUT;
          }
        }
        
        /* Configure the main PLL clock source, multiplication and division factors. */
        __HAL_RCC_PLL_CONFIG(RCC_OscInitStruct->PLL.PLLSource,
 8002e2a:	fab7 f787 	clz	r7, r7
 8002e2e:	fa96 f6a6 	rbit	r6, r6
 8002e32:	f04f 6570 	mov.w	r5, #251658240	; 0xf000000
 8002e36:	fab6 f686 	clz	r6, r6
 8002e3a:	fa95 f5a5 	rbit	r5, r5
 8002e3e:	6a20      	ldr	r0, [r4, #32]
 8002e40:	69e1      	ldr	r1, [r4, #28]
 8002e42:	6aa3      	ldr	r3, [r4, #40]	; 0x28
 8002e44:	6a62      	ldr	r2, [r4, #36]	; 0x24
 8002e46:	6ae4      	ldr	r4, [r4, #44]	; 0x2c
 8002e48:	4301      	orrs	r1, r0
 8002e4a:	085b      	lsrs	r3, r3, #1
 8002e4c:	f041 5100 	orr.w	r1, r1, #536870912	; 0x20000000
 8002e50:	40ba      	lsls	r2, r7
 8002e52:	3b01      	subs	r3, #1
 8002e54:	430a      	orrs	r2, r1
 8002e56:	40b3      	lsls	r3, r6
 8002e58:	fab5 f585 	clz	r5, r5
 8002e5c:	431a      	orrs	r2, r3
 8002e5e:	40ac      	lsls	r4, r5
 8002e60:	4b15      	ldr	r3, [pc, #84]	; (8002eb8 <HAL_RCC_OscConfig+0x394>)
 8002e62:	4322      	orrs	r2, r4
 8002e64:	605a      	str	r2, [r3, #4]
                             RCC_OscInitStruct->PLL.PLLM,
                             RCC_OscInitStruct->PLL.PLLN,
                             RCC_OscInitStruct->PLL.PLLP,
                             RCC_OscInitStruct->PLL.PLLQ);
        /* Enable the main PLL. */
        __HAL_RCC_PLL_ENABLE();
 8002e66:	681a      	ldr	r2, [r3, #0]
 8002e68:	f042 7280 	orr.w	r2, r2, #16777216	; 0x1000000
 8002e6c:	601a      	str	r2, [r3, #0]

        /* Get Start Tick*/
        tickstart = HAL_GetTick();
 8002e6e:	f000 fb73 	bl	8003558 <HAL_GetTick>
 8002e72:	4604      	mov	r4, r0
        
        /* Wait till PLL is ready */  
        while(__HAL_RCC_GET_FLAG(RCC_FLAG_PLLRDY) == RESET)
 8002e74:	4b10      	ldr	r3, [pc, #64]	; (8002eb8 <HAL_RCC_OscConfig+0x394>)
 8002e76:	681b      	ldr	r3, [r3, #0]
 8002e78:	019a      	lsls	r2, r3, #6
 8002e7a:	d507      	bpl.n	8002e8c <HAL_RCC_OscConfig+0x368>
    else
    {
      return HAL_ERROR;
    }
  }
  return HAL_OK;
 8002e7c:	2000      	movs	r0, #0
 8002e7e:	e018      	b.n	8002eb2 <HAL_RCC_OscConfig+0x38e>
        tickstart = HAL_GetTick();
        
        /* Wait till PLL is ready */  
        while(__HAL_RCC_GET_FLAG(RCC_FLAG_PLLRDY) != RESET)
        {
          if((HAL_GetTick() - tickstart ) > PLL_TIMEOUT_VALUE)
 8002e80:	f000 fb6a 	bl	8003558 <HAL_GetTick>
 8002e84:	1b40      	subs	r0, r0, r5
 8002e86:	2864      	cmp	r0, #100	; 0x64
 8002e88:	d9c5      	bls.n	8002e16 <HAL_RCC_OscConfig+0x2f2>
 8002e8a:	e684      	b.n	8002b96 <HAL_RCC_OscConfig+0x72>
        tickstart = HAL_GetTick();
        
        /* Wait till PLL is ready */  
        while(__HAL_RCC_GET_FLAG(RCC_FLAG_PLLRDY) == RESET)
        {
          if((HAL_GetTick() - tickstart ) > PLL_TIMEOUT_VALUE)
 8002e8c:	f000 fb64 	bl	8003558 <HAL_GetTick>
 8002e90:	1b00      	subs	r0, r0, r4
 8002e92:	2864      	cmp	r0, #100	; 0x64
 8002e94:	d9ee      	bls.n	8002e74 <HAL_RCC_OscConfig+0x350>
 8002e96:	e67e      	b.n	8002b96 <HAL_RCC_OscConfig+0x72>
      {
        /* Disable the main PLL. */
        __HAL_RCC_PLL_DISABLE();
 
        /* Get Start Tick*/
        tickstart = HAL_GetTick();
 8002e98:	f000 fb5e 	bl	8003558 <HAL_GetTick>
 8002e9c:	4604      	mov	r4, r0
        
        /* Wait till PLL is ready */  
        while(__HAL_RCC_GET_FLAG(RCC_FLAG_PLLRDY) != RESET)
 8002e9e:	4b06      	ldr	r3, [pc, #24]	; (8002eb8 <HAL_RCC_OscConfig+0x394>)
 8002ea0:	681b      	ldr	r3, [r3, #0]
 8002ea2:	019b      	lsls	r3, r3, #6
 8002ea4:	d5ea      	bpl.n	8002e7c <HAL_RCC_OscConfig+0x358>
        {
          if((HAL_GetTick() - tickstart ) > PLL_TIMEOUT_VALUE)
 8002ea6:	f000 fb57 	bl	8003558 <HAL_GetTick>
 8002eaa:	1b00      	subs	r0, r0, r4
 8002eac:	2864      	cmp	r0, #100	; 0x64
 8002eae:	d9f6      	bls.n	8002e9e <HAL_RCC_OscConfig+0x37a>
 8002eb0:	e671      	b.n	8002b96 <HAL_RCC_OscConfig+0x72>
    {
      return HAL_ERROR;
    }
  }
  return HAL_OK;
}
 8002eb2:	b003      	add	sp, #12
 8002eb4:	bdf0      	pop	{r4, r5, r6, r7, pc}
 8002eb6:	bf00      	nop
 8002eb8:	40023800 	.word	0x40023800

08002ebc <HAL_RCC_ClockConfig>:
  /* To correctly read data from FLASH memory, the number of wait states (LATENCY) 
     must be correctly programmed according to the frequency of the CPU clock 
     (HCLK) and the supply voltage of the device. */
  
  /* Increasing the CPU frequency */
  if(FLatency > (FLASH->ACR & FLASH_ACR_LATENCY))
 8002ebc:	4b71      	ldr	r3, [pc, #452]	; (8003084 <HAL_RCC_ClockConfig+0x1c8>)
 8002ebe:	681a      	ldr	r2, [r3, #0]
 8002ec0:	f002 020f 	and.w	r2, r2, #15
 8002ec4:	4291      	cmp	r1, r2
  *         HPRE[3:0] bits to ensure that HCLK not exceed the maximum allowed frequency
  *         (for more details refer to section above "Initialization/de-initialization functions")
  * @retval None
  */
HAL_StatusTypeDef HAL_RCC_ClockConfig(RCC_ClkInitTypeDef  *RCC_ClkInitStruct, uint32_t FLatency)
{
 8002ec6:	b570      	push	{r4, r5, r6, lr}
 8002ec8:	4604      	mov	r4, r0
 8002eca:	460d      	mov	r5, r1
  /* To correctly read data from FLASH memory, the number of wait states (LATENCY) 
     must be correctly programmed according to the frequency of the CPU clock 
     (HCLK) and the supply voltage of the device. */
  
  /* Increasing the CPU frequency */
  if(FLatency > (FLASH->ACR & FLASH_ACR_LATENCY))
 8002ecc:	d96b      	bls.n	8002fa6 <HAL_RCC_ClockConfig+0xea>
  {    
    /* Program the new number of wait states to the LATENCY bits in the FLASH_ACR register */
    __HAL_FLASH_SET_LATENCY(FLatency);
 8002ece:	681a      	ldr	r2, [r3, #0]
 8002ed0:	f022 020f 	bic.w	r2, r2, #15
 8002ed4:	430a      	orrs	r2, r1
 8002ed6:	601a      	str	r2, [r3, #0]
    
    /* Check that the new number of wait states is taken into account to access the Flash
    memory by reading the FLASH_ACR register */
    if((FLASH->ACR & FLASH_ACR_LATENCY) != FLatency)
 8002ed8:	681b      	ldr	r3, [r3, #0]
 8002eda:	f003 030f 	and.w	r3, r3, #15
 8002ede:	428b      	cmp	r3, r1
 8002ee0:	d001      	beq.n	8002ee6 <HAL_RCC_ClockConfig+0x2a>
    {
      return HAL_ERROR;
 8002ee2:	2001      	movs	r0, #1
 8002ee4:	bd70      	pop	{r4, r5, r6, pc}
    }

    /*-------------------------- HCLK Configuration --------------------------*/
    if(((RCC_ClkInitStruct->ClockType) & RCC_CLOCKTYPE_HCLK) == RCC_CLOCKTYPE_HCLK)
 8002ee6:	6803      	ldr	r3, [r0, #0]
 8002ee8:	079e      	lsls	r6, r3, #30
 8002eea:	d506      	bpl.n	8002efa <HAL_RCC_ClockConfig+0x3e>
    {
      assert_param(IS_RCC_HCLK(RCC_ClkInitStruct->AHBCLKDivider));
      MODIFY_REG(RCC->CFGR, RCC_CFGR_HPRE, RCC_ClkInitStruct->AHBCLKDivider);
 8002eec:	4a66      	ldr	r2, [pc, #408]	; (8003088 <HAL_RCC_ClockConfig+0x1cc>)
 8002eee:	68a1      	ldr	r1, [r4, #8]
 8002ef0:	6890      	ldr	r0, [r2, #8]
 8002ef2:	f020 00f0 	bic.w	r0, r0, #240	; 0xf0
 8002ef6:	4301      	orrs	r1, r0
 8002ef8:	6091      	str	r1, [r2, #8]
    }

    /*------------------------- SYSCLK Configuration ---------------------------*/ 
    if(((RCC_ClkInitStruct->ClockType) & RCC_CLOCKTYPE_SYSCLK) == RCC_CLOCKTYPE_SYSCLK)
 8002efa:	07dd      	lsls	r5, r3, #31
 8002efc:	d40b      	bmi.n	8002f16 <HAL_RCC_ClockConfig+0x5a>
      return HAL_ERROR;
    }
 }

  /*-------------------------- PCLK1 Configuration ---------------------------*/ 
  if(((RCC_ClkInitStruct->ClockType) & RCC_CLOCKTYPE_PCLK1) == RCC_CLOCKTYPE_PCLK1)
 8002efe:	6823      	ldr	r3, [r4, #0]
 8002f00:	0758      	lsls	r0, r3, #29
 8002f02:	f140 80b0 	bpl.w	8003066 <HAL_RCC_ClockConfig+0x1aa>
  {
    assert_param(IS_RCC_PCLK(RCC_ClkInitStruct->APB1CLKDivider));
    MODIFY_REG(RCC->CFGR, RCC_CFGR_PPRE1, RCC_ClkInitStruct->APB1CLKDivider);
 8002f06:	4a60      	ldr	r2, [pc, #384]	; (8003088 <HAL_RCC_ClockConfig+0x1cc>)
 8002f08:	68e1      	ldr	r1, [r4, #12]
 8002f0a:	6890      	ldr	r0, [r2, #8]
 8002f0c:	f420 50e0 	bic.w	r0, r0, #7168	; 0x1c00
 8002f10:	4301      	orrs	r1, r0
 8002f12:	6091      	str	r1, [r2, #8]
 8002f14:	e0a7      	b.n	8003066 <HAL_RCC_ClockConfig+0x1aa>
    if(((RCC_ClkInitStruct->ClockType) & RCC_CLOCKTYPE_SYSCLK) == RCC_CLOCKTYPE_SYSCLK)
    {    
      assert_param(IS_RCC_SYSCLKSOURCE(RCC_ClkInitStruct->SYSCLKSource));
      
      /* HSE is selected as System Clock Source */
      if(RCC_ClkInitStruct->SYSCLKSource == RCC_SYSCLKSOURCE_HSE)
 8002f16:	6862      	ldr	r2, [r4, #4]
 8002f18:	4b5b      	ldr	r3, [pc, #364]	; (8003088 <HAL_RCC_ClockConfig+0x1cc>)
 8002f1a:	2a01      	cmp	r2, #1
      {
        /* Check the HSE ready flag */  
        if(__HAL_RCC_GET_FLAG(RCC_FLAG_HSERDY) == RESET)
 8002f1c:	6819      	ldr	r1, [r3, #0]
    if(((RCC_ClkInitStruct->ClockType) & RCC_CLOCKTYPE_SYSCLK) == RCC_CLOCKTYPE_SYSCLK)
    {    
      assert_param(IS_RCC_SYSCLKSOURCE(RCC_ClkInitStruct->SYSCLKSource));
      
      /* HSE is selected as System Clock Source */
      if(RCC_ClkInitStruct->SYSCLKSource == RCC_SYSCLKSOURCE_HSE)
 8002f1e:	d102      	bne.n	8002f26 <HAL_RCC_ClockConfig+0x6a>
      {
        /* Check the HSE ready flag */  
        if(__HAL_RCC_GET_FLAG(RCC_FLAG_HSERDY) == RESET)
 8002f20:	f411 3f00 	tst.w	r1, #131072	; 0x20000
 8002f24:	e006      	b.n	8002f34 <HAL_RCC_ClockConfig+0x78>
        {
          return HAL_ERROR;
        }
      }
      /* PLL is selected as System Clock Source */
      else if(RCC_ClkInitStruct->SYSCLKSource == RCC_SYSCLKSOURCE_PLLCLK)
 8002f26:	2a02      	cmp	r2, #2
 8002f28:	d102      	bne.n	8002f30 <HAL_RCC_ClockConfig+0x74>
      {
        /* Check the PLL ready flag */  
        if(__HAL_RCC_GET_FLAG(RCC_FLAG_PLLRDY) == RESET)
 8002f2a:	f011 7f00 	tst.w	r1, #33554432	; 0x2000000
 8002f2e:	e001      	b.n	8002f34 <HAL_RCC_ClockConfig+0x78>
      }
      /* HSI is selected as System Clock Source */
      else
      {
        /* Check the HSI ready flag */  
        if(__HAL_RCC_GET_FLAG(RCC_FLAG_HSIRDY) == RESET)
 8002f30:	f011 0f02 	tst.w	r1, #2
 8002f34:	d0d5      	beq.n	8002ee2 <HAL_RCC_ClockConfig+0x26>
        {
          return HAL_ERROR;
        }
      }

      __HAL_RCC_SYSCLK_CONFIG(RCC_ClkInitStruct->SYSCLKSource);
 8002f36:	6899      	ldr	r1, [r3, #8]
 8002f38:	f021 0103 	bic.w	r1, r1, #3
 8002f3c:	430a      	orrs	r2, r1
 8002f3e:	609a      	str	r2, [r3, #8]
      /* Get Start Tick*/
      tickstart = HAL_GetTick();
 8002f40:	f000 fb0a 	bl	8003558 <HAL_GetTick>
      
      if(RCC_ClkInitStruct->SYSCLKSource == RCC_SYSCLKSOURCE_HSE)
 8002f44:	6863      	ldr	r3, [r4, #4]
 8002f46:	2b01      	cmp	r3, #1
        }
      }

      __HAL_RCC_SYSCLK_CONFIG(RCC_ClkInitStruct->SYSCLKSource);
      /* Get Start Tick*/
      tickstart = HAL_GetTick();
 8002f48:	4605      	mov	r5, r0
      
      if(RCC_ClkInitStruct->SYSCLKSource == RCC_SYSCLKSOURCE_HSE)
 8002f4a:	d10e      	bne.n	8002f6a <HAL_RCC_ClockConfig+0xae>
      {
        while (__HAL_RCC_GET_SYSCLK_SOURCE() != RCC_SYSCLKSOURCE_STATUS_HSE)
 8002f4c:	4b4e      	ldr	r3, [pc, #312]	; (8003088 <HAL_RCC_ClockConfig+0x1cc>)
 8002f4e:	689b      	ldr	r3, [r3, #8]
 8002f50:	f003 030c 	and.w	r3, r3, #12
 8002f54:	2b04      	cmp	r3, #4
 8002f56:	d0d2      	beq.n	8002efe <HAL_RCC_ClockConfig+0x42>
        {
          if((HAL_GetTick() - tickstart ) > CLOCKSWITCH_TIMEOUT_VALUE)
 8002f58:	f000 fafe 	bl	8003558 <HAL_GetTick>
 8002f5c:	f241 3388 	movw	r3, #5000	; 0x1388
 8002f60:	1b40      	subs	r0, r0, r5
 8002f62:	4298      	cmp	r0, r3
 8002f64:	d9f2      	bls.n	8002f4c <HAL_RCC_ClockConfig+0x90>
          {
            return HAL_TIMEOUT;
 8002f66:	2003      	movs	r0, #3
 8002f68:	bd70      	pop	{r4, r5, r6, pc}
          }
        }
      }
      else if(RCC_ClkInitStruct->SYSCLKSource == RCC_SYSCLKSOURCE_PLLCLK)
 8002f6a:	2b02      	cmp	r3, #2
 8002f6c:	d00c      	beq.n	8002f88 <HAL_RCC_ClockConfig+0xcc>
          }
        }
      }
      else
      {
        while(__HAL_RCC_GET_SYSCLK_SOURCE() != RCC_SYSCLKSOURCE_STATUS_HSI)
 8002f6e:	4b46      	ldr	r3, [pc, #280]	; (8003088 <HAL_RCC_ClockConfig+0x1cc>)
 8002f70:	689b      	ldr	r3, [r3, #8]
 8002f72:	f013 0f0c 	tst.w	r3, #12
 8002f76:	d10e      	bne.n	8002f96 <HAL_RCC_ClockConfig+0xda>
 8002f78:	e7c1      	b.n	8002efe <HAL_RCC_ClockConfig+0x42>
      }
      else if(RCC_ClkInitStruct->SYSCLKSource == RCC_SYSCLKSOURCE_PLLCLK)
      {
        while (__HAL_RCC_GET_SYSCLK_SOURCE() != RCC_SYSCLKSOURCE_STATUS_PLLCLK)
        {
          if((HAL_GetTick() - tickstart ) > CLOCKSWITCH_TIMEOUT_VALUE)
 8002f7a:	f000 faed 	bl	8003558 <HAL_GetTick>
 8002f7e:	f241 3388 	movw	r3, #5000	; 0x1388
 8002f82:	1b40      	subs	r0, r0, r5
 8002f84:	4298      	cmp	r0, r3
 8002f86:	d8ee      	bhi.n	8002f66 <HAL_RCC_ClockConfig+0xaa>
          }
        }
      }
      else if(RCC_ClkInitStruct->SYSCLKSource == RCC_SYSCLKSOURCE_PLLCLK)
      {
        while (__HAL_RCC_GET_SYSCLK_SOURCE() != RCC_SYSCLKSOURCE_STATUS_PLLCLK)
 8002f88:	4b3f      	ldr	r3, [pc, #252]	; (8003088 <HAL_RCC_ClockConfig+0x1cc>)
 8002f8a:	689b      	ldr	r3, [r3, #8]
 8002f8c:	f003 030c 	and.w	r3, r3, #12
 8002f90:	2b08      	cmp	r3, #8
 8002f92:	d1f2      	bne.n	8002f7a <HAL_RCC_ClockConfig+0xbe>
 8002f94:	e7b3      	b.n	8002efe <HAL_RCC_ClockConfig+0x42>
      }
      else
      {
        while(__HAL_RCC_GET_SYSCLK_SOURCE() != RCC_SYSCLKSOURCE_STATUS_HSI)
        {
          if((HAL_GetTick() - tickstart ) > CLOCKSWITCH_TIMEOUT_VALUE)
 8002f96:	f000 fadf 	bl	8003558 <HAL_GetTick>
 8002f9a:	f241 3388 	movw	r3, #5000	; 0x1388
 8002f9e:	1b40      	subs	r0, r0, r5
 8002fa0:	4298      	cmp	r0, r3
 8002fa2:	d9e4      	bls.n	8002f6e <HAL_RCC_ClockConfig+0xb2>
 8002fa4:	e7df      	b.n	8002f66 <HAL_RCC_ClockConfig+0xaa>
  }
  /* Decreasing the CPU frequency */
  else
  {
    /*-------------------------- HCLK Configuration --------------------------*/
    if(((RCC_ClkInitStruct->ClockType) & RCC_CLOCKTYPE_HCLK) == RCC_CLOCKTYPE_HCLK)
 8002fa6:	6803      	ldr	r3, [r0, #0]
 8002fa8:	0799      	lsls	r1, r3, #30
 8002faa:	d506      	bpl.n	8002fba <HAL_RCC_ClockConfig+0xfe>
    {
      assert_param(IS_RCC_HCLK(RCC_ClkInitStruct->AHBCLKDivider));
      MODIFY_REG(RCC->CFGR, RCC_CFGR_HPRE, RCC_ClkInitStruct->AHBCLKDivider);
 8002fac:	4a36      	ldr	r2, [pc, #216]	; (8003088 <HAL_RCC_ClockConfig+0x1cc>)
 8002fae:	68a1      	ldr	r1, [r4, #8]
 8002fb0:	6890      	ldr	r0, [r2, #8]
 8002fb2:	f020 00f0 	bic.w	r0, r0, #240	; 0xf0
 8002fb6:	4301      	orrs	r1, r0
 8002fb8:	6091      	str	r1, [r2, #8]
    }

    /*------------------------- SYSCLK Configuration -------------------------*/
    if(((RCC_ClkInitStruct->ClockType) & RCC_CLOCKTYPE_SYSCLK) == RCC_CLOCKTYPE_SYSCLK)
 8002fba:	07da      	lsls	r2, r3, #31
 8002fbc:	d40b      	bmi.n	8002fd6 <HAL_RCC_ClockConfig+0x11a>
        }
      }
    }
    
    /* Program the new number of wait states to the LATENCY bits in the FLASH_ACR register */
    __HAL_FLASH_SET_LATENCY(FLatency);
 8002fbe:	4b31      	ldr	r3, [pc, #196]	; (8003084 <HAL_RCC_ClockConfig+0x1c8>)
 8002fc0:	681a      	ldr	r2, [r3, #0]
 8002fc2:	f022 020f 	bic.w	r2, r2, #15
 8002fc6:	432a      	orrs	r2, r5
 8002fc8:	601a      	str	r2, [r3, #0]
    
    /* Check that the new number of wait states is taken into account to access the Flash
    memory by reading the FLASH_ACR register */
    if((FLASH->ACR & FLASH_ACR_LATENCY) != FLatency)
 8002fca:	681b      	ldr	r3, [r3, #0]
 8002fcc:	f003 030f 	and.w	r3, r3, #15
 8002fd0:	42ab      	cmp	r3, r5
 8002fd2:	d186      	bne.n	8002ee2 <HAL_RCC_ClockConfig+0x26>
 8002fd4:	e793      	b.n	8002efe <HAL_RCC_ClockConfig+0x42>
    if(((RCC_ClkInitStruct->ClockType) & RCC_CLOCKTYPE_SYSCLK) == RCC_CLOCKTYPE_SYSCLK)
    {    
      assert_param(IS_RCC_SYSCLKSOURCE(RCC_ClkInitStruct->SYSCLKSource));
      
      /* HSE is selected as System Clock Source */
      if(RCC_ClkInitStruct->SYSCLKSource == RCC_SYSCLKSOURCE_HSE)
 8002fd6:	6862      	ldr	r2, [r4, #4]
 8002fd8:	4b2b      	ldr	r3, [pc, #172]	; (8003088 <HAL_RCC_ClockConfig+0x1cc>)
 8002fda:	2a01      	cmp	r2, #1
      {
        /* Check the HSE ready flag */  
        if(__HAL_RCC_GET_FLAG(RCC_FLAG_HSERDY) == RESET)
 8002fdc:	6819      	ldr	r1, [r3, #0]
    if(((RCC_ClkInitStruct->ClockType) & RCC_CLOCKTYPE_SYSCLK) == RCC_CLOCKTYPE_SYSCLK)
    {    
      assert_param(IS_RCC_SYSCLKSOURCE(RCC_ClkInitStruct->SYSCLKSource));
      
      /* HSE is selected as System Clock Source */
      if(RCC_ClkInitStruct->SYSCLKSource == RCC_SYSCLKSOURCE_HSE)
 8002fde:	d102      	bne.n	8002fe6 <HAL_RCC_ClockConfig+0x12a>
      {
        /* Check the HSE ready flag */  
        if(__HAL_RCC_GET_FLAG(RCC_FLAG_HSERDY) == RESET)
 8002fe0:	f411 3f00 	tst.w	r1, #131072	; 0x20000
 8002fe4:	e006      	b.n	8002ff4 <HAL_RCC_ClockConfig+0x138>
        {
          return HAL_ERROR;
        }
      }
      /* PLL is selected as System Clock Source */
      else if(RCC_ClkInitStruct->SYSCLKSource == RCC_SYSCLKSOURCE_PLLCLK)
 8002fe6:	2a02      	cmp	r2, #2
 8002fe8:	d102      	bne.n	8002ff0 <HAL_RCC_ClockConfig+0x134>
      {
        /* Check the PLL ready flag */  
        if(__HAL_RCC_GET_FLAG(RCC_FLAG_PLLRDY) == RESET)
 8002fea:	f011 7f00 	tst.w	r1, #33554432	; 0x2000000
 8002fee:	e001      	b.n	8002ff4 <HAL_RCC_ClockConfig+0x138>
      }
      /* HSI is selected as System Clock Source */
      else
      {
        /* Check the HSI ready flag */  
        if(__HAL_RCC_GET_FLAG(RCC_FLAG_HSIRDY) == RESET)
 8002ff0:	f011 0f02 	tst.w	r1, #2
 8002ff4:	f43f af75 	beq.w	8002ee2 <HAL_RCC_ClockConfig+0x26>
        {
          return HAL_ERROR;
        }
      }
      __HAL_RCC_SYSCLK_CONFIG(RCC_ClkInitStruct->SYSCLKSource);
 8002ff8:	6899      	ldr	r1, [r3, #8]
 8002ffa:	f021 0103 	bic.w	r1, r1, #3
 8002ffe:	430a      	orrs	r2, r1
 8003000:	609a      	str	r2, [r3, #8]
      /* Get Start Tick*/
      tickstart = HAL_GetTick();
 8003002:	f000 faa9 	bl	8003558 <HAL_GetTick>
      
      if(RCC_ClkInitStruct->SYSCLKSource == RCC_SYSCLKSOURCE_HSE)
 8003006:	6863      	ldr	r3, [r4, #4]
 8003008:	2b01      	cmp	r3, #1
          return HAL_ERROR;
        }
      }
      __HAL_RCC_SYSCLK_CONFIG(RCC_ClkInitStruct->SYSCLKSource);
      /* Get Start Tick*/
      tickstart = HAL_GetTick();
 800300a:	4606      	mov	r6, r0
      
      if(RCC_ClkInitStruct->SYSCLKSource == RCC_SYSCLKSOURCE_HSE)
 800300c:	d10d      	bne.n	800302a <HAL_RCC_ClockConfig+0x16e>
      {
        while (__HAL_RCC_GET_SYSCLK_SOURCE() != RCC_SYSCLKSOURCE_STATUS_HSE)
 800300e:	4b1e      	ldr	r3, [pc, #120]	; (8003088 <HAL_RCC_ClockConfig+0x1cc>)
 8003010:	689b      	ldr	r3, [r3, #8]
 8003012:	f003 030c 	and.w	r3, r3, #12
 8003016:	2b04      	cmp	r3, #4
 8003018:	d0d1      	beq.n	8002fbe <HAL_RCC_ClockConfig+0x102>
        {
          if((HAL_GetTick() - tickstart ) > CLOCKSWITCH_TIMEOUT_VALUE)
 800301a:	f000 fa9d 	bl	8003558 <HAL_GetTick>
 800301e:	f241 3388 	movw	r3, #5000	; 0x1388
 8003022:	1b80      	subs	r0, r0, r6
 8003024:	4298      	cmp	r0, r3
 8003026:	d9f2      	bls.n	800300e <HAL_RCC_ClockConfig+0x152>
 8003028:	e79d      	b.n	8002f66 <HAL_RCC_ClockConfig+0xaa>
          {
            return HAL_TIMEOUT;
          } 
        }
      }
      else if(RCC_ClkInitStruct->SYSCLKSource == RCC_SYSCLKSOURCE_PLLCLK)
 800302a:	2b02      	cmp	r3, #2
 800302c:	d00c      	beq.n	8003048 <HAL_RCC_ClockConfig+0x18c>
          } 
        }
      }
      else
      {
        while(__HAL_RCC_GET_SYSCLK_SOURCE() != RCC_SYSCLKSOURCE_STATUS_HSI)
 800302e:	4b16      	ldr	r3, [pc, #88]	; (8003088 <HAL_RCC_ClockConfig+0x1cc>)
 8003030:	689b      	ldr	r3, [r3, #8]
 8003032:	f013 0f0c 	tst.w	r3, #12
 8003036:	d10e      	bne.n	8003056 <HAL_RCC_ClockConfig+0x19a>
 8003038:	e7c1      	b.n	8002fbe <HAL_RCC_ClockConfig+0x102>
      }
      else if(RCC_ClkInitStruct->SYSCLKSource == RCC_SYSCLKSOURCE_PLLCLK)
      {
        while (__HAL_RCC_GET_SYSCLK_SOURCE() != RCC_SYSCLKSOURCE_STATUS_PLLCLK)
        {
          if((HAL_GetTick() - tickstart ) > CLOCKSWITCH_TIMEOUT_VALUE)
 800303a:	f000 fa8d 	bl	8003558 <HAL_GetTick>
 800303e:	f241 3388 	movw	r3, #5000	; 0x1388
 8003042:	1b80      	subs	r0, r0, r6
 8003044:	4298      	cmp	r0, r3
 8003046:	d88e      	bhi.n	8002f66 <HAL_RCC_ClockConfig+0xaa>
          } 
        }
      }
      else if(RCC_ClkInitStruct->SYSCLKSource == RCC_SYSCLKSOURCE_PLLCLK)
      {
        while (__HAL_RCC_GET_SYSCLK_SOURCE() != RCC_SYSCLKSOURCE_STATUS_PLLCLK)
 8003048:	4b0f      	ldr	r3, [pc, #60]	; (8003088 <HAL_RCC_ClockConfig+0x1cc>)
 800304a:	689b      	ldr	r3, [r3, #8]
 800304c:	f003 030c 	and.w	r3, r3, #12
 8003050:	2b08      	cmp	r3, #8
 8003052:	d1f2      	bne.n	800303a <HAL_RCC_ClockConfig+0x17e>
 8003054:	e7b3      	b.n	8002fbe <HAL_RCC_ClockConfig+0x102>
      }
      else
      {
        while(__HAL_RCC_GET_SYSCLK_SOURCE() != RCC_SYSCLKSOURCE_STATUS_HSI)
        {
          if((HAL_GetTick() - tickstart ) > CLOCKSWITCH_TIMEOUT_VALUE)
 8003056:	f000 fa7f 	bl	8003558 <HAL_GetTick>
 800305a:	f241 3388 	movw	r3, #5000	; 0x1388
 800305e:	1b80      	subs	r0, r0, r6
 8003060:	4298      	cmp	r0, r3
 8003062:	d9e4      	bls.n	800302e <HAL_RCC_ClockConfig+0x172>
 8003064:	e77f      	b.n	8002f66 <HAL_RCC_ClockConfig+0xaa>
    assert_param(IS_RCC_PCLK(RCC_ClkInitStruct->APB1CLKDivider));
    MODIFY_REG(RCC->CFGR, RCC_CFGR_PPRE1, RCC_ClkInitStruct->APB1CLKDivider);
  }
  
  /*-------------------------- PCLK2 Configuration ---------------------------*/ 
  if(((RCC_ClkInitStruct->ClockType) & RCC_CLOCKTYPE_PCLK2) == RCC_CLOCKTYPE_PCLK2)
 8003066:	071b      	lsls	r3, r3, #28
 8003068:	d507      	bpl.n	800307a <HAL_RCC_ClockConfig+0x1be>
  {
    assert_param(IS_RCC_PCLK(RCC_ClkInitStruct->APB2CLKDivider));
    MODIFY_REG(RCC->CFGR, RCC_CFGR_PPRE2, ((RCC_ClkInitStruct->APB2CLKDivider) << 3));
 800306a:	4b07      	ldr	r3, [pc, #28]	; (8003088 <HAL_RCC_ClockConfig+0x1cc>)
 800306c:	6921      	ldr	r1, [r4, #16]
 800306e:	689a      	ldr	r2, [r3, #8]
 8003070:	f422 4260 	bic.w	r2, r2, #57344	; 0xe000
 8003074:	ea42 02c1 	orr.w	r2, r2, r1, lsl #3
 8003078:	609a      	str	r2, [r3, #8]
  }

  /* Configure the source of time base considering new system clocks settings*/
  HAL_InitTick (TICK_INT_PRIORITY);
 800307a:	2000      	movs	r0, #0
 800307c:	f000 fa3f 	bl	80034fe <HAL_InitTick>
  
  return HAL_OK;
 8003080:	2000      	movs	r0, #0
}
 8003082:	bd70      	pop	{r4, r5, r6, pc}
 8003084:	40023c00 	.word	0x40023c00
 8003088:	40023800 	.word	0x40023800

0800308c <HAL_RCC_GetSysClockFreq>:
{
  uint32_t pllm = 0, pllvco = 0, pllp = 0;
  uint32_t sysclockfreq = 0;

  /* Get SYSCLK source -------------------------------------------------------*/
  switch (RCC->CFGR & RCC_CFGR_SWS)
 800308c:	4b1f      	ldr	r3, [pc, #124]	; (800310c <HAL_RCC_GetSysClockFreq+0x80>)
 800308e:	689a      	ldr	r2, [r3, #8]
 8003090:	f002 020c 	and.w	r2, r2, #12
 8003094:	2a04      	cmp	r2, #4
  *         
  *               
  * @retval SYSCLK frequency
  */
uint32_t HAL_RCC_GetSysClockFreq(void)
{
 8003096:	b510      	push	{r4, lr}
  uint32_t pllm = 0, pllvco = 0, pllp = 0;
  uint32_t sysclockfreq = 0;

  /* Get SYSCLK source -------------------------------------------------------*/
  switch (RCC->CFGR & RCC_CFGR_SWS)
 8003098:	d036      	beq.n	8003108 <HAL_RCC_GetSysClockFreq+0x7c>
 800309a:	2a08      	cmp	r2, #8
 800309c:	d001      	beq.n	80030a2 <HAL_RCC_GetSysClockFreq+0x16>
  {
    case RCC_SYSCLKSOURCE_STATUS_HSI:  /* HSI used as system clock source */
    {
      sysclockfreq = HSI_VALUE;
 800309e:	481c      	ldr	r0, [pc, #112]	; (8003110 <HAL_RCC_GetSysClockFreq+0x84>)
 80030a0:	bd10      	pop	{r4, pc}
    }
    case RCC_SYSCLKSOURCE_STATUS_PLLCLK:  /* PLL used as system clock  source */
    {
      /* PLL_VCO = (HSE_VALUE or HSI_VALUE / PLLM) * PLLN
      SYSCLK = PLL_VCO / PLLP */
      pllm = RCC->PLLCFGR & RCC_PLLCFGR_PLLM;
 80030a2:	6859      	ldr	r1, [r3, #4]
      if (__HAL_RCC_GET_PLL_OSCSOURCE() != RCC_PLLCFGR_PLLSRC_HSI)
 80030a4:	685a      	ldr	r2, [r3, #4]
      {
        /* HSE used as PLL clock source */
        pllvco = ((HSE_VALUE / pllm) * ((RCC->PLLCFGR & RCC_PLLCFGR_PLLN) >> POSITION_VAL(RCC_PLLCFGR_PLLN)));
 80030a6:	685c      	ldr	r4, [r3, #4]
    case RCC_SYSCLKSOURCE_STATUS_PLLCLK:  /* PLL used as system clock  source */
    {
      /* PLL_VCO = (HSE_VALUE or HSI_VALUE / PLLM) * PLLN
      SYSCLK = PLL_VCO / PLLP */
      pllm = RCC->PLLCFGR & RCC_PLLCFGR_PLLM;
      if (__HAL_RCC_GET_PLL_OSCSOURCE() != RCC_PLLCFGR_PLLSRC_HSI)
 80030a8:	f412 0f80 	tst.w	r2, #4194304	; 0x400000
    }
    case RCC_SYSCLKSOURCE_STATUS_PLLCLK:  /* PLL used as system clock  source */
    {
      /* PLL_VCO = (HSE_VALUE or HSI_VALUE / PLLM) * PLLN
      SYSCLK = PLL_VCO / PLLP */
      pllm = RCC->PLLCFGR & RCC_PLLCFGR_PLLM;
 80030ac:	f001 013f 	and.w	r1, r1, #63	; 0x3f
 80030b0:	f647 72c0 	movw	r2, #32704	; 0x7fc0
      if (__HAL_RCC_GET_PLL_OSCSOURCE() != RCC_PLLCFGR_PLLSRC_HSI)
 80030b4:	d00c      	beq.n	80030d0 <HAL_RCC_GetSysClockFreq+0x44>
 80030b6:	fa92 f2a2 	rbit	r2, r2
      {
        /* HSE used as PLL clock source */
        pllvco = ((HSE_VALUE / pllm) * ((RCC->PLLCFGR & RCC_PLLCFGR_PLLN) >> POSITION_VAL(RCC_PLLCFGR_PLLN)));
 80030ba:	fab2 f382 	clz	r3, r2
 80030be:	f647 72c0 	movw	r2, #32704	; 0x7fc0
 80030c2:	4022      	ands	r2, r4
 80030c4:	40da      	lsrs	r2, r3
 80030c6:	4b13      	ldr	r3, [pc, #76]	; (8003114 <HAL_RCC_GetSysClockFreq+0x88>)
 80030c8:	fbb3 f3f1 	udiv	r3, r3, r1
 80030cc:	4353      	muls	r3, r2
 80030ce:	e00b      	b.n	80030e8 <HAL_RCC_GetSysClockFreq+0x5c>
 80030d0:	fa92 f2a2 	rbit	r2, r2
      }
      else
      {
        /* HSI used as PLL clock source */
        pllvco = ((HSI_VALUE / pllm) * ((RCC->PLLCFGR & RCC_PLLCFGR_PLLN) >> POSITION_VAL(RCC_PLLCFGR_PLLN)));    
 80030d4:	f647 73c0 	movw	r3, #32704	; 0x7fc0
 80030d8:	480d      	ldr	r0, [pc, #52]	; (8003110 <HAL_RCC_GetSysClockFreq+0x84>)
 80030da:	fab2 f282 	clz	r2, r2
 80030de:	4023      	ands	r3, r4
 80030e0:	40d3      	lsrs	r3, r2
 80030e2:	fbb0 f1f1 	udiv	r1, r0, r1
 80030e6:	434b      	muls	r3, r1
      }
      pllp = ((((RCC->PLLCFGR & RCC_PLLCFGR_PLLP) >> POSITION_VAL(RCC_PLLCFGR_PLLP)) + 1 ) *2);
 80030e8:	4a08      	ldr	r2, [pc, #32]	; (800310c <HAL_RCC_GetSysClockFreq+0x80>)
 80030ea:	6850      	ldr	r0, [r2, #4]
 80030ec:	f44f 3240 	mov.w	r2, #196608	; 0x30000
 80030f0:	fa92 f2a2 	rbit	r2, r2
 80030f4:	fab2 f282 	clz	r2, r2
 80030f8:	f400 3040 	and.w	r0, r0, #196608	; 0x30000
 80030fc:	40d0      	lsrs	r0, r2
 80030fe:	3001      	adds	r0, #1
 8003100:	0040      	lsls	r0, r0, #1
      
      sysclockfreq = pllvco/pllp;
 8003102:	fbb3 f0f0 	udiv	r0, r3, r0
      break;
 8003106:	bd10      	pop	{r4, pc}
      sysclockfreq = HSI_VALUE;
       break;
    }
    case RCC_SYSCLKSOURCE_STATUS_HSE:  /* HSE used as system clock  source */
    {
      sysclockfreq = HSE_VALUE;
 8003108:	4802      	ldr	r0, [pc, #8]	; (8003114 <HAL_RCC_GetSysClockFreq+0x88>)
      sysclockfreq = HSI_VALUE;
      break;
    }
  }
  return sysclockfreq;
}
 800310a:	bd10      	pop	{r4, pc}
 800310c:	40023800 	.word	0x40023800
 8003110:	00f42400 	.word	0x00f42400
 8003114:	007a1200 	.word	0x007a1200

08003118 <HAL_RCC_GetHCLKFreq>:
  * @note   The SystemCoreClock CMSIS variable is used to store System Clock Frequency 
  *         and updated within this function
  * @retval HCLK frequency
  */
uint32_t HAL_RCC_GetHCLKFreq(void)
{
 8003118:	b508      	push	{r3, lr}
  SystemCoreClock = HAL_RCC_GetSysClockFreq() >> APBAHBPrescTable[(RCC->CFGR & RCC_CFGR_HPRE)>> POSITION_VAL(RCC_CFGR_HPRE)];
 800311a:	f7ff ffb7 	bl	800308c <HAL_RCC_GetSysClockFreq>
 800311e:	4b08      	ldr	r3, [pc, #32]	; (8003140 <HAL_RCC_GetHCLKFreq+0x28>)
 8003120:	22f0      	movs	r2, #240	; 0xf0
 8003122:	689b      	ldr	r3, [r3, #8]
 8003124:	fa92 f2a2 	rbit	r2, r2
 8003128:	fab2 f282 	clz	r2, r2
 800312c:	f003 03f0 	and.w	r3, r3, #240	; 0xf0
 8003130:	40d3      	lsrs	r3, r2
 8003132:	4a04      	ldr	r2, [pc, #16]	; (8003144 <HAL_RCC_GetHCLKFreq+0x2c>)
 8003134:	5cd3      	ldrb	r3, [r2, r3]
 8003136:	40d8      	lsrs	r0, r3
 8003138:	4b03      	ldr	r3, [pc, #12]	; (8003148 <HAL_RCC_GetHCLKFreq+0x30>)
 800313a:	6018      	str	r0, [r3, #0]
  return SystemCoreClock;
}
 800313c:	bd08      	pop	{r3, pc}
 800313e:	bf00      	nop
 8003140:	40023800 	.word	0x40023800
 8003144:	08007a4d 	.word	0x08007a4d
 8003148:	20000000 	.word	0x20000000

0800314c <HAL_RCC_GetPCLK1Freq>:
  * @note   Each time PCLK1 changes, this function must be called to update the
  *         right PCLK1 value. Otherwise, any configuration based on this function will be incorrect.
  * @retval PCLK1 frequency
  */
uint32_t HAL_RCC_GetPCLK1Freq(void)
{  
 800314c:	b508      	push	{r3, lr}
  /* Get HCLK source and Compute PCLK1 frequency ---------------------------*/
  return (HAL_RCC_GetHCLKFreq() >> APBAHBPrescTable[(RCC->CFGR & RCC_CFGR_PPRE1)>> POSITION_VAL(RCC_CFGR_PPRE1)]);
 800314e:	f7ff ffe3 	bl	8003118 <HAL_RCC_GetHCLKFreq>
 8003152:	4b07      	ldr	r3, [pc, #28]	; (8003170 <HAL_RCC_GetPCLK1Freq+0x24>)
 8003154:	f44f 52e0 	mov.w	r2, #7168	; 0x1c00
 8003158:	689b      	ldr	r3, [r3, #8]
 800315a:	fa92 f2a2 	rbit	r2, r2
 800315e:	fab2 f282 	clz	r2, r2
 8003162:	f403 53e0 	and.w	r3, r3, #7168	; 0x1c00
 8003166:	40d3      	lsrs	r3, r2
 8003168:	4a02      	ldr	r2, [pc, #8]	; (8003174 <HAL_RCC_GetPCLK1Freq+0x28>)
 800316a:	5cd3      	ldrb	r3, [r2, r3]
}
 800316c:	40d8      	lsrs	r0, r3
 800316e:	bd08      	pop	{r3, pc}
 8003170:	40023800 	.word	0x40023800
 8003174:	08007a4d 	.word	0x08007a4d

08003178 <HAL_RCC_GetPCLK2Freq>:
  * @note   Each time PCLK2 changes, this function must be called to update the
  *         right PCLK2 value. Otherwise, any configuration based on this function will be incorrect.
  * @retval PCLK2 frequency
  */
uint32_t HAL_RCC_GetPCLK2Freq(void)
{
 8003178:	b508      	push	{r3, lr}
  /* Get HCLK source and Compute PCLK2 frequency ---------------------------*/
  return (HAL_RCC_GetHCLKFreq()>> APBAHBPrescTable[(RCC->CFGR & RCC_CFGR_PPRE2)>> POSITION_VAL(RCC_CFGR_PPRE2)]);
 800317a:	f7ff ffcd 	bl	8003118 <HAL_RCC_GetHCLKFreq>
 800317e:	4b07      	ldr	r3, [pc, #28]	; (800319c <HAL_RCC_GetPCLK2Freq+0x24>)
 8003180:	f44f 4260 	mov.w	r2, #57344	; 0xe000
 8003184:	689b      	ldr	r3, [r3, #8]
 8003186:	fa92 f2a2 	rbit	r2, r2
 800318a:	fab2 f282 	clz	r2, r2
 800318e:	f403 4360 	and.w	r3, r3, #57344	; 0xe000
 8003192:	40d3      	lsrs	r3, r2
 8003194:	4a02      	ldr	r2, [pc, #8]	; (80031a0 <HAL_RCC_GetPCLK2Freq+0x28>)
 8003196:	5cd3      	ldrb	r3, [r2, r3]
} 
 8003198:	40d8      	lsrs	r0, r3
 800319a:	bd08      	pop	{r3, pc}
 800319c:	40023800 	.word	0x40023800
 80031a0:	08007a4d 	.word	0x08007a4d

080031a4 <HAL_PWREx_EnableOverDrive>:
  *         During the Over-drive switch activation, no peripheral clocks should be enabled.   
  *         The peripheral clocks must be enabled once the Over-drive mode is activated.   
  * @retval HAL status
  */
HAL_StatusTypeDef HAL_PWREx_EnableOverDrive(void)
{
 80031a4:	b513      	push	{r0, r1, r4, lr}
  uint32_t tickstart = 0;

  __HAL_RCC_PWR_CLK_ENABLE();
 80031a6:	2300      	movs	r3, #0
 80031a8:	9301      	str	r3, [sp, #4]
 80031aa:	4b19      	ldr	r3, [pc, #100]	; (8003210 <HAL_PWREx_EnableOverDrive+0x6c>)
 80031ac:	6c1a      	ldr	r2, [r3, #64]	; 0x40
 80031ae:	f042 5280 	orr.w	r2, r2, #268435456	; 0x10000000
 80031b2:	641a      	str	r2, [r3, #64]	; 0x40
 80031b4:	6c1b      	ldr	r3, [r3, #64]	; 0x40
 80031b6:	f003 5380 	and.w	r3, r3, #268435456	; 0x10000000
 80031ba:	9301      	str	r3, [sp, #4]
 80031bc:	9b01      	ldr	r3, [sp, #4]
  
  /* Enable the Over-drive to extend the clock frequency to 216 MHz */
  __HAL_PWR_OVERDRIVE_ENABLE();
 80031be:	4b15      	ldr	r3, [pc, #84]	; (8003214 <HAL_PWREx_EnableOverDrive+0x70>)
 80031c0:	681a      	ldr	r2, [r3, #0]
 80031c2:	f442 3280 	orr.w	r2, r2, #65536	; 0x10000
 80031c6:	601a      	str	r2, [r3, #0]

  /* Get tick */
  tickstart = HAL_GetTick();
 80031c8:	f000 f9c6 	bl	8003558 <HAL_GetTick>
 80031cc:	4604      	mov	r4, r0

  while(!__HAL_PWR_GET_FLAG(PWR_FLAG_ODRDY))
 80031ce:	4b11      	ldr	r3, [pc, #68]	; (8003214 <HAL_PWREx_EnableOverDrive+0x70>)
 80031d0:	685a      	ldr	r2, [r3, #4]
 80031d2:	03d2      	lsls	r2, r2, #15
 80031d4:	d407      	bmi.n	80031e6 <HAL_PWREx_EnableOverDrive+0x42>
  {
    if((HAL_GetTick() - tickstart ) > PWR_OVERDRIVE_TIMEOUT_VALUE)
 80031d6:	f000 f9bf 	bl	8003558 <HAL_GetTick>
 80031da:	1b00      	subs	r0, r0, r4
 80031dc:	f5b0 7f7a 	cmp.w	r0, #1000	; 0x3e8
 80031e0:	d9f5      	bls.n	80031ce <HAL_PWREx_EnableOverDrive+0x2a>
    {
      return HAL_TIMEOUT;
 80031e2:	2003      	movs	r0, #3
 80031e4:	e012      	b.n	800320c <HAL_PWREx_EnableOverDrive+0x68>
    }
  }
  
  /* Enable the Over-drive switch */
  __HAL_PWR_OVERDRIVESWITCHING_ENABLE();
 80031e6:	681a      	ldr	r2, [r3, #0]
 80031e8:	f442 3200 	orr.w	r2, r2, #131072	; 0x20000
 80031ec:	601a      	str	r2, [r3, #0]

  /* Get tick */
  tickstart = HAL_GetTick();
 80031ee:	f000 f9b3 	bl	8003558 <HAL_GetTick>
 80031f2:	4604      	mov	r4, r0

  while(!__HAL_PWR_GET_FLAG(PWR_FLAG_ODSWRDY))
 80031f4:	4b07      	ldr	r3, [pc, #28]	; (8003214 <HAL_PWREx_EnableOverDrive+0x70>)
 80031f6:	685b      	ldr	r3, [r3, #4]
 80031f8:	039b      	lsls	r3, r3, #14
 80031fa:	d406      	bmi.n	800320a <HAL_PWREx_EnableOverDrive+0x66>
  {
    if((HAL_GetTick() - tickstart ) > PWR_OVERDRIVE_TIMEOUT_VALUE)
 80031fc:	f000 f9ac 	bl	8003558 <HAL_GetTick>
 8003200:	1b00      	subs	r0, r0, r4
 8003202:	f5b0 7f7a 	cmp.w	r0, #1000	; 0x3e8
 8003206:	d9f5      	bls.n	80031f4 <HAL_PWREx_EnableOverDrive+0x50>
 8003208:	e7eb      	b.n	80031e2 <HAL_PWREx_EnableOverDrive+0x3e>
    {
      return HAL_TIMEOUT;
    }
  } 
  return HAL_OK;
 800320a:	2000      	movs	r0, #0
}
 800320c:	b002      	add	sp, #8
 800320e:	bd10      	pop	{r4, pc}
 8003210:	40023800 	.word	0x40023800
 8003214:	40007000 	.word	0x40007000

08003218 <HAL_GPIO_Init>:
  * @param  GPIO_Init: pointer to a GPIO_InitTypeDef structure that contains
  *         the configuration information for the specified GPIO peripheral.
  * @retval None
  */
void HAL_GPIO_Init(GPIO_TypeDef  *GPIOx, GPIO_InitTypeDef *GPIO_Init)
{
 8003218:	e92d 43f7 	stmdb	sp!, {r0, r1, r2, r4, r5, r6, r7, r8, r9, lr}
  for(position = 0; position < GPIO_NUMBER; position++)
  {
    /* Get the IO position */
    ioposition = ((uint32_t)0x01) << position;
    /* Get the current IO position */
    iocurrent = (uint32_t)(GPIO_Init->Pin) & ioposition;
 800321c:	680f      	ldr	r7, [r1, #0]
  assert_param(IS_GPIO_PIN(GPIO_Init->Pin));
  assert_param(IS_GPIO_MODE(GPIO_Init->Mode));
  assert_param(IS_GPIO_PULL(GPIO_Init->Pull));

  /* Configure the port pins */
  for(position = 0; position < GPIO_NUMBER; position++)
 800321e:	2300      	movs	r3, #0
  {
    /* Get the IO position */
    ioposition = ((uint32_t)0x01) << position;
 8003220:	2201      	movs	r2, #1
 8003222:	409a      	lsls	r2, r3
    /* Get the current IO position */
    iocurrent = (uint32_t)(GPIO_Init->Pin) & ioposition;
 8003224:	ea02 0507 	and.w	r5, r2, r7

    if(iocurrent == ioposition)
 8003228:	4295      	cmp	r5, r2
 800322a:	f040 80db 	bne.w	80033e4 <HAL_GPIO_Init+0x1cc>
    {
      /*--------------------- GPIO Mode Configuration ------------------------*/
      /* In case of Alternate function mode selection */
      if((GPIO_Init->Mode == GPIO_MODE_AF_PP) || (GPIO_Init->Mode == GPIO_MODE_AF_OD))
 800322e:	684c      	ldr	r4, [r1, #4]
 8003230:	f024 0610 	bic.w	r6, r4, #16
 8003234:	2e02      	cmp	r6, #2
 8003236:	d116      	bne.n	8003266 <HAL_GPIO_Init+0x4e>
      {
        /* Check the Alternate function parameter */
        assert_param(IS_GPIO_AF(GPIO_Init->Alternate));
        
        /* Configure Alternate function mapped with the current IO */
        temp = GPIOx->AFR[position >> 3];
 8003238:	ea4f 0cd3 	mov.w	ip, r3, lsr #3
 800323c:	eb00 0c8c 	add.w	ip, r0, ip, lsl #2
        temp &= ~((uint32_t)0xF << ((uint32_t)(position & (uint32_t)0x07) * 4)) ;
 8003240:	f003 0807 	and.w	r8, r3, #7
      {
        /* Check the Alternate function parameter */
        assert_param(IS_GPIO_AF(GPIO_Init->Alternate));
        
        /* Configure Alternate function mapped with the current IO */
        temp = GPIOx->AFR[position >> 3];
 8003244:	f8dc 2020 	ldr.w	r2, [ip, #32]
        temp &= ~((uint32_t)0xF << ((uint32_t)(position & (uint32_t)0x07) * 4)) ;
 8003248:	ea4f 0888 	mov.w	r8, r8, lsl #2
 800324c:	f04f 090f 	mov.w	r9, #15
 8003250:	fa09 f908 	lsl.w	r9, r9, r8
 8003254:	ea22 0909 	bic.w	r9, r2, r9
        temp |= ((uint32_t)(GPIO_Init->Alternate) << (((uint32_t)position & (uint32_t)0x07) * 4));
 8003258:	690a      	ldr	r2, [r1, #16]
 800325a:	fa02 f808 	lsl.w	r8, r2, r8
 800325e:	ea49 0208 	orr.w	r2, r9, r8
        GPIOx->AFR[position >> 3] = temp;
 8003262:	f8cc 2020 	str.w	r2, [ip, #32]
 8003266:	005a      	lsls	r2, r3, #1
      }

      /* Configure IO Direction mode (Input, Output, Alternate or Analog) */
      temp = GPIOx->MODER;
      temp &= ~(GPIO_MODER_MODER0 << (position * 2));
 8003268:	f04f 0c03 	mov.w	ip, #3
        temp |= ((uint32_t)(GPIO_Init->Alternate) << (((uint32_t)position & (uint32_t)0x07) * 4));
        GPIOx->AFR[position >> 3] = temp;
      }

      /* Configure IO Direction mode (Input, Output, Alternate or Analog) */
      temp = GPIOx->MODER;
 800326c:	f8d0 9000 	ldr.w	r9, [r0]
      temp &= ~(GPIO_MODER_MODER0 << (position * 2));
 8003270:	fa0c fc02 	lsl.w	ip, ip, r2
 8003274:	ea6f 0c0c 	mvn.w	ip, ip
      temp |= ((GPIO_Init->Mode & GPIO_MODE) << (position * 2));
 8003278:	f004 0803 	and.w	r8, r4, #3
        GPIOx->AFR[position >> 3] = temp;
      }

      /* Configure IO Direction mode (Input, Output, Alternate or Analog) */
      temp = GPIOx->MODER;
      temp &= ~(GPIO_MODER_MODER0 << (position * 2));
 800327c:	ea0c 0909 	and.w	r9, ip, r9
      temp |= ((GPIO_Init->Mode & GPIO_MODE) << (position * 2));
 8003280:	fa08 f802 	lsl.w	r8, r8, r2
      GPIOx->MODER = temp;

      /* In case of Output or Alternate function mode selection */
      if((GPIO_Init->Mode == GPIO_MODE_OUTPUT_PP) || (GPIO_Init->Mode == GPIO_MODE_AF_PP) ||
 8003284:	3e01      	subs	r6, #1
      }

      /* Configure IO Direction mode (Input, Output, Alternate or Analog) */
      temp = GPIOx->MODER;
      temp &= ~(GPIO_MODER_MODER0 << (position * 2));
      temp |= ((GPIO_Init->Mode & GPIO_MODE) << (position * 2));
 8003286:	ea49 0808 	orr.w	r8, r9, r8
      GPIOx->MODER = temp;

      /* In case of Output or Alternate function mode selection */
      if((GPIO_Init->Mode == GPIO_MODE_OUTPUT_PP) || (GPIO_Init->Mode == GPIO_MODE_AF_PP) ||
 800328a:	2e01      	cmp	r6, #1

      /* Configure IO Direction mode (Input, Output, Alternate or Analog) */
      temp = GPIOx->MODER;
      temp &= ~(GPIO_MODER_MODER0 << (position * 2));
      temp |= ((GPIO_Init->Mode & GPIO_MODE) << (position * 2));
      GPIOx->MODER = temp;
 800328c:	f8c0 8000 	str.w	r8, [r0]

      /* In case of Output or Alternate function mode selection */
      if((GPIO_Init->Mode == GPIO_MODE_OUTPUT_PP) || (GPIO_Init->Mode == GPIO_MODE_AF_PP) ||
 8003290:	d810      	bhi.n	80032b4 <HAL_GPIO_Init+0x9c>
         (GPIO_Init->Mode == GPIO_MODE_OUTPUT_OD) || (GPIO_Init->Mode == GPIO_MODE_AF_OD))
      {
        /* Check the Speed parameter */
        assert_param(IS_GPIO_SPEED(GPIO_Init->Speed));
        /* Configure the IO Speed */
        temp = GPIOx->OSPEEDR; 
 8003292:	6886      	ldr	r6, [r0, #8]
        temp &= ~(GPIO_OSPEEDER_OSPEEDR0 << (position * 2));
 8003294:	ea0c 0806 	and.w	r8, ip, r6
        temp |= (GPIO_Init->Speed << (position * 2));
 8003298:	68ce      	ldr	r6, [r1, #12]
 800329a:	4096      	lsls	r6, r2
 800329c:	ea48 0606 	orr.w	r6, r8, r6
        GPIOx->OSPEEDR = temp;
 80032a0:	6086      	str	r6, [r0, #8]

        /* Configure the IO Output Type */
        temp = GPIOx->OTYPER;
 80032a2:	6846      	ldr	r6, [r0, #4]
        temp &= ~(GPIO_OTYPER_OT_0 << position) ;
 80032a4:	ea26 0805 	bic.w	r8, r6, r5
        temp |= (((GPIO_Init->Mode & GPIO_OUTPUT_TYPE) >> 4) << position);
 80032a8:	f3c4 1600 	ubfx	r6, r4, #4, #1
 80032ac:	409e      	lsls	r6, r3
 80032ae:	ea48 0606 	orr.w	r6, r8, r6
        GPIOx->OTYPER = temp;
 80032b2:	6046      	str	r6, [r0, #4]
      }

      /* Activate the Pull-up or Pull down resistor for the current IO */
      temp = GPIOx->PUPDR;
 80032b4:	68c6      	ldr	r6, [r0, #12]
      temp &= ~(GPIO_PUPDR_PUPDR0 << (position * 2));
 80032b6:	ea0c 0c06 	and.w	ip, ip, r6
      temp |= ((GPIO_Init->Pull) << (position * 2));
 80032ba:	688e      	ldr	r6, [r1, #8]
 80032bc:	4096      	lsls	r6, r2
 80032be:	ea4c 0206 	orr.w	r2, ip, r6
      GPIOx->PUPDR = temp;
 80032c2:	60c2      	str	r2, [r0, #12]

      /*--------------------- EXTI Mode Configuration ------------------------*/
      /* Configure the External Interrupt or event for the current IO */
      if((GPIO_Init->Mode & EXTI_MODE) == EXTI_MODE)
 80032c4:	00e2      	lsls	r2, r4, #3
 80032c6:	f140 808d 	bpl.w	80033e4 <HAL_GPIO_Init+0x1cc>
      {
        /* Enable SYSCFG Clock */
        __HAL_RCC_SYSCFG_CLK_ENABLE();
 80032ca:	4e4a      	ldr	r6, [pc, #296]	; (80033f4 <HAL_GPIO_Init+0x1dc>)
 80032cc:	2200      	movs	r2, #0
 80032ce:	9201      	str	r2, [sp, #4]
 80032d0:	f8d6 c044 	ldr.w	ip, [r6, #68]	; 0x44
 80032d4:	f44c 4c80 	orr.w	ip, ip, #16384	; 0x4000
 80032d8:	f8c6 c044 	str.w	ip, [r6, #68]	; 0x44
 80032dc:	6c76      	ldr	r6, [r6, #68]	; 0x44
 80032de:	f406 4680 	and.w	r6, r6, #16384	; 0x4000
 80032e2:	9601      	str	r6, [sp, #4]
 80032e4:	9e01      	ldr	r6, [sp, #4]
 80032e6:	f023 0603 	bic.w	r6, r3, #3
 80032ea:	f106 4680 	add.w	r6, r6, #1073741824	; 0x40000000
 80032ee:	f506 369c 	add.w	r6, r6, #79872	; 0x13800

        temp = SYSCFG->EXTICR[position >> 2];
        temp &= ~(((uint32_t)0x0F) << (4 * (position & 0x03)));
 80032f2:	f003 0c03 	and.w	ip, r3, #3
      if((GPIO_Init->Mode & EXTI_MODE) == EXTI_MODE)
      {
        /* Enable SYSCFG Clock */
        __HAL_RCC_SYSCFG_CLK_ENABLE();

        temp = SYSCFG->EXTICR[position >> 2];
 80032f6:	f8d6 9008 	ldr.w	r9, [r6, #8]
        temp &= ~(((uint32_t)0x0F) << (4 * (position & 0x03)));
 80032fa:	ea4f 0c8c 	mov.w	ip, ip, lsl #2
 80032fe:	f04f 080f 	mov.w	r8, #15
 8003302:	fa08 f80c 	lsl.w	r8, r8, ip
 8003306:	ea29 0808 	bic.w	r8, r9, r8
        temp |= ((uint32_t)(GPIO_GET_INDEX(GPIOx)) << (4 * (position & 0x03)));
 800330a:	f8df 90f0 	ldr.w	r9, [pc, #240]	; 80033fc <HAL_GPIO_Init+0x1e4>
 800330e:	4548      	cmp	r0, r9
 8003310:	d037      	beq.n	8003382 <HAL_GPIO_Init+0x16a>
 8003312:	f102 4280 	add.w	r2, r2, #1073741824	; 0x40000000
 8003316:	f502 3201 	add.w	r2, r2, #132096	; 0x20400
 800331a:	4290      	cmp	r0, r2
 800331c:	d022      	beq.n	8003364 <HAL_GPIO_Init+0x14c>
 800331e:	f502 6280 	add.w	r2, r2, #1024	; 0x400
 8003322:	4290      	cmp	r0, r2
 8003324:	d020      	beq.n	8003368 <HAL_GPIO_Init+0x150>
 8003326:	f502 6280 	add.w	r2, r2, #1024	; 0x400
 800332a:	4290      	cmp	r0, r2
 800332c:	d01e      	beq.n	800336c <HAL_GPIO_Init+0x154>
 800332e:	f502 6280 	add.w	r2, r2, #1024	; 0x400
 8003332:	4290      	cmp	r0, r2
 8003334:	d01c      	beq.n	8003370 <HAL_GPIO_Init+0x158>
 8003336:	f502 6280 	add.w	r2, r2, #1024	; 0x400
 800333a:	4290      	cmp	r0, r2
 800333c:	d01a      	beq.n	8003374 <HAL_GPIO_Init+0x15c>
 800333e:	f502 6280 	add.w	r2, r2, #1024	; 0x400
 8003342:	4290      	cmp	r0, r2
 8003344:	d018      	beq.n	8003378 <HAL_GPIO_Init+0x160>
 8003346:	f502 6280 	add.w	r2, r2, #1024	; 0x400
 800334a:	4290      	cmp	r0, r2
 800334c:	d016      	beq.n	800337c <HAL_GPIO_Init+0x164>
 800334e:	f502 6280 	add.w	r2, r2, #1024	; 0x400
 8003352:	4290      	cmp	r0, r2
 8003354:	d014      	beq.n	8003380 <HAL_GPIO_Init+0x168>
 8003356:	f502 6280 	add.w	r2, r2, #1024	; 0x400
 800335a:	4290      	cmp	r0, r2
 800335c:	bf14      	ite	ne
 800335e:	220a      	movne	r2, #10
 8003360:	2209      	moveq	r2, #9
 8003362:	e00e      	b.n	8003382 <HAL_GPIO_Init+0x16a>
 8003364:	2201      	movs	r2, #1
 8003366:	e00c      	b.n	8003382 <HAL_GPIO_Init+0x16a>
 8003368:	2202      	movs	r2, #2
 800336a:	e00a      	b.n	8003382 <HAL_GPIO_Init+0x16a>
 800336c:	2203      	movs	r2, #3
 800336e:	e008      	b.n	8003382 <HAL_GPIO_Init+0x16a>
 8003370:	2204      	movs	r2, #4
 8003372:	e006      	b.n	8003382 <HAL_GPIO_Init+0x16a>
 8003374:	2205      	movs	r2, #5
 8003376:	e004      	b.n	8003382 <HAL_GPIO_Init+0x16a>
 8003378:	2206      	movs	r2, #6
 800337a:	e002      	b.n	8003382 <HAL_GPIO_Init+0x16a>
 800337c:	2207      	movs	r2, #7
 800337e:	e000      	b.n	8003382 <HAL_GPIO_Init+0x16a>
 8003380:	2208      	movs	r2, #8
 8003382:	fa02 f20c 	lsl.w	r2, r2, ip
 8003386:	ea42 0208 	orr.w	r2, r2, r8
        SYSCFG->EXTICR[position >> 2] = temp;
 800338a:	60b2      	str	r2, [r6, #8]

        /* Clear EXTI line configuration */
        temp = EXTI->IMR;
 800338c:	4e1a      	ldr	r6, [pc, #104]	; (80033f8 <HAL_GPIO_Init+0x1e0>)
 800338e:	f8d6 c000 	ldr.w	ip, [r6]
        temp &= ~((uint32_t)iocurrent);
 8003392:	43ea      	mvns	r2, r5
        if((GPIO_Init->Mode & GPIO_MODE_IT) == GPIO_MODE_IT)
 8003394:	f414 3f80 	tst.w	r4, #65536	; 0x10000
        {
          temp |= iocurrent;
 8003398:	bf14      	ite	ne
 800339a:	ea45 0c0c 	orrne.w	ip, r5, ip
        temp |= ((uint32_t)(GPIO_GET_INDEX(GPIOx)) << (4 * (position & 0x03)));
        SYSCFG->EXTICR[position >> 2] = temp;

        /* Clear EXTI line configuration */
        temp = EXTI->IMR;
        temp &= ~((uint32_t)iocurrent);
 800339e:	ea02 0c0c 	andeq.w	ip, r2, ip
        if((GPIO_Init->Mode & GPIO_MODE_IT) == GPIO_MODE_IT)
        {
          temp |= iocurrent;
        }
        EXTI->IMR = temp;
 80033a2:	f8c6 c000 	str.w	ip, [r6]

        temp = EXTI->EMR;
 80033a6:	6876      	ldr	r6, [r6, #4]
        temp &= ~((uint32_t)iocurrent);
        if((GPIO_Init->Mode & GPIO_MODE_EVT) == GPIO_MODE_EVT)
 80033a8:	f414 3f00 	tst.w	r4, #131072	; 0x20000
        {
          temp |= iocurrent;
 80033ac:	bf14      	ite	ne
 80033ae:	ea45 0c06 	orrne.w	ip, r5, r6
          temp |= iocurrent;
        }
        EXTI->IMR = temp;

        temp = EXTI->EMR;
        temp &= ~((uint32_t)iocurrent);
 80033b2:	ea02 0c06 	andeq.w	ip, r2, r6
        if((GPIO_Init->Mode & GPIO_MODE_EVT) == GPIO_MODE_EVT)
        {
          temp |= iocurrent;
        }
        EXTI->EMR = temp;
 80033b6:	4e10      	ldr	r6, [pc, #64]	; (80033f8 <HAL_GPIO_Init+0x1e0>)
 80033b8:	f8c6 c004 	str.w	ip, [r6, #4]

        /* Clear Rising Falling edge configuration */
        temp = EXTI->RTSR;
 80033bc:	f8d6 c008 	ldr.w	ip, [r6, #8]
        temp &= ~((uint32_t)iocurrent);
        if((GPIO_Init->Mode & RISING_EDGE) == RISING_EDGE)
 80033c0:	f414 1f80 	tst.w	r4, #1048576	; 0x100000
        {
          temp |= iocurrent;
 80033c4:	bf14      	ite	ne
 80033c6:	ea45 0c0c 	orrne.w	ip, r5, ip
        }
        EXTI->EMR = temp;

        /* Clear Rising Falling edge configuration */
        temp = EXTI->RTSR;
        temp &= ~((uint32_t)iocurrent);
 80033ca:	ea02 0c0c 	andeq.w	ip, r2, ip
        if((GPIO_Init->Mode & RISING_EDGE) == RISING_EDGE)
        {
          temp |= iocurrent;
        }
        EXTI->RTSR = temp;
 80033ce:	f8c6 c008 	str.w	ip, [r6, #8]

        temp = EXTI->FTSR;
 80033d2:	68f6      	ldr	r6, [r6, #12]
        temp &= ~((uint32_t)iocurrent);
        if((GPIO_Init->Mode & FALLING_EDGE) == FALLING_EDGE)
 80033d4:	02a4      	lsls	r4, r4, #10
          temp |= iocurrent;
        }
        EXTI->RTSR = temp;

        temp = EXTI->FTSR;
        temp &= ~((uint32_t)iocurrent);
 80033d6:	bf58      	it	pl
 80033d8:	ea02 0506 	andpl.w	r5, r2, r6
        if((GPIO_Init->Mode & FALLING_EDGE) == FALLING_EDGE)
        {
          temp |= iocurrent;
        }
        EXTI->FTSR = temp;
 80033dc:	4a06      	ldr	r2, [pc, #24]	; (80033f8 <HAL_GPIO_Init+0x1e0>)

        temp = EXTI->FTSR;
        temp &= ~((uint32_t)iocurrent);
        if((GPIO_Init->Mode & FALLING_EDGE) == FALLING_EDGE)
        {
          temp |= iocurrent;
 80033de:	bf48      	it	mi
 80033e0:	4335      	orrmi	r5, r6
        }
        EXTI->FTSR = temp;
 80033e2:	60d5      	str	r5, [r2, #12]
  assert_param(IS_GPIO_PIN(GPIO_Init->Pin));
  assert_param(IS_GPIO_MODE(GPIO_Init->Mode));
  assert_param(IS_GPIO_PULL(GPIO_Init->Pull));

  /* Configure the port pins */
  for(position = 0; position < GPIO_NUMBER; position++)
 80033e4:	3301      	adds	r3, #1
 80033e6:	2b10      	cmp	r3, #16
 80033e8:	f47f af1a 	bne.w	8003220 <HAL_GPIO_Init+0x8>
        }
        EXTI->FTSR = temp;
      }
    }
  }
}
 80033ec:	b003      	add	sp, #12
 80033ee:	e8bd 83f0 	ldmia.w	sp!, {r4, r5, r6, r7, r8, r9, pc}
 80033f2:	bf00      	nop
 80033f4:	40023800 	.word	0x40023800
 80033f8:	40013c00 	.word	0x40013c00
 80033fc:	40020000 	.word	0x40020000

08003400 <HAL_GPIO_WritePin>:
{
  /* Check the parameters */
  assert_param(IS_GPIO_PIN(GPIO_Pin));
  assert_param(IS_GPIO_PIN_ACTION(PinState));

  if(PinState != GPIO_PIN_RESET)
 8003400:	b902      	cbnz	r2, 8003404 <HAL_GPIO_WritePin+0x4>
  {
    GPIOx->BSRR = GPIO_Pin;
  }
  else
  {
    GPIOx->BSRR = (uint32_t)GPIO_Pin << 16;
 8003402:	0409      	lsls	r1, r1, #16
 8003404:	6181      	str	r1, [r0, #24]
 8003406:	4770      	bx	lr

08003408 <HAL_GPIO_TogglePin>:
void HAL_GPIO_TogglePin(GPIO_TypeDef* GPIOx, uint16_t GPIO_Pin)
{
  /* Check the parameters */
  assert_param(IS_GPIO_PIN(GPIO_Pin));

  GPIOx->ODR ^= GPIO_Pin;
 8003408:	6943      	ldr	r3, [r0, #20]
 800340a:	4059      	eors	r1, r3
 800340c:	6141      	str	r1, [r0, #20]
 800340e:	4770      	bx	lr

08003410 <HAL_NVIC_SetPriorityGrouping>:
__STATIC_INLINE void NVIC_SetPriorityGrouping(uint32_t PriorityGroup)
{
  uint32_t reg_value;
  uint32_t PriorityGroupTmp = (PriorityGroup & (uint32_t)0x07UL);             /* only values 0..7 are used          */

  reg_value  =  SCB->AIRCR;                                                   /* read old register configuration    */
 8003410:	4a07      	ldr	r2, [pc, #28]	; (8003430 <HAL_NVIC_SetPriorityGrouping+0x20>)
 8003412:	68d3      	ldr	r3, [r2, #12]
  reg_value &= ~((uint32_t)(SCB_AIRCR_VECTKEY_Msk | SCB_AIRCR_PRIGROUP_Msk)); /* clear bits to change               */
 8003414:	f423 63e0 	bic.w	r3, r3, #1792	; 0x700
 8003418:	041b      	lsls	r3, r3, #16
 800341a:	0c1b      	lsrs	r3, r3, #16
  reg_value  =  (reg_value                                   |
                ((uint32_t)0x5FAUL << SCB_AIRCR_VECTKEY_Pos) |
 800341c:	f043 63bf 	orr.w	r3, r3, #100139008	; 0x5f80000
 8003420:	f443 3300 	orr.w	r3, r3, #131072	; 0x20000
  \param [in]      PriorityGroup  Priority grouping field.
 */
__STATIC_INLINE void NVIC_SetPriorityGrouping(uint32_t PriorityGroup)
{
  uint32_t reg_value;
  uint32_t PriorityGroupTmp = (PriorityGroup & (uint32_t)0x07UL);             /* only values 0..7 are used          */
 8003424:	f000 0007 	and.w	r0, r0, #7

  reg_value  =  SCB->AIRCR;                                                   /* read old register configuration    */
  reg_value &= ~((uint32_t)(SCB_AIRCR_VECTKEY_Msk | SCB_AIRCR_PRIGROUP_Msk)); /* clear bits to change               */
  reg_value  =  (reg_value                                   |
 8003428:	ea43 2300 	orr.w	r3, r3, r0, lsl #8
                ((uint32_t)0x5FAUL << SCB_AIRCR_VECTKEY_Pos) |
                (PriorityGroupTmp << 8U)                      );              /* Insert write key and priorty group */
  SCB->AIRCR =  reg_value;
 800342c:	60d3      	str	r3, [r2, #12]
 800342e:	4770      	bx	lr
 8003430:	e000ed00 	.word	0xe000ed00

08003434 <HAL_NVIC_SetPriority>:
  \details Reads the priority grouping field from the NVIC Interrupt Controller.
  \return                Priority grouping field (SCB->AIRCR [10:8] PRIGROUP field).
 */
__STATIC_INLINE uint32_t NVIC_GetPriorityGrouping(void)
{
  return ((uint32_t)((SCB->AIRCR & SCB_AIRCR_PRIGROUP_Msk) >> SCB_AIRCR_PRIGROUP_Pos));
 8003434:	4b16      	ldr	r3, [pc, #88]	; (8003490 <HAL_NVIC_SetPriority+0x5c>)
 8003436:	68db      	ldr	r3, [r3, #12]
 8003438:	f3c3 2302 	ubfx	r3, r3, #8, #3
  *         This parameter can be a value between 0 and 15
  *         A lower priority value indicates a higher priority.          
  * @retval None
  */
void HAL_NVIC_SetPriority(IRQn_Type IRQn, uint32_t PreemptPriority, uint32_t SubPriority)
{ 
 800343c:	b570      	push	{r4, r5, r6, lr}
  uint32_t PriorityGroupTmp = (PriorityGroup & (uint32_t)0x07UL);   /* only values 0..7 are used          */
  uint32_t PreemptPriorityBits;
  uint32_t SubPriorityBits;

  PreemptPriorityBits = ((7UL - PriorityGroupTmp) > (uint32_t)(__NVIC_PRIO_BITS)) ? (uint32_t)(__NVIC_PRIO_BITS) : (uint32_t)(7UL - PriorityGroupTmp);
  SubPriorityBits     = ((PriorityGroupTmp + (uint32_t)(__NVIC_PRIO_BITS)) < (uint32_t)7UL) ? (uint32_t)0UL : (uint32_t)((PriorityGroupTmp - 7UL) + (uint32_t)(__NVIC_PRIO_BITS));
 800343e:	1d1d      	adds	r5, r3, #4
{
  uint32_t PriorityGroupTmp = (PriorityGroup & (uint32_t)0x07UL);   /* only values 0..7 are used          */
  uint32_t PreemptPriorityBits;
  uint32_t SubPriorityBits;

  PreemptPriorityBits = ((7UL - PriorityGroupTmp) > (uint32_t)(__NVIC_PRIO_BITS)) ? (uint32_t)(__NVIC_PRIO_BITS) : (uint32_t)(7UL - PriorityGroupTmp);
 8003440:	f1c3 0407 	rsb	r4, r3, #7
 8003444:	2c04      	cmp	r4, #4
 8003446:	bf28      	it	cs
 8003448:	2404      	movcs	r4, #4
  SubPriorityBits     = ((PriorityGroupTmp + (uint32_t)(__NVIC_PRIO_BITS)) < (uint32_t)7UL) ? (uint32_t)0UL : (uint32_t)((PriorityGroupTmp - 7UL) + (uint32_t)(__NVIC_PRIO_BITS));
 800344a:	2d06      	cmp	r5, #6

  return (
           ((PreemptPriority & (uint32_t)((1UL << (PreemptPriorityBits)) - 1UL)) << SubPriorityBits) |
           ((SubPriority     & (uint32_t)((1UL << (SubPriorityBits    )) - 1UL)))
 800344c:	f04f 0501 	mov.w	r5, #1
  uint32_t PriorityGroupTmp = (PriorityGroup & (uint32_t)0x07UL);   /* only values 0..7 are used          */
  uint32_t PreemptPriorityBits;
  uint32_t SubPriorityBits;

  PreemptPriorityBits = ((7UL - PriorityGroupTmp) > (uint32_t)(__NVIC_PRIO_BITS)) ? (uint32_t)(__NVIC_PRIO_BITS) : (uint32_t)(7UL - PriorityGroupTmp);
  SubPriorityBits     = ((PriorityGroupTmp + (uint32_t)(__NVIC_PRIO_BITS)) < (uint32_t)7UL) ? (uint32_t)0UL : (uint32_t)((PriorityGroupTmp - 7UL) + (uint32_t)(__NVIC_PRIO_BITS));
 8003450:	bf8c      	ite	hi
 8003452:	3b03      	subhi	r3, #3
 8003454:	2300      	movls	r3, #0

  return (
           ((PreemptPriority & (uint32_t)((1UL << (PreemptPriorityBits)) - 1UL)) << SubPriorityBits) |
 8003456:	fa05 f404 	lsl.w	r4, r5, r4
           ((SubPriority     & (uint32_t)((1UL << (SubPriorityBits    )) - 1UL)))
 800345a:	fa05 f603 	lsl.w	r6, r5, r3

  PreemptPriorityBits = ((7UL - PriorityGroupTmp) > (uint32_t)(__NVIC_PRIO_BITS)) ? (uint32_t)(__NVIC_PRIO_BITS) : (uint32_t)(7UL - PriorityGroupTmp);
  SubPriorityBits     = ((PriorityGroupTmp + (uint32_t)(__NVIC_PRIO_BITS)) < (uint32_t)7UL) ? (uint32_t)0UL : (uint32_t)((PriorityGroupTmp - 7UL) + (uint32_t)(__NVIC_PRIO_BITS));

  return (
           ((PreemptPriority & (uint32_t)((1UL << (PreemptPriorityBits)) - 1UL)) << SubPriorityBits) |
 800345e:	3c01      	subs	r4, #1
           ((SubPriority     & (uint32_t)((1UL << (SubPriorityBits    )) - 1UL)))
 8003460:	3e01      	subs	r6, #1

  PreemptPriorityBits = ((7UL - PriorityGroupTmp) > (uint32_t)(__NVIC_PRIO_BITS)) ? (uint32_t)(__NVIC_PRIO_BITS) : (uint32_t)(7UL - PriorityGroupTmp);
  SubPriorityBits     = ((PriorityGroupTmp + (uint32_t)(__NVIC_PRIO_BITS)) < (uint32_t)7UL) ? (uint32_t)0UL : (uint32_t)((PriorityGroupTmp - 7UL) + (uint32_t)(__NVIC_PRIO_BITS));

  return (
           ((PreemptPriority & (uint32_t)((1UL << (PreemptPriorityBits)) - 1UL)) << SubPriorityBits) |
 8003462:	4021      	ands	r1, r4
           ((SubPriority     & (uint32_t)((1UL << (SubPriorityBits    )) - 1UL)))
 8003464:	4032      	ands	r2, r6

  PreemptPriorityBits = ((7UL - PriorityGroupTmp) > (uint32_t)(__NVIC_PRIO_BITS)) ? (uint32_t)(__NVIC_PRIO_BITS) : (uint32_t)(7UL - PriorityGroupTmp);
  SubPriorityBits     = ((PriorityGroupTmp + (uint32_t)(__NVIC_PRIO_BITS)) < (uint32_t)7UL) ? (uint32_t)0UL : (uint32_t)((PriorityGroupTmp - 7UL) + (uint32_t)(__NVIC_PRIO_BITS));

  return (
           ((PreemptPriority & (uint32_t)((1UL << (PreemptPriorityBits)) - 1UL)) << SubPriorityBits) |
 8003466:	fa01 f303 	lsl.w	r3, r1, r3
  uint32_t SubPriorityBits;

  PreemptPriorityBits = ((7UL - PriorityGroupTmp) > (uint32_t)(__NVIC_PRIO_BITS)) ? (uint32_t)(__NVIC_PRIO_BITS) : (uint32_t)(7UL - PriorityGroupTmp);
  SubPriorityBits     = ((PriorityGroupTmp + (uint32_t)(__NVIC_PRIO_BITS)) < (uint32_t)7UL) ? (uint32_t)0UL : (uint32_t)((PriorityGroupTmp - 7UL) + (uint32_t)(__NVIC_PRIO_BITS));

  return (
 800346a:	4313      	orrs	r3, r2
  \param [in]      IRQn  Interrupt number.
  \param [in]  priority  Priority to set.
 */
__STATIC_INLINE void NVIC_SetPriority(IRQn_Type IRQn, uint32_t priority)
{
  if ((int32_t)(IRQn) < 0)
 800346c:	2800      	cmp	r0, #0
 800346e:	ea4f 1303 	mov.w	r3, r3, lsl #4
 8003472:	da05      	bge.n	8003480 <HAL_NVIC_SetPriority+0x4c>
  {
    SCB->SHPR[(((uint32_t)(int32_t)IRQn) & 0xFUL)-4UL] = (uint8_t)((priority << (8U - __NVIC_PRIO_BITS)) & (uint32_t)0xFFUL);
 8003474:	b2da      	uxtb	r2, r3
 8003476:	f000 000f 	and.w	r0, r0, #15
 800347a:	4b06      	ldr	r3, [pc, #24]	; (8003494 <HAL_NVIC_SetPriority+0x60>)
 800347c:	541a      	strb	r2, [r3, r0]
 800347e:	bd70      	pop	{r4, r5, r6, pc}
  }
  else
  {
    NVIC->IP[((uint32_t)(int32_t)IRQn)]                = (uint8_t)((priority << (8U - __NVIC_PRIO_BITS)) & (uint32_t)0xFFUL);
 8003480:	f100 4060 	add.w	r0, r0, #3758096384	; 0xe0000000
 8003484:	f500 4061 	add.w	r0, r0, #57600	; 0xe100
 8003488:	b2db      	uxtb	r3, r3
 800348a:	f880 3300 	strb.w	r3, [r0, #768]	; 0x300
 800348e:	bd70      	pop	{r4, r5, r6, pc}
 8003490:	e000ed00 	.word	0xe000ed00
 8003494:	e000ed14 	.word	0xe000ed14

08003498 <HAL_NVIC_EnableIRQ>:
  \details Enables a device-specific interrupt in the NVIC interrupt controller.
  \param [in]      IRQn  External interrupt number. Value cannot be negative.
 */
__STATIC_INLINE void NVIC_EnableIRQ(IRQn_Type IRQn)
{
  NVIC->ISER[(((uint32_t)(int32_t)IRQn) >> 5UL)] = (uint32_t)(1UL << (((uint32_t)(int32_t)IRQn) & 0x1FUL));
 8003498:	0942      	lsrs	r2, r0, #5
 800349a:	2301      	movs	r3, #1
 800349c:	f000 001f 	and.w	r0, r0, #31
 80034a0:	fa03 f000 	lsl.w	r0, r3, r0
 80034a4:	4b01      	ldr	r3, [pc, #4]	; (80034ac <HAL_NVIC_EnableIRQ+0x14>)
 80034a6:	f843 0022 	str.w	r0, [r3, r2, lsl #2]
 80034aa:	4770      	bx	lr
 80034ac:	e000e100 	.word	0xe000e100

080034b0 <HAL_SYSTICK_Config>:
           function <b>SysTick_Config</b> is not included. In this case, the file <b><i>device</i>.h</b>
           must contain a vendor-specific implementation of this function.
 */
__STATIC_INLINE uint32_t SysTick_Config(uint32_t ticks)
{
  if ((ticks - 1UL) > SysTick_LOAD_RELOAD_Msk)
 80034b0:	3801      	subs	r0, #1
 80034b2:	f1b0 7f80 	cmp.w	r0, #16777216	; 0x1000000
 80034b6:	d20a      	bcs.n	80034ce <HAL_SYSTICK_Config+0x1e>
  {
    return (1UL);                                                   /* Reload value impossible */
  }

  SysTick->LOAD  = (uint32_t)(ticks - 1UL);                         /* set reload register */
 80034b8:	4b06      	ldr	r3, [pc, #24]	; (80034d4 <HAL_SYSTICK_Config+0x24>)
 */
__STATIC_INLINE void NVIC_SetPriority(IRQn_Type IRQn, uint32_t priority)
{
  if ((int32_t)(IRQn) < 0)
  {
    SCB->SHPR[(((uint32_t)(int32_t)IRQn) & 0xFUL)-4UL] = (uint8_t)((priority << (8U - __NVIC_PRIO_BITS)) & (uint32_t)0xFFUL);
 80034ba:	4a07      	ldr	r2, [pc, #28]	; (80034d8 <HAL_SYSTICK_Config+0x28>)
  if ((ticks - 1UL) > SysTick_LOAD_RELOAD_Msk)
  {
    return (1UL);                                                   /* Reload value impossible */
  }

  SysTick->LOAD  = (uint32_t)(ticks - 1UL);                         /* set reload register */
 80034bc:	6058      	str	r0, [r3, #4]
 */
__STATIC_INLINE void NVIC_SetPriority(IRQn_Type IRQn, uint32_t priority)
{
  if ((int32_t)(IRQn) < 0)
  {
    SCB->SHPR[(((uint32_t)(int32_t)IRQn) & 0xFUL)-4UL] = (uint8_t)((priority << (8U - __NVIC_PRIO_BITS)) & (uint32_t)0xFFUL);
 80034be:	21f0      	movs	r1, #240	; 0xf0
 80034c0:	f882 1023 	strb.w	r1, [r2, #35]	; 0x23
    return (1UL);                                                   /* Reload value impossible */
  }

  SysTick->LOAD  = (uint32_t)(ticks - 1UL);                         /* set reload register */
  NVIC_SetPriority (SysTick_IRQn, (1UL << __NVIC_PRIO_BITS) - 1UL); /* set Priority for Systick Interrupt */
  SysTick->VAL   = 0UL;                                             /* Load the SysTick Counter Value */
 80034c4:	2000      	movs	r0, #0
  SysTick->CTRL  = SysTick_CTRL_CLKSOURCE_Msk |
 80034c6:	2207      	movs	r2, #7
    return (1UL);                                                   /* Reload value impossible */
  }

  SysTick->LOAD  = (uint32_t)(ticks - 1UL);                         /* set reload register */
  NVIC_SetPriority (SysTick_IRQn, (1UL << __NVIC_PRIO_BITS) - 1UL); /* set Priority for Systick Interrupt */
  SysTick->VAL   = 0UL;                                             /* Load the SysTick Counter Value */
 80034c8:	6098      	str	r0, [r3, #8]
  SysTick->CTRL  = SysTick_CTRL_CLKSOURCE_Msk |
 80034ca:	601a      	str	r2, [r3, #0]
 80034cc:	4770      	bx	lr
 */
__STATIC_INLINE uint32_t SysTick_Config(uint32_t ticks)
{
  if ((ticks - 1UL) > SysTick_LOAD_RELOAD_Msk)
  {
    return (1UL);                                                   /* Reload value impossible */
 80034ce:	2001      	movs	r0, #1
  *                  - 1  Function failed.
  */
uint32_t HAL_SYSTICK_Config(uint32_t TicksNumb)
{
   return SysTick_Config(TicksNumb);
}
 80034d0:	4770      	bx	lr
 80034d2:	bf00      	nop
 80034d4:	e000e010 	.word	0xe000e010
 80034d8:	e000ed00 	.word	0xe000ed00

080034dc <HAL_SYSTICK_CLKSourceConfig>:
  *             @arg SYSTICK_CLKSOURCE_HCLK_DIV8: AHB clock divided by 8 selected as SysTick clock source.
  *             @arg SYSTICK_CLKSOURCE_HCLK: AHB clock selected as SysTick clock source.
  * @retval None
  */
void HAL_SYSTICK_CLKSourceConfig(uint32_t CLKSource)
{
 80034dc:	4b04      	ldr	r3, [pc, #16]	; (80034f0 <HAL_SYSTICK_CLKSourceConfig+0x14>)
  /* Check the parameters */
  assert_param(IS_SYSTICK_CLK_SOURCE(CLKSource));
  if (CLKSource == SYSTICK_CLKSOURCE_HCLK)
  {
    SysTick->CTRL |= SYSTICK_CLKSOURCE_HCLK;
 80034de:	681a      	ldr	r2, [r3, #0]
  */
void HAL_SYSTICK_CLKSourceConfig(uint32_t CLKSource)
{
  /* Check the parameters */
  assert_param(IS_SYSTICK_CLK_SOURCE(CLKSource));
  if (CLKSource == SYSTICK_CLKSOURCE_HCLK)
 80034e0:	2804      	cmp	r0, #4
  {
    SysTick->CTRL |= SYSTICK_CLKSOURCE_HCLK;
 80034e2:	bf0c      	ite	eq
 80034e4:	f042 0204 	orreq.w	r2, r2, #4
  }
  else
  {
    SysTick->CTRL &= ~SYSTICK_CLKSOURCE_HCLK;
 80034e8:	f022 0204 	bicne.w	r2, r2, #4
 80034ec:	601a      	str	r2, [r3, #0]
 80034ee:	4770      	bx	lr
 80034f0:	e000e010 	.word	0xe000e010

080034f4 <HAL_SYSTICK_Callback>:
/**
  * @brief  SYSTICK callback.
  * @retval None
  */
__weak void HAL_SYSTICK_Callback(void)
{
 80034f4:	4770      	bx	lr

080034f6 <HAL_SYSTICK_IRQHandler>:
/**
  * @brief  This function handles SYSTICK interrupt request.
  * @retval None
  */
void HAL_SYSTICK_IRQHandler(void)
{
 80034f6:	b508      	push	{r3, lr}
  HAL_SYSTICK_Callback();
 80034f8:	f7ff fffc 	bl	80034f4 <HAL_SYSTICK_Callback>
 80034fc:	bd08      	pop	{r3, pc}

080034fe <HAL_InitTick>:
  *       implementation  in user file.
  * @param TickPriority: Tick interrupt priority.
  * @retval HAL status
  */
__weak HAL_StatusTypeDef HAL_InitTick(uint32_t TickPriority)
{
 80034fe:	b510      	push	{r4, lr}
 8003500:	4604      	mov	r4, r0
  /*Configure the SysTick to have interrupt in 1ms time basis*/
  HAL_SYSTICK_Config(HAL_RCC_GetHCLKFreq()/1000);
 8003502:	f7ff fe09 	bl	8003118 <HAL_RCC_GetHCLKFreq>
 8003506:	f44f 737a 	mov.w	r3, #1000	; 0x3e8
 800350a:	fbb0 f0f3 	udiv	r0, r0, r3
 800350e:	f7ff ffcf 	bl	80034b0 <HAL_SYSTICK_Config>

  /*Configure the SysTick IRQ priority */
  HAL_NVIC_SetPriority(SysTick_IRQn, TickPriority ,0);
 8003512:	f04f 30ff 	mov.w	r0, #4294967295
 8003516:	4621      	mov	r1, r4
 8003518:	2200      	movs	r2, #0
 800351a:	f7ff ff8b 	bl	8003434 <HAL_NVIC_SetPriority>

  /* Return function status */
  return HAL_OK;
}
 800351e:	2000      	movs	r0, #0
 8003520:	bd10      	pop	{r4, pc}
	...

08003524 <HAL_Init>:
  *         need to ensure that the SysTick time base is always set to 1 millisecond
  *         to have correct HAL operation.
  * @retval HAL status
  */
HAL_StatusTypeDef HAL_Init(void)
{
 8003524:	b508      	push	{r3, lr}
  /* Configure Flash prefetch and Instruction cache through ART accelerator */ 
#if (ART_ACCLERATOR_ENABLE != 0)
   __HAL_FLASH_ART_ENABLE();
 8003526:	4b07      	ldr	r3, [pc, #28]	; (8003544 <HAL_Init+0x20>)
 8003528:	681a      	ldr	r2, [r3, #0]
 800352a:	f442 7200 	orr.w	r2, r2, #512	; 0x200
 800352e:	601a      	str	r2, [r3, #0]
#endif /* ART_ACCLERATOR_ENABLE */

  /* Set Interrupt Group Priority */
  HAL_NVIC_SetPriorityGrouping(NVIC_PRIORITYGROUP_4);
 8003530:	2003      	movs	r0, #3
 8003532:	f7ff ff6d 	bl	8003410 <HAL_NVIC_SetPriorityGrouping>

  /* Use systick as time base source and configure 1ms tick (default clock after Reset is HSI) */
  HAL_InitTick(TICK_INT_PRIORITY);
 8003536:	2000      	movs	r0, #0
 8003538:	f7ff ffe1 	bl	80034fe <HAL_InitTick>
  
  /* Init the low level hardware */
  HAL_MspInit();
 800353c:	f7fd fdda 	bl	80010f4 <HAL_MspInit>
  
  /* Return function status */
  return HAL_OK;
}
 8003540:	2000      	movs	r0, #0
 8003542:	bd08      	pop	{r3, pc}
 8003544:	40023c00 	.word	0x40023c00

08003548 <HAL_IncTick>:
  *      implementations in user file.
  * @retval None
  */
__weak void HAL_IncTick(void)
{
  uwTick++;
 8003548:	4b02      	ldr	r3, [pc, #8]	; (8003554 <HAL_IncTick+0xc>)
 800354a:	681a      	ldr	r2, [r3, #0]
 800354c:	3201      	adds	r2, #1
 800354e:	601a      	str	r2, [r3, #0]
 8003550:	4770      	bx	lr
 8003552:	bf00      	nop
 8003554:	20000564 	.word	0x20000564

08003558 <HAL_GetTick>:
  *       implementations in user file.
  * @retval tick value
  */
__weak uint32_t HAL_GetTick(void)
{
  return uwTick;
 8003558:	4b01      	ldr	r3, [pc, #4]	; (8003560 <HAL_GetTick+0x8>)
 800355a:	6818      	ldr	r0, [r3, #0]
}
 800355c:	4770      	bx	lr
 800355e:	bf00      	nop
 8003560:	20000564 	.word	0x20000564

08003564 <HAL_Delay>:
  *       implementations in user file.
  * @param Delay: specifies the delay time length, in milliseconds.
  * @retval None
  */
__weak void HAL_Delay(__IO uint32_t Delay)
{
 8003564:	b513      	push	{r0, r1, r4, lr}
 8003566:	9001      	str	r0, [sp, #4]
  uint32_t tickstart = 0;
  tickstart = HAL_GetTick();
 8003568:	f7ff fff6 	bl	8003558 <HAL_GetTick>
 800356c:	4604      	mov	r4, r0
  while((HAL_GetTick() - tickstart) < Delay)
 800356e:	f7ff fff3 	bl	8003558 <HAL_GetTick>
 8003572:	9b01      	ldr	r3, [sp, #4]
 8003574:	1b00      	subs	r0, r0, r4
 8003576:	4298      	cmp	r0, r3
 8003578:	d3f9      	bcc.n	800356e <HAL_Delay+0xa>
  {
  }
}
 800357a:	b002      	add	sp, #8
 800357c:	bd10      	pop	{r4, pc}
	...

08003580 <SystemInit>:
  */
void SystemInit(void)
{
  /* FPU settings ------------------------------------------------------------*/
  #if (__FPU_PRESENT == 1) && (__FPU_USED == 1)
    SCB->CPACR |= ((3UL << 10*2)|(3UL << 11*2));  /* set CP10 and CP11 Full Access */
 8003580:	4a0f      	ldr	r2, [pc, #60]	; (80035c0 <SystemInit+0x40>)
 8003582:	f8d2 3088 	ldr.w	r3, [r2, #136]	; 0x88
 8003586:	f443 0370 	orr.w	r3, r3, #15728640	; 0xf00000
 800358a:	f8c2 3088 	str.w	r3, [r2, #136]	; 0x88
  #endif
  /* Reset the RCC clock configuration to the default reset state ------------*/
  /* Set HSION bit */
  RCC->CR |= (uint32_t)0x00000001;
 800358e:	4b0d      	ldr	r3, [pc, #52]	; (80035c4 <SystemInit+0x44>)
 8003590:	6819      	ldr	r1, [r3, #0]

  /* Reset CFGR register */
  RCC->CFGR = 0x00000000;
 8003592:	2000      	movs	r0, #0
  #if (__FPU_PRESENT == 1) && (__FPU_USED == 1)
    SCB->CPACR |= ((3UL << 10*2)|(3UL << 11*2));  /* set CP10 and CP11 Full Access */
  #endif
  /* Reset the RCC clock configuration to the default reset state ------------*/
  /* Set HSION bit */
  RCC->CR |= (uint32_t)0x00000001;
 8003594:	f041 0101 	orr.w	r1, r1, #1
 8003598:	6019      	str	r1, [r3, #0]

  /* Reset CFGR register */
  RCC->CFGR = 0x00000000;
 800359a:	6098      	str	r0, [r3, #8]

  /* Reset HSEON, CSSON and PLLON bits */
  RCC->CR &= (uint32_t)0xFEF6FFFF;
 800359c:	6819      	ldr	r1, [r3, #0]
 800359e:	f021 7184 	bic.w	r1, r1, #17301504	; 0x1080000
 80035a2:	f421 3180 	bic.w	r1, r1, #65536	; 0x10000
 80035a6:	6019      	str	r1, [r3, #0]

  /* Reset PLLCFGR register */
  RCC->PLLCFGR = 0x24003010;
 80035a8:	4907      	ldr	r1, [pc, #28]	; (80035c8 <SystemInit+0x48>)
 80035aa:	6059      	str	r1, [r3, #4]

  /* Reset HSEBYP bit */
  RCC->CR &= (uint32_t)0xFFFBFFFF;
 80035ac:	6819      	ldr	r1, [r3, #0]
 80035ae:	f421 2180 	bic.w	r1, r1, #262144	; 0x40000
 80035b2:	6019      	str	r1, [r3, #0]

  /* Disable all interrupts */
  RCC->CIR = 0x00000000;
 80035b4:	60d8      	str	r0, [r3, #12]

  /* Configure the Vector Table location add offset address ------------------*/
#ifdef VECT_TAB_SRAM
  SCB->VTOR = RAMDTCM_BASE | VECT_TAB_OFFSET; /* Vector Table Relocation in Internal SRAM */
#else
  SCB->VTOR = FLASH_BASE | VECT_TAB_OFFSET; /* Vector Table Relocation in Internal FLASH */
 80035b6:	f04f 6300 	mov.w	r3, #134217728	; 0x8000000
 80035ba:	6093      	str	r3, [r2, #8]
 80035bc:	4770      	bx	lr
 80035be:	bf00      	nop
 80035c0:	e000ed00 	.word	0xe000ed00
 80035c4:	40023800 	.word	0x40023800
 80035c8:	24003010 	.word	0x24003010

080035cc <Reset_Handler>:

    .section  .text.Reset_Handler
  .weak  Reset_Handler
  .type  Reset_Handler, %function
Reset_Handler:  
  ldr   sp, =_estack      /* set stack pointer */
 80035cc:	f8df d03c 	ldr.w	sp, [pc, #60]	; 800360c <LoopFillZerobss+0x16>

/* Copy the data segment initializers from flash to SRAM */  
  movs  r1, #0
 80035d0:	2100      	movs	r1, #0
  b  LoopCopyDataInit
 80035d2:	f000 b804 	b.w	80035de <LoopCopyDataInit>

080035d6 <CopyDataInit>:

CopyDataInit:
  ldr  r3, =_sidata
 80035d6:	4b0e      	ldr	r3, [pc, #56]	; (8003610 <LoopFillZerobss+0x1a>)
  ldr  r3, [r3, r1]
 80035d8:	585b      	ldr	r3, [r3, r1]
  str  r3, [r0, r1]
 80035da:	5043      	str	r3, [r0, r1]
  adds  r1, r1, #4
 80035dc:	3104      	adds	r1, #4

080035de <LoopCopyDataInit>:
    
LoopCopyDataInit:
  ldr  r0, =_sdata
 80035de:	480d      	ldr	r0, [pc, #52]	; (8003614 <LoopFillZerobss+0x1e>)
  ldr  r3, =_edata
 80035e0:	4b0d      	ldr	r3, [pc, #52]	; (8003618 <LoopFillZerobss+0x22>)
  adds  r2, r0, r1
 80035e2:	1842      	adds	r2, r0, r1
  cmp  r2, r3
 80035e4:	429a      	cmp	r2, r3
  bcc  CopyDataInit
 80035e6:	f4ff aff6 	bcc.w	80035d6 <CopyDataInit>
  ldr  r2, =_sbss
 80035ea:	4a0c      	ldr	r2, [pc, #48]	; (800361c <LoopFillZerobss+0x26>)
  b  LoopFillZerobss
 80035ec:	f000 b803 	b.w	80035f6 <LoopFillZerobss>

080035f0 <FillZerobss>:
/* Zero fill the bss segment. */  
FillZerobss:
  movs  r3, #0
 80035f0:	2300      	movs	r3, #0
  str  r3, [r2], #4
 80035f2:	f842 3b04 	str.w	r3, [r2], #4

080035f6 <LoopFillZerobss>:
    
LoopFillZerobss:
  ldr  r3, = _ebss
 80035f6:	4b0a      	ldr	r3, [pc, #40]	; (8003620 <LoopFillZerobss+0x2a>)
  cmp  r2, r3
 80035f8:	429a      	cmp	r2, r3
  bcc  FillZerobss
 80035fa:	f4ff aff9 	bcc.w	80035f0 <FillZerobss>

/* Call the clock system initialization function.*/
  bl  SystemInit   
 80035fe:	f7ff ffbf 	bl	8003580 <SystemInit>
/* Call static constructors */
    bl __libc_init_array
 8003602:	f000 f811 	bl	8003628 <__libc_init_array>
/* Call the application's entry point.*/
  bl  main
 8003606:	f7fd ff9d 	bl	8001544 <main>
  bx  lr    
 800360a:	4770      	bx	lr

    .section  .text.Reset_Handler
  .weak  Reset_Handler
  .type  Reset_Handler, %function
Reset_Handler:  
  ldr   sp, =_estack      /* set stack pointer */
 800360c:	20050000 	.word	0x20050000
/* Copy the data segment initializers from flash to SRAM */  
  movs  r1, #0
  b  LoopCopyDataInit

CopyDataInit:
  ldr  r3, =_sidata
 8003610:	08007de0 	.word	0x08007de0
  ldr  r3, [r3, r1]
  str  r3, [r0, r1]
  adds  r1, r1, #4
    
LoopCopyDataInit:
  ldr  r0, =_sdata
 8003614:	20000000 	.word	0x20000000
  ldr  r3, =_edata
 8003618:	20000544 	.word	0x20000544
  adds  r2, r0, r1
  cmp  r2, r3
  bcc  CopyDataInit
  ldr  r2, =_sbss
 800361c:	20000544 	.word	0x20000544
FillZerobss:
  movs  r3, #0
  str  r3, [r2], #4
    
LoopFillZerobss:
  ldr  r3, = _ebss
 8003620:	2000076c 	.word	0x2000076c

08003624 <ADC_IRQHandler>:
 * @retval None       
*/
    .section  .text.Default_Handler,"ax",%progbits
Default_Handler:
Infinite_Loop:
  b  Infinite_Loop
 8003624:	f7ff bffe 	b.w	8003624 <ADC_IRQHandler>

08003628 <__libc_init_array>:
 8003628:	b570      	push	{r4, r5, r6, lr}
 800362a:	4b0e      	ldr	r3, [pc, #56]	; (8003664 <__libc_init_array+0x3c>)
 800362c:	4d0e      	ldr	r5, [pc, #56]	; (8003668 <__libc_init_array+0x40>)
 800362e:	1aed      	subs	r5, r5, r3
 8003630:	10ad      	asrs	r5, r5, #2
 8003632:	2400      	movs	r4, #0
 8003634:	461e      	mov	r6, r3
 8003636:	42ac      	cmp	r4, r5
 8003638:	d004      	beq.n	8003644 <__libc_init_array+0x1c>
 800363a:	f856 2024 	ldr.w	r2, [r6, r4, lsl #2]
 800363e:	4790      	blx	r2
 8003640:	3401      	adds	r4, #1
 8003642:	e7f8      	b.n	8003636 <__libc_init_array+0xe>
 8003644:	f004 f9de 	bl	8007a04 <_init>
 8003648:	4d08      	ldr	r5, [pc, #32]	; (800366c <__libc_init_array+0x44>)
 800364a:	4b09      	ldr	r3, [pc, #36]	; (8003670 <__libc_init_array+0x48>)
 800364c:	1aed      	subs	r5, r5, r3
 800364e:	10ad      	asrs	r5, r5, #2
 8003650:	2400      	movs	r4, #0
 8003652:	461e      	mov	r6, r3
 8003654:	42ac      	cmp	r4, r5
 8003656:	d004      	beq.n	8003662 <__libc_init_array+0x3a>
 8003658:	f856 2024 	ldr.w	r2, [r6, r4, lsl #2]
 800365c:	4790      	blx	r2
 800365e:	3401      	adds	r4, #1
 8003660:	e7f8      	b.n	8003654 <__libc_init_array+0x2c>
 8003662:	bd70      	pop	{r4, r5, r6, pc}
 8003664:	08007dd8 	.word	0x08007dd8
 8003668:	08007dd8 	.word	0x08007dd8
 800366c:	08007ddc 	.word	0x08007ddc
 8003670:	08007dd8 	.word	0x08007dd8

08003674 <sprintf>:
 8003674:	b40e      	push	{r1, r2, r3}
 8003676:	b500      	push	{lr}
 8003678:	b09c      	sub	sp, #112	; 0x70
 800367a:	f44f 7102 	mov.w	r1, #520	; 0x208
 800367e:	f8ad 1014 	strh.w	r1, [sp, #20]
 8003682:	f06f 4100 	mvn.w	r1, #2147483648	; 0x80000000
 8003686:	9104      	str	r1, [sp, #16]
 8003688:	9107      	str	r1, [sp, #28]
 800368a:	f64f 71ff 	movw	r1, #65535	; 0xffff
 800368e:	ab1d      	add	r3, sp, #116	; 0x74
 8003690:	f8ad 1016 	strh.w	r1, [sp, #22]
 8003694:	4908      	ldr	r1, [pc, #32]	; (80036b8 <sprintf+0x44>)
 8003696:	f853 2b04 	ldr.w	r2, [r3], #4
 800369a:	9002      	str	r0, [sp, #8]
 800369c:	9006      	str	r0, [sp, #24]
 800369e:	6808      	ldr	r0, [r1, #0]
 80036a0:	9301      	str	r3, [sp, #4]
 80036a2:	a902      	add	r1, sp, #8
 80036a4:	f000 f80c 	bl	80036c0 <_svfprintf_r>
 80036a8:	9b02      	ldr	r3, [sp, #8]
 80036aa:	2200      	movs	r2, #0
 80036ac:	701a      	strb	r2, [r3, #0]
 80036ae:	b01c      	add	sp, #112	; 0x70
 80036b0:	f85d eb04 	ldr.w	lr, [sp], #4
 80036b4:	b003      	add	sp, #12
 80036b6:	4770      	bx	lr
 80036b8:	200000f4 	.word	0x200000f4
 80036bc:	00000000 	.word	0x00000000

080036c0 <_svfprintf_r>:
 80036c0:	e92d 4ff0 	stmdb	sp!, {r4, r5, r6, r7, r8, r9, sl, fp, lr}
 80036c4:	b0bf      	sub	sp, #252	; 0xfc
 80036c6:	468b      	mov	fp, r1
 80036c8:	4698      	mov	r8, r3
 80036ca:	9207      	str	r2, [sp, #28]
 80036cc:	4682      	mov	sl, r0
 80036ce:	f001 fddf 	bl	8005290 <_localeconv_r>
 80036d2:	6800      	ldr	r0, [r0, #0]
 80036d4:	9014      	str	r0, [sp, #80]	; 0x50
 80036d6:	f002 fb27 	bl	8005d28 <strlen>
 80036da:	f8bb 300c 	ldrh.w	r3, [fp, #12]
 80036de:	900c      	str	r0, [sp, #48]	; 0x30
 80036e0:	0619      	lsls	r1, r3, #24
 80036e2:	d515      	bpl.n	8003710 <_svfprintf_r+0x50>
 80036e4:	f8db 3010 	ldr.w	r3, [fp, #16]
 80036e8:	b993      	cbnz	r3, 8003710 <_svfprintf_r+0x50>
 80036ea:	4650      	mov	r0, sl
 80036ec:	2140      	movs	r1, #64	; 0x40
 80036ee:	f001 fddb 	bl	80052a8 <_malloc_r>
 80036f2:	f8cb 0000 	str.w	r0, [fp]
 80036f6:	f8cb 0010 	str.w	r0, [fp, #16]
 80036fa:	b930      	cbnz	r0, 800370a <_svfprintf_r+0x4a>
 80036fc:	230c      	movs	r3, #12
 80036fe:	f8ca 3000 	str.w	r3, [sl]
 8003702:	f04f 30ff 	mov.w	r0, #4294967295
 8003706:	f000 bf74 	b.w	80045f2 <_svfprintf_r+0xf32>
 800370a:	2340      	movs	r3, #64	; 0x40
 800370c:	f8cb 3014 	str.w	r3, [fp, #20]
 8003710:	ed9f 7b9b 	vldr	d7, [pc, #620]	; 8003980 <_svfprintf_r+0x2c0>
 8003714:	ed8d 7b08 	vstr	d7, [sp, #32]
 8003718:	2300      	movs	r3, #0
 800371a:	ae2e      	add	r6, sp, #184	; 0xb8
 800371c:	9621      	str	r6, [sp, #132]	; 0x84
 800371e:	9323      	str	r3, [sp, #140]	; 0x8c
 8003720:	9322      	str	r3, [sp, #136]	; 0x88
 8003722:	9305      	str	r3, [sp, #20]
 8003724:	9317      	str	r3, [sp, #92]	; 0x5c
 8003726:	9316      	str	r3, [sp, #88]	; 0x58
 8003728:	930b      	str	r3, [sp, #44]	; 0x2c
 800372a:	9b07      	ldr	r3, [sp, #28]
 800372c:	461c      	mov	r4, r3
 800372e:	f813 2b01 	ldrb.w	r2, [r3], #1
 8003732:	b91a      	cbnz	r2, 800373c <_svfprintf_r+0x7c>
 8003734:	9807      	ldr	r0, [sp, #28]
 8003736:	1a25      	subs	r5, r4, r0
 8003738:	d103      	bne.n	8003742 <_svfprintf_r+0x82>
 800373a:	e01b      	b.n	8003774 <_svfprintf_r+0xb4>
 800373c:	2a25      	cmp	r2, #37	; 0x25
 800373e:	d1f5      	bne.n	800372c <_svfprintf_r+0x6c>
 8003740:	e7f8      	b.n	8003734 <_svfprintf_r+0x74>
 8003742:	9b23      	ldr	r3, [sp, #140]	; 0x8c
 8003744:	9907      	ldr	r1, [sp, #28]
 8003746:	442b      	add	r3, r5
 8003748:	9323      	str	r3, [sp, #140]	; 0x8c
 800374a:	9b22      	ldr	r3, [sp, #136]	; 0x88
 800374c:	3301      	adds	r3, #1
 800374e:	2b07      	cmp	r3, #7
 8003750:	e886 0022 	stmia.w	r6, {r1, r5}
 8003754:	9322      	str	r3, [sp, #136]	; 0x88
 8003756:	dc01      	bgt.n	800375c <_svfprintf_r+0x9c>
 8003758:	3608      	adds	r6, #8
 800375a:	e008      	b.n	800376e <_svfprintf_r+0xae>
 800375c:	4650      	mov	r0, sl
 800375e:	4659      	mov	r1, fp
 8003760:	aa21      	add	r2, sp, #132	; 0x84
 8003762:	f002 fae9 	bl	8005d38 <__ssprint_r>
 8003766:	2800      	cmp	r0, #0
 8003768:	f040 873b 	bne.w	80045e2 <_svfprintf_r+0xf22>
 800376c:	ae2e      	add	r6, sp, #184	; 0xb8
 800376e:	9a0b      	ldr	r2, [sp, #44]	; 0x2c
 8003770:	442a      	add	r2, r5
 8003772:	920b      	str	r2, [sp, #44]	; 0x2c
 8003774:	7823      	ldrb	r3, [r4, #0]
 8003776:	2b00      	cmp	r3, #0
 8003778:	f000 872c 	beq.w	80045d4 <_svfprintf_r+0xf14>
 800377c:	2300      	movs	r3, #0
 800377e:	3401      	adds	r4, #1
 8003780:	f88d 3067 	strb.w	r3, [sp, #103]	; 0x67
 8003784:	f04f 39ff 	mov.w	r9, #4294967295
 8003788:	930a      	str	r3, [sp, #40]	; 0x28
 800378a:	461f      	mov	r7, r3
 800378c:	1c65      	adds	r5, r4, #1
 800378e:	7824      	ldrb	r4, [r4, #0]
 8003790:	9507      	str	r5, [sp, #28]
 8003792:	9404      	str	r4, [sp, #16]
 8003794:	9c04      	ldr	r4, [sp, #16]
 8003796:	f1a4 0220 	sub.w	r2, r4, #32
 800379a:	2a58      	cmp	r2, #88	; 0x58
 800379c:	f200 838b 	bhi.w	8003eb6 <_svfprintf_r+0x7f6>
 80037a0:	e8df f012 	tbh	[pc, r2, lsl #1]
 80037a4:	0389006d 	.word	0x0389006d
 80037a8:	00710389 	.word	0x00710389
 80037ac:	03890389 	.word	0x03890389
 80037b0:	03890389 	.word	0x03890389
 80037b4:	03890389 	.word	0x03890389
 80037b8:	0059005b 	.word	0x0059005b
 80037bc:	00770389 	.word	0x00770389
 80037c0:	0389007a 	.word	0x0389007a
 80037c4:	00a300a0 	.word	0x00a300a0
 80037c8:	00a300a3 	.word	0x00a300a3
 80037cc:	00a300a3 	.word	0x00a300a3
 80037d0:	00a300a3 	.word	0x00a300a3
 80037d4:	00a300a3 	.word	0x00a300a3
 80037d8:	03890389 	.word	0x03890389
 80037dc:	03890389 	.word	0x03890389
 80037e0:	03890389 	.word	0x03890389
 80037e4:	03890389 	.word	0x03890389
 80037e8:	03890389 	.word	0x03890389
 80037ec:	010800d4 	.word	0x010800d4
 80037f0:	01080389 	.word	0x01080389
 80037f4:	03890389 	.word	0x03890389
 80037f8:	03890389 	.word	0x03890389
 80037fc:	038900b7 	.word	0x038900b7
 8003800:	02680389 	.word	0x02680389
 8003804:	03890389 	.word	0x03890389
 8003808:	03890389 	.word	0x03890389
 800380c:	02c10389 	.word	0x02c10389
 8003810:	03890389 	.word	0x03890389
 8003814:	03890068 	.word	0x03890068
 8003818:	03890389 	.word	0x03890389
 800381c:	03890389 	.word	0x03890389
 8003820:	03890389 	.word	0x03890389
 8003824:	03890389 	.word	0x03890389
 8003828:	00ca0389 	.word	0x00ca0389
 800382c:	01080065 	.word	0x01080065
 8003830:	01080108 	.word	0x01080108
 8003834:	006500ba 	.word	0x006500ba
 8003838:	03890389 	.word	0x03890389
 800383c:	038900bd 	.word	0x038900bd
 8003840:	026a0249 	.word	0x026a0249
 8003844:	00c70292 	.word	0x00c70292
 8003848:	02a40389 	.word	0x02a40389
 800384c:	02c30389 	.word	0x02c30389
 8003850:	03890389 	.word	0x03890389
 8003854:	02de      	.short	0x02de
 8003856:	232b      	movs	r3, #43	; 0x2b
 8003858:	e007      	b.n	800386a <_svfprintf_r+0x1aa>
 800385a:	f8d8 5000 	ldr.w	r5, [r8]
 800385e:	950a      	str	r5, [sp, #40]	; 0x28
 8003860:	2d00      	cmp	r5, #0
 8003862:	f108 0204 	add.w	r2, r8, #4
 8003866:	db11      	blt.n	800388c <_svfprintf_r+0x1cc>
 8003868:	4690      	mov	r8, r2
 800386a:	9c07      	ldr	r4, [sp, #28]
 800386c:	e78e      	b.n	800378c <_svfprintf_r+0xcc>
 800386e:	f88d 3067 	strb.w	r3, [sp, #103]	; 0x67
 8003872:	e06f      	b.n	8003954 <_svfprintf_r+0x294>
 8003874:	4c44      	ldr	r4, [pc, #272]	; (8003988 <_svfprintf_r+0x2c8>)
 8003876:	f88d 3067 	strb.w	r3, [sp, #103]	; 0x67
 800387a:	9417      	str	r4, [sp, #92]	; 0x5c
 800387c:	e274      	b.n	8003d68 <_svfprintf_r+0x6a8>
 800387e:	2b00      	cmp	r3, #0
 8003880:	bf08      	it	eq
 8003882:	2320      	moveq	r3, #32
 8003884:	e7f1      	b.n	800386a <_svfprintf_r+0x1aa>
 8003886:	f047 0701 	orr.w	r7, r7, #1
 800388a:	e7ee      	b.n	800386a <_svfprintf_r+0x1aa>
 800388c:	426d      	negs	r5, r5
 800388e:	950a      	str	r5, [sp, #40]	; 0x28
 8003890:	4690      	mov	r8, r2
 8003892:	f047 0704 	orr.w	r7, r7, #4
 8003896:	e7e8      	b.n	800386a <_svfprintf_r+0x1aa>
 8003898:	9c07      	ldr	r4, [sp, #28]
 800389a:	7825      	ldrb	r5, [r4, #0]
 800389c:	9504      	str	r5, [sp, #16]
 800389e:	2d2a      	cmp	r5, #42	; 0x2a
 80038a0:	f104 0201 	add.w	r2, r4, #1
 80038a4:	d002      	beq.n	80038ac <_svfprintf_r+0x1ec>
 80038a6:	f04f 0900 	mov.w	r9, #0
 80038aa:	e00b      	b.n	80038c4 <_svfprintf_r+0x204>
 80038ac:	f8d8 9000 	ldr.w	r9, [r8]
 80038b0:	9207      	str	r2, [sp, #28]
 80038b2:	f108 0104 	add.w	r1, r8, #4
 80038b6:	f1b9 0f00 	cmp.w	r9, #0
 80038ba:	4688      	mov	r8, r1
 80038bc:	dad5      	bge.n	800386a <_svfprintf_r+0x1aa>
 80038be:	f04f 39ff 	mov.w	r9, #4294967295
 80038c2:	e7d2      	b.n	800386a <_svfprintf_r+0x1aa>
 80038c4:	9d04      	ldr	r5, [sp, #16]
 80038c6:	f1a5 0130 	sub.w	r1, r5, #48	; 0x30
 80038ca:	2909      	cmp	r1, #9
 80038cc:	d806      	bhi.n	80038dc <_svfprintf_r+0x21c>
 80038ce:	200a      	movs	r0, #10
 80038d0:	f812 4b01 	ldrb.w	r4, [r2], #1
 80038d4:	9404      	str	r4, [sp, #16]
 80038d6:	fb00 1909 	mla	r9, r0, r9, r1
 80038da:	e7f3      	b.n	80038c4 <_svfprintf_r+0x204>
 80038dc:	ea49 79e9 	orr.w	r9, r9, r9, asr #31
 80038e0:	9207      	str	r2, [sp, #28]
 80038e2:	e757      	b.n	8003794 <_svfprintf_r+0xd4>
 80038e4:	f047 0780 	orr.w	r7, r7, #128	; 0x80
 80038e8:	e7bf      	b.n	800386a <_svfprintf_r+0x1aa>
 80038ea:	2400      	movs	r4, #0
 80038ec:	940a      	str	r4, [sp, #40]	; 0x28
 80038ee:	9d04      	ldr	r5, [sp, #16]
 80038f0:	9c0a      	ldr	r4, [sp, #40]	; 0x28
 80038f2:	f1a5 0230 	sub.w	r2, r5, #48	; 0x30
 80038f6:	210a      	movs	r1, #10
 80038f8:	fb01 2404 	mla	r4, r1, r4, r2
 80038fc:	9a07      	ldr	r2, [sp, #28]
 80038fe:	940a      	str	r4, [sp, #40]	; 0x28
 8003900:	f812 5b01 	ldrb.w	r5, [r2], #1
 8003904:	9504      	str	r5, [sp, #16]
 8003906:	f1a5 0130 	sub.w	r1, r5, #48	; 0x30
 800390a:	2909      	cmp	r1, #9
 800390c:	d8e8      	bhi.n	80038e0 <_svfprintf_r+0x220>
 800390e:	9207      	str	r2, [sp, #28]
 8003910:	e7ed      	b.n	80038ee <_svfprintf_r+0x22e>
 8003912:	f047 0708 	orr.w	r7, r7, #8
 8003916:	e7a8      	b.n	800386a <_svfprintf_r+0x1aa>
 8003918:	f047 0740 	orr.w	r7, r7, #64	; 0x40
 800391c:	e7a5      	b.n	800386a <_svfprintf_r+0x1aa>
 800391e:	9c07      	ldr	r4, [sp, #28]
 8003920:	7822      	ldrb	r2, [r4, #0]
 8003922:	2a6c      	cmp	r2, #108	; 0x6c
 8003924:	d102      	bne.n	800392c <_svfprintf_r+0x26c>
 8003926:	3401      	adds	r4, #1
 8003928:	9407      	str	r4, [sp, #28]
 800392a:	e002      	b.n	8003932 <_svfprintf_r+0x272>
 800392c:	f047 0710 	orr.w	r7, r7, #16
 8003930:	e79b      	b.n	800386a <_svfprintf_r+0x1aa>
 8003932:	f047 0720 	orr.w	r7, r7, #32
 8003936:	e798      	b.n	800386a <_svfprintf_r+0x1aa>
 8003938:	f8d8 3000 	ldr.w	r3, [r8]
 800393c:	f88d 3090 	strb.w	r3, [sp, #144]	; 0x90
 8003940:	2500      	movs	r5, #0
 8003942:	f88d 5067 	strb.w	r5, [sp, #103]	; 0x67
 8003946:	f108 0804 	add.w	r8, r8, #4
 800394a:	e2bf      	b.n	8003ecc <_svfprintf_r+0x80c>
 800394c:	f88d 3067 	strb.w	r3, [sp, #103]	; 0x67
 8003950:	f047 0710 	orr.w	r7, r7, #16
 8003954:	06ba      	lsls	r2, r7, #26
 8003956:	d508      	bpl.n	800396a <_svfprintf_r+0x2aa>
 8003958:	f108 0807 	add.w	r8, r8, #7
 800395c:	f028 0307 	bic.w	r3, r8, #7
 8003960:	f103 0808 	add.w	r8, r3, #8
 8003964:	e9d3 4500 	ldrd	r4, r5, [r3]
 8003968:	e018      	b.n	800399c <_svfprintf_r+0x2dc>
 800396a:	f017 0f10 	tst.w	r7, #16
 800396e:	f108 0304 	add.w	r3, r8, #4
 8003972:	d00b      	beq.n	800398c <_svfprintf_r+0x2cc>
 8003974:	f8d8 4000 	ldr.w	r4, [r8]
 8003978:	e00e      	b.n	8003998 <_svfprintf_r+0x2d8>
 800397a:	bf00      	nop
 800397c:	f3af 8000 	nop.w
	...
 8003988:	08007a7d 	.word	0x08007a7d
 800398c:	f8d8 4000 	ldr.w	r4, [r8]
 8003990:	f017 0f40 	tst.w	r7, #64	; 0x40
 8003994:	bf18      	it	ne
 8003996:	b224      	sxthne	r4, r4
 8003998:	17e5      	asrs	r5, r4, #31
 800399a:	4698      	mov	r8, r3
 800399c:	2c00      	cmp	r4, #0
 800399e:	f175 0100 	sbcs.w	r1, r5, #0
 80039a2:	f280 820c 	bge.w	8003dbe <_svfprintf_r+0x6fe>
 80039a6:	232d      	movs	r3, #45	; 0x2d
 80039a8:	4264      	negs	r4, r4
 80039aa:	eb65 0545 	sbc.w	r5, r5, r5, lsl #1
 80039ae:	f88d 3067 	strb.w	r3, [sp, #103]	; 0x67
 80039b2:	e204      	b.n	8003dbe <_svfprintf_r+0x6fe>
 80039b4:	9c04      	ldr	r4, [sp, #16]
 80039b6:	f88d 3067 	strb.w	r3, [sp, #103]	; 0x67
 80039ba:	f108 0807 	add.w	r8, r8, #7
 80039be:	f028 0307 	bic.w	r3, r8, #7
 80039c2:	9706      	str	r7, [sp, #24]
 80039c4:	940d      	str	r4, [sp, #52]	; 0x34
 80039c6:	ed93 7b00 	vldr	d7, [r3]
 80039ca:	ed8d 7b08 	vstr	d7, [sp, #32]
 80039ce:	ed9d 0b08 	vldr	d0, [sp, #32]
 80039d2:	f103 0808 	add.w	r8, r3, #8
 80039d6:	f002 f973 	bl	8005cc0 <__fpclassifyd>
 80039da:	2801      	cmp	r0, #1
 80039dc:	d116      	bne.n	8003a0c <_svfprintf_r+0x34c>
 80039de:	e9dd 0108 	ldrd	r0, r1, [sp, #32]
 80039e2:	2200      	movs	r2, #0
 80039e4:	2300      	movs	r3, #0
 80039e6:	f7fd f839 	bl	8000a5c <__aeabi_dcmplt>
 80039ea:	b110      	cbz	r0, 80039f2 <_svfprintf_r+0x332>
 80039ec:	232d      	movs	r3, #45	; 0x2d
 80039ee:	f88d 3067 	strb.w	r3, [sp, #103]	; 0x67
 80039f2:	4ba8      	ldr	r3, [pc, #672]	; (8003c94 <_svfprintf_r+0x5d4>)
 80039f4:	4aa8      	ldr	r2, [pc, #672]	; (8003c98 <_svfprintf_r+0x5d8>)
 80039f6:	9c04      	ldr	r4, [sp, #16]
 80039f8:	2c47      	cmp	r4, #71	; 0x47
 80039fa:	bfd8      	it	le
 80039fc:	461a      	movle	r2, r3
 80039fe:	9203      	str	r2, [sp, #12]
 8003a00:	f027 0780 	bic.w	r7, r7, #128	; 0x80
 8003a04:	f04f 0903 	mov.w	r9, #3
 8003a08:	2500      	movs	r5, #0
 8003a0a:	e266      	b.n	8003eda <_svfprintf_r+0x81a>
 8003a0c:	ed9d 0b08 	vldr	d0, [sp, #32]
 8003a10:	f002 f956 	bl	8005cc0 <__fpclassifyd>
 8003a14:	b958      	cbnz	r0, 8003a2e <_svfprintf_r+0x36e>
 8003a16:	4ba1      	ldr	r3, [pc, #644]	; (8003c9c <_svfprintf_r+0x5dc>)
 8003a18:	4aa1      	ldr	r2, [pc, #644]	; (8003ca0 <_svfprintf_r+0x5e0>)
 8003a1a:	9d04      	ldr	r5, [sp, #16]
 8003a1c:	2d47      	cmp	r5, #71	; 0x47
 8003a1e:	bfd8      	it	le
 8003a20:	461a      	movle	r2, r3
 8003a22:	9203      	str	r2, [sp, #12]
 8003a24:	f027 0780 	bic.w	r7, r7, #128	; 0x80
 8003a28:	f04f 0903 	mov.w	r9, #3
 8003a2c:	e254      	b.n	8003ed8 <_svfprintf_r+0x818>
 8003a2e:	f1b9 3fff 	cmp.w	r9, #4294967295
 8003a32:	d00a      	beq.n	8003a4a <_svfprintf_r+0x38a>
 8003a34:	9c04      	ldr	r4, [sp, #16]
 8003a36:	f024 0320 	bic.w	r3, r4, #32
 8003a3a:	2b47      	cmp	r3, #71	; 0x47
 8003a3c:	d107      	bne.n	8003a4e <_svfprintf_r+0x38e>
 8003a3e:	f1b9 0f00 	cmp.w	r9, #0
 8003a42:	bf08      	it	eq
 8003a44:	f04f 0901 	moveq.w	r9, #1
 8003a48:	e001      	b.n	8003a4e <_svfprintf_r+0x38e>
 8003a4a:	f04f 0906 	mov.w	r9, #6
 8003a4e:	e9dd 2308 	ldrd	r2, r3, [sp, #32]
 8003a52:	2b00      	cmp	r3, #0
 8003a54:	f447 7780 	orr.w	r7, r7, #256	; 0x100
 8003a58:	da07      	bge.n	8003a6a <_svfprintf_r+0x3aa>
 8003a5a:	9809      	ldr	r0, [sp, #36]	; 0x24
 8003a5c:	9d08      	ldr	r5, [sp, #32]
 8003a5e:	950e      	str	r5, [sp, #56]	; 0x38
 8003a60:	f100 4000 	add.w	r0, r0, #2147483648	; 0x80000000
 8003a64:	900f      	str	r0, [sp, #60]	; 0x3c
 8003a66:	242d      	movs	r4, #45	; 0x2d
 8003a68:	e004      	b.n	8003a74 <_svfprintf_r+0x3b4>
 8003a6a:	ed9d 7b08 	vldr	d7, [sp, #32]
 8003a6e:	ed8d 7b0e 	vstr	d7, [sp, #56]	; 0x38
 8003a72:	2400      	movs	r4, #0
 8003a74:	9d04      	ldr	r5, [sp, #16]
 8003a76:	9415      	str	r4, [sp, #84]	; 0x54
 8003a78:	f025 0420 	bic.w	r4, r5, #32
 8003a7c:	2c46      	cmp	r4, #70	; 0x46
 8003a7e:	d004      	beq.n	8003a8a <_svfprintf_r+0x3ca>
 8003a80:	2c45      	cmp	r4, #69	; 0x45
 8003a82:	d105      	bne.n	8003a90 <_svfprintf_r+0x3d0>
 8003a84:	f109 0501 	add.w	r5, r9, #1
 8003a88:	e003      	b.n	8003a92 <_svfprintf_r+0x3d2>
 8003a8a:	464d      	mov	r5, r9
 8003a8c:	2103      	movs	r1, #3
 8003a8e:	e001      	b.n	8003a94 <_svfprintf_r+0x3d4>
 8003a90:	464d      	mov	r5, r9
 8003a92:	2102      	movs	r1, #2
 8003a94:	ab1c      	add	r3, sp, #112	; 0x70
 8003a96:	9300      	str	r3, [sp, #0]
 8003a98:	ab1f      	add	r3, sp, #124	; 0x7c
 8003a9a:	9301      	str	r3, [sp, #4]
 8003a9c:	4650      	mov	r0, sl
 8003a9e:	ed9d 0b0e 	vldr	d0, [sp, #56]	; 0x38
 8003aa2:	462a      	mov	r2, r5
 8003aa4:	ab1b      	add	r3, sp, #108	; 0x6c
 8003aa6:	f000 fe3b 	bl	8004720 <_dtoa_r>
 8003aaa:	2c47      	cmp	r4, #71	; 0x47
 8003aac:	9003      	str	r0, [sp, #12]
 8003aae:	d10a      	bne.n	8003ac6 <_svfprintf_r+0x406>
 8003ab0:	9806      	ldr	r0, [sp, #24]
 8003ab2:	07c3      	lsls	r3, r0, #31
 8003ab4:	d407      	bmi.n	8003ac6 <_svfprintf_r+0x406>
 8003ab6:	9b1f      	ldr	r3, [sp, #124]	; 0x7c
 8003ab8:	9d03      	ldr	r5, [sp, #12]
 8003aba:	2c47      	cmp	r4, #71	; 0x47
 8003abc:	ebc5 0303 	rsb	r3, r5, r3
 8003ac0:	9305      	str	r3, [sp, #20]
 8003ac2:	d137      	bne.n	8003b34 <_svfprintf_r+0x474>
 8003ac4:	e02d      	b.n	8003b22 <_svfprintf_r+0x462>
 8003ac6:	f8dd c00c 	ldr.w	ip, [sp, #12]
 8003aca:	2c46      	cmp	r4, #70	; 0x46
 8003acc:	44ac      	add	ip, r5
 8003ace:	d113      	bne.n	8003af8 <_svfprintf_r+0x438>
 8003ad0:	9803      	ldr	r0, [sp, #12]
 8003ad2:	7803      	ldrb	r3, [r0, #0]
 8003ad4:	2b30      	cmp	r3, #48	; 0x30
 8003ad6:	d10d      	bne.n	8003af4 <_svfprintf_r+0x434>
 8003ad8:	e9dd 010e 	ldrd	r0, r1, [sp, #56]	; 0x38
 8003adc:	2200      	movs	r2, #0
 8003ade:	2300      	movs	r3, #0
 8003ae0:	f8cd c008 	str.w	ip, [sp, #8]
 8003ae4:	f7fc ffb0 	bl	8000a48 <__aeabi_dcmpeq>
 8003ae8:	f8dd c008 	ldr.w	ip, [sp, #8]
 8003aec:	b910      	cbnz	r0, 8003af4 <_svfprintf_r+0x434>
 8003aee:	f1c5 0501 	rsb	r5, r5, #1
 8003af2:	951b      	str	r5, [sp, #108]	; 0x6c
 8003af4:	9b1b      	ldr	r3, [sp, #108]	; 0x6c
 8003af6:	449c      	add	ip, r3
 8003af8:	e9dd 010e 	ldrd	r0, r1, [sp, #56]	; 0x38
 8003afc:	2200      	movs	r2, #0
 8003afe:	2300      	movs	r3, #0
 8003b00:	f8cd c008 	str.w	ip, [sp, #8]
 8003b04:	f7fc ffa0 	bl	8000a48 <__aeabi_dcmpeq>
 8003b08:	f8dd c008 	ldr.w	ip, [sp, #8]
 8003b0c:	b108      	cbz	r0, 8003b12 <_svfprintf_r+0x452>
 8003b0e:	f8cd c07c 	str.w	ip, [sp, #124]	; 0x7c
 8003b12:	9b1f      	ldr	r3, [sp, #124]	; 0x7c
 8003b14:	4563      	cmp	r3, ip
 8003b16:	d2ce      	bcs.n	8003ab6 <_svfprintf_r+0x3f6>
 8003b18:	1c5a      	adds	r2, r3, #1
 8003b1a:	921f      	str	r2, [sp, #124]	; 0x7c
 8003b1c:	2230      	movs	r2, #48	; 0x30
 8003b1e:	701a      	strb	r2, [r3, #0]
 8003b20:	e7f7      	b.n	8003b12 <_svfprintf_r+0x452>
 8003b22:	9b1b      	ldr	r3, [sp, #108]	; 0x6c
 8003b24:	1cdc      	adds	r4, r3, #3
 8003b26:	db01      	blt.n	8003b2c <_svfprintf_r+0x46c>
 8003b28:	454b      	cmp	r3, r9
 8003b2a:	dd62      	ble.n	8003bf2 <_svfprintf_r+0x532>
 8003b2c:	9c04      	ldr	r4, [sp, #16]
 8003b2e:	3c02      	subs	r4, #2
 8003b30:	9404      	str	r4, [sp, #16]
 8003b32:	e002      	b.n	8003b3a <_svfprintf_r+0x47a>
 8003b34:	9d04      	ldr	r5, [sp, #16]
 8003b36:	2d65      	cmp	r5, #101	; 0x65
 8003b38:	dc42      	bgt.n	8003bc0 <_svfprintf_r+0x500>
 8003b3a:	9b1b      	ldr	r3, [sp, #108]	; 0x6c
 8003b3c:	9c04      	ldr	r4, [sp, #16]
 8003b3e:	f88d 4074 	strb.w	r4, [sp, #116]	; 0x74
 8003b42:	3b01      	subs	r3, #1
 8003b44:	2b00      	cmp	r3, #0
 8003b46:	931b      	str	r3, [sp, #108]	; 0x6c
 8003b48:	bfba      	itte	lt
 8003b4a:	425b      	neglt	r3, r3
 8003b4c:	222d      	movlt	r2, #45	; 0x2d
 8003b4e:	222b      	movge	r2, #43	; 0x2b
 8003b50:	2b09      	cmp	r3, #9
 8003b52:	f88d 2075 	strb.w	r2, [sp, #117]	; 0x75
 8003b56:	dd1c      	ble.n	8003b92 <_svfprintf_r+0x4d2>
 8003b58:	f10d 0282 	add.w	r2, sp, #130	; 0x82
 8003b5c:	200a      	movs	r0, #10
 8003b5e:	fb93 f1f0 	sdiv	r1, r3, r0
 8003b62:	fb00 3311 	mls	r3, r0, r1, r3
 8003b66:	3330      	adds	r3, #48	; 0x30
 8003b68:	2909      	cmp	r1, #9
 8003b6a:	4614      	mov	r4, r2
 8003b6c:	f802 3901 	strb.w	r3, [r2], #-1
 8003b70:	460b      	mov	r3, r1
 8003b72:	dcf3      	bgt.n	8003b5c <_svfprintf_r+0x49c>
 8003b74:	f101 0330 	add.w	r3, r1, #48	; 0x30
 8003b78:	f804 3d01 	strb.w	r3, [r4, #-1]!
 8003b7c:	f10d 0376 	add.w	r3, sp, #118	; 0x76
 8003b80:	f10d 0283 	add.w	r2, sp, #131	; 0x83
 8003b84:	4294      	cmp	r4, r2
 8003b86:	d20b      	bcs.n	8003ba0 <_svfprintf_r+0x4e0>
 8003b88:	f814 2b01 	ldrb.w	r2, [r4], #1
 8003b8c:	f803 2b01 	strb.w	r2, [r3], #1
 8003b90:	e7f6      	b.n	8003b80 <_svfprintf_r+0x4c0>
 8003b92:	2230      	movs	r2, #48	; 0x30
 8003b94:	4413      	add	r3, r2
 8003b96:	f88d 3077 	strb.w	r3, [sp, #119]	; 0x77
 8003b9a:	f88d 2076 	strb.w	r2, [sp, #118]	; 0x76
 8003b9e:	ab1e      	add	r3, sp, #120	; 0x78
 8003ba0:	9d05      	ldr	r5, [sp, #20]
 8003ba2:	aa1d      	add	r2, sp, #116	; 0x74
 8003ba4:	1a9a      	subs	r2, r3, r2
 8003ba6:	4691      	mov	r9, r2
 8003ba8:	2d01      	cmp	r5, #1
 8003baa:	9216      	str	r2, [sp, #88]	; 0x58
 8003bac:	44a9      	add	r9, r5
 8003bae:	dc03      	bgt.n	8003bb8 <_svfprintf_r+0x4f8>
 8003bb0:	9d06      	ldr	r5, [sp, #24]
 8003bb2:	f015 0401 	ands.w	r4, r5, #1
 8003bb6:	d037      	beq.n	8003c28 <_svfprintf_r+0x568>
 8003bb8:	f109 0901 	add.w	r9, r9, #1
 8003bbc:	2400      	movs	r4, #0
 8003bbe:	e033      	b.n	8003c28 <_svfprintf_r+0x568>
 8003bc0:	9c04      	ldr	r4, [sp, #16]
 8003bc2:	2c66      	cmp	r4, #102	; 0x66
 8003bc4:	d115      	bne.n	8003bf2 <_svfprintf_r+0x532>
 8003bc6:	9b1b      	ldr	r3, [sp, #108]	; 0x6c
 8003bc8:	2b00      	cmp	r3, #0
 8003bca:	dd09      	ble.n	8003be0 <_svfprintf_r+0x520>
 8003bcc:	f1b9 0f00 	cmp.w	r9, #0
 8003bd0:	d102      	bne.n	8003bd8 <_svfprintf_r+0x518>
 8003bd2:	9d06      	ldr	r5, [sp, #24]
 8003bd4:	07e8      	lsls	r0, r5, #31
 8003bd6:	d523      	bpl.n	8003c20 <_svfprintf_r+0x560>
 8003bd8:	f109 0901 	add.w	r9, r9, #1
 8003bdc:	444b      	add	r3, r9
 8003bde:	e01f      	b.n	8003c20 <_svfprintf_r+0x560>
 8003be0:	f1b9 0f00 	cmp.w	r9, #0
 8003be4:	d102      	bne.n	8003bec <_svfprintf_r+0x52c>
 8003be6:	9c06      	ldr	r4, [sp, #24]
 8003be8:	07e1      	lsls	r1, r4, #31
 8003bea:	d515      	bpl.n	8003c18 <_svfprintf_r+0x558>
 8003bec:	f109 0302 	add.w	r3, r9, #2
 8003bf0:	e016      	b.n	8003c20 <_svfprintf_r+0x560>
 8003bf2:	9b1b      	ldr	r3, [sp, #108]	; 0x6c
 8003bf4:	9d05      	ldr	r5, [sp, #20]
 8003bf6:	42ab      	cmp	r3, r5
 8003bf8:	db04      	blt.n	8003c04 <_svfprintf_r+0x544>
 8003bfa:	9c06      	ldr	r4, [sp, #24]
 8003bfc:	07e2      	lsls	r2, r4, #31
 8003bfe:	d50d      	bpl.n	8003c1c <_svfprintf_r+0x55c>
 8003c00:	3301      	adds	r3, #1
 8003c02:	e006      	b.n	8003c12 <_svfprintf_r+0x552>
 8003c04:	2b00      	cmp	r3, #0
 8003c06:	9c05      	ldr	r4, [sp, #20]
 8003c08:	bfd4      	ite	le
 8003c0a:	f1c3 0302 	rsble	r3, r3, #2
 8003c0e:	2301      	movgt	r3, #1
 8003c10:	4423      	add	r3, r4
 8003c12:	2567      	movs	r5, #103	; 0x67
 8003c14:	950d      	str	r5, [sp, #52]	; 0x34
 8003c16:	e003      	b.n	8003c20 <_svfprintf_r+0x560>
 8003c18:	2301      	movs	r3, #1
 8003c1a:	e001      	b.n	8003c20 <_svfprintf_r+0x560>
 8003c1c:	2467      	movs	r4, #103	; 0x67
 8003c1e:	940d      	str	r4, [sp, #52]	; 0x34
 8003c20:	9d0d      	ldr	r5, [sp, #52]	; 0x34
 8003c22:	9c1b      	ldr	r4, [sp, #108]	; 0x6c
 8003c24:	9504      	str	r5, [sp, #16]
 8003c26:	4699      	mov	r9, r3
 8003c28:	9d15      	ldr	r5, [sp, #84]	; 0x54
 8003c2a:	b115      	cbz	r5, 8003c32 <_svfprintf_r+0x572>
 8003c2c:	232d      	movs	r3, #45	; 0x2d
 8003c2e:	f88d 3067 	strb.w	r3, [sp, #103]	; 0x67
 8003c32:	2500      	movs	r5, #0
 8003c34:	e152      	b.n	8003edc <_svfprintf_r+0x81c>
 8003c36:	f017 0f20 	tst.w	r7, #32
 8003c3a:	f88d 3067 	strb.w	r3, [sp, #103]	; 0x67
 8003c3e:	f108 0104 	add.w	r1, r8, #4
 8003c42:	d008      	beq.n	8003c56 <_svfprintf_r+0x596>
 8003c44:	9c0b      	ldr	r4, [sp, #44]	; 0x2c
 8003c46:	f8d8 0000 	ldr.w	r0, [r8]
 8003c4a:	17e5      	asrs	r5, r4, #31
 8003c4c:	4622      	mov	r2, r4
 8003c4e:	462b      	mov	r3, r5
 8003c50:	e9c0 2300 	strd	r2, r3, [r0]
 8003c54:	e00c      	b.n	8003c70 <_svfprintf_r+0x5b0>
 8003c56:	06fb      	lsls	r3, r7, #27
 8003c58:	d406      	bmi.n	8003c68 <_svfprintf_r+0x5a8>
 8003c5a:	067d      	lsls	r5, r7, #25
 8003c5c:	d504      	bpl.n	8003c68 <_svfprintf_r+0x5a8>
 8003c5e:	f8d8 3000 	ldr.w	r3, [r8]
 8003c62:	9c0b      	ldr	r4, [sp, #44]	; 0x2c
 8003c64:	801c      	strh	r4, [r3, #0]
 8003c66:	e003      	b.n	8003c70 <_svfprintf_r+0x5b0>
 8003c68:	f8d8 3000 	ldr.w	r3, [r8]
 8003c6c:	9d0b      	ldr	r5, [sp, #44]	; 0x2c
 8003c6e:	601d      	str	r5, [r3, #0]
 8003c70:	4688      	mov	r8, r1
 8003c72:	e55a      	b.n	800372a <_svfprintf_r+0x6a>
 8003c74:	f047 0710 	orr.w	r7, r7, #16
 8003c78:	f017 0320 	ands.w	r3, r7, #32
 8003c7c:	d012      	beq.n	8003ca4 <_svfprintf_r+0x5e4>
 8003c7e:	f108 0807 	add.w	r8, r8, #7
 8003c82:	f028 0307 	bic.w	r3, r8, #7
 8003c86:	e9d3 4500 	ldrd	r4, r5, [r3]
 8003c8a:	f103 0808 	add.w	r8, r3, #8
 8003c8e:	2300      	movs	r3, #0
 8003c90:	e091      	b.n	8003db6 <_svfprintf_r+0x6f6>
 8003c92:	bf00      	nop
 8003c94:	08007a6d 	.word	0x08007a6d
 8003c98:	08007a71 	.word	0x08007a71
 8003c9c:	08007a75 	.word	0x08007a75
 8003ca0:	08007a79 	.word	0x08007a79
 8003ca4:	f017 0110 	ands.w	r1, r7, #16
 8003ca8:	f108 0204 	add.w	r2, r8, #4
 8003cac:	d107      	bne.n	8003cbe <_svfprintf_r+0x5fe>
 8003cae:	f017 0340 	ands.w	r3, r7, #64	; 0x40
 8003cb2:	d004      	beq.n	8003cbe <_svfprintf_r+0x5fe>
 8003cb4:	f8b8 4000 	ldrh.w	r4, [r8]
 8003cb8:	2500      	movs	r5, #0
 8003cba:	4690      	mov	r8, r2
 8003cbc:	e7e7      	b.n	8003c8e <_svfprintf_r+0x5ce>
 8003cbe:	f8d8 4000 	ldr.w	r4, [r8]
 8003cc2:	2500      	movs	r5, #0
 8003cc4:	4690      	mov	r8, r2
 8003cc6:	e076      	b.n	8003db6 <_svfprintf_r+0x6f6>
 8003cc8:	2330      	movs	r3, #48	; 0x30
 8003cca:	2278      	movs	r2, #120	; 0x78
 8003ccc:	48a8      	ldr	r0, [pc, #672]	; (8003f70 <_svfprintf_r+0x8b0>)
 8003cce:	f8d8 4000 	ldr.w	r4, [r8]
 8003cd2:	f88d 3068 	strb.w	r3, [sp, #104]	; 0x68
 8003cd6:	2500      	movs	r5, #0
 8003cd8:	f047 0702 	orr.w	r7, r7, #2
 8003cdc:	f88d 2069 	strb.w	r2, [sp, #105]	; 0x69
 8003ce0:	f108 0804 	add.w	r8, r8, #4
 8003ce4:	9017      	str	r0, [sp, #92]	; 0x5c
 8003ce6:	2302      	movs	r3, #2
 8003ce8:	9204      	str	r2, [sp, #16]
 8003cea:	e064      	b.n	8003db6 <_svfprintf_r+0x6f6>
 8003cec:	4643      	mov	r3, r8
 8003cee:	2500      	movs	r5, #0
 8003cf0:	681b      	ldr	r3, [r3, #0]
 8003cf2:	9303      	str	r3, [sp, #12]
 8003cf4:	45a9      	cmp	r9, r5
 8003cf6:	f108 0804 	add.w	r8, r8, #4
 8003cfa:	f88d 5067 	strb.w	r5, [sp, #103]	; 0x67
 8003cfe:	db0d      	blt.n	8003d1c <_svfprintf_r+0x65c>
 8003d00:	4618      	mov	r0, r3
 8003d02:	4629      	mov	r1, r5
 8003d04:	464a      	mov	r2, r9
 8003d06:	f001 fce1 	bl	80056cc <memchr>
 8003d0a:	2800      	cmp	r0, #0
 8003d0c:	f000 80e4 	beq.w	8003ed8 <_svfprintf_r+0x818>
 8003d10:	9c03      	ldr	r4, [sp, #12]
 8003d12:	1b00      	subs	r0, r0, r4
 8003d14:	4548      	cmp	r0, r9
 8003d16:	bfb8      	it	lt
 8003d18:	4681      	movlt	r9, r0
 8003d1a:	e0de      	b.n	8003eda <_svfprintf_r+0x81a>
 8003d1c:	9803      	ldr	r0, [sp, #12]
 8003d1e:	f002 f803 	bl	8005d28 <strlen>
 8003d22:	4681      	mov	r9, r0
 8003d24:	e0d9      	b.n	8003eda <_svfprintf_r+0x81a>
 8003d26:	f047 0710 	orr.w	r7, r7, #16
 8003d2a:	06bc      	lsls	r4, r7, #26
 8003d2c:	d508      	bpl.n	8003d40 <_svfprintf_r+0x680>
 8003d2e:	f108 0807 	add.w	r8, r8, #7
 8003d32:	f028 0307 	bic.w	r3, r8, #7
 8003d36:	f103 0808 	add.w	r8, r3, #8
 8003d3a:	e9d3 4500 	ldrd	r4, r5, [r3]
 8003d3e:	e00d      	b.n	8003d5c <_svfprintf_r+0x69c>
 8003d40:	f017 0f10 	tst.w	r7, #16
 8003d44:	f108 0304 	add.w	r3, r8, #4
 8003d48:	d104      	bne.n	8003d54 <_svfprintf_r+0x694>
 8003d4a:	0678      	lsls	r0, r7, #25
 8003d4c:	d502      	bpl.n	8003d54 <_svfprintf_r+0x694>
 8003d4e:	f8b8 4000 	ldrh.w	r4, [r8]
 8003d52:	e001      	b.n	8003d58 <_svfprintf_r+0x698>
 8003d54:	f8d8 4000 	ldr.w	r4, [r8]
 8003d58:	2500      	movs	r5, #0
 8003d5a:	4698      	mov	r8, r3
 8003d5c:	2301      	movs	r3, #1
 8003d5e:	e02a      	b.n	8003db6 <_svfprintf_r+0x6f6>
 8003d60:	4d83      	ldr	r5, [pc, #524]	; (8003f70 <_svfprintf_r+0x8b0>)
 8003d62:	f88d 3067 	strb.w	r3, [sp, #103]	; 0x67
 8003d66:	9517      	str	r5, [sp, #92]	; 0x5c
 8003d68:	06b9      	lsls	r1, r7, #26
 8003d6a:	d508      	bpl.n	8003d7e <_svfprintf_r+0x6be>
 8003d6c:	f108 0807 	add.w	r8, r8, #7
 8003d70:	f028 0307 	bic.w	r3, r8, #7
 8003d74:	f103 0808 	add.w	r8, r3, #8
 8003d78:	e9d3 4500 	ldrd	r4, r5, [r3]
 8003d7c:	e00d      	b.n	8003d9a <_svfprintf_r+0x6da>
 8003d7e:	f017 0f10 	tst.w	r7, #16
 8003d82:	f108 0304 	add.w	r3, r8, #4
 8003d86:	d104      	bne.n	8003d92 <_svfprintf_r+0x6d2>
 8003d88:	067a      	lsls	r2, r7, #25
 8003d8a:	d502      	bpl.n	8003d92 <_svfprintf_r+0x6d2>
 8003d8c:	f8b8 4000 	ldrh.w	r4, [r8]
 8003d90:	e001      	b.n	8003d96 <_svfprintf_r+0x6d6>
 8003d92:	f8d8 4000 	ldr.w	r4, [r8]
 8003d96:	2500      	movs	r5, #0
 8003d98:	4698      	mov	r8, r3
 8003d9a:	07fb      	lsls	r3, r7, #31
 8003d9c:	d50a      	bpl.n	8003db4 <_svfprintf_r+0x6f4>
 8003d9e:	ea54 0005 	orrs.w	r0, r4, r5
 8003da2:	d007      	beq.n	8003db4 <_svfprintf_r+0x6f4>
 8003da4:	2330      	movs	r3, #48	; 0x30
 8003da6:	9904      	ldr	r1, [sp, #16]
 8003da8:	f88d 3068 	strb.w	r3, [sp, #104]	; 0x68
 8003dac:	f88d 1069 	strb.w	r1, [sp, #105]	; 0x69
 8003db0:	f047 0702 	orr.w	r7, r7, #2
 8003db4:	2302      	movs	r3, #2
 8003db6:	2200      	movs	r2, #0
 8003db8:	f88d 2067 	strb.w	r2, [sp, #103]	; 0x67
 8003dbc:	e000      	b.n	8003dc0 <_svfprintf_r+0x700>
 8003dbe:	2301      	movs	r3, #1
 8003dc0:	f1b9 0f00 	cmp.w	r9, #0
 8003dc4:	bfa8      	it	ge
 8003dc6:	f027 0780 	bicge.w	r7, r7, #128	; 0x80
 8003dca:	ea54 0205 	orrs.w	r2, r4, r5
 8003dce:	d102      	bne.n	8003dd6 <_svfprintf_r+0x716>
 8003dd0:	f1b9 0f00 	cmp.w	r9, #0
 8003dd4:	d05a      	beq.n	8003e8c <_svfprintf_r+0x7cc>
 8003dd6:	2b01      	cmp	r3, #1
 8003dd8:	d01f      	beq.n	8003e1a <_svfprintf_r+0x75a>
 8003dda:	2b02      	cmp	r3, #2
 8003ddc:	f10d 03b7 	add.w	r3, sp, #183	; 0xb7
 8003de0:	d041      	beq.n	8003e66 <_svfprintf_r+0x7a6>
 8003de2:	08e1      	lsrs	r1, r4, #3
 8003de4:	ea41 7045 	orr.w	r0, r1, r5, lsl #29
 8003de8:	08e9      	lsrs	r1, r5, #3
 8003dea:	9010      	str	r0, [sp, #64]	; 0x40
 8003dec:	9111      	str	r1, [sp, #68]	; 0x44
 8003dee:	f004 0207 	and.w	r2, r4, #7
 8003df2:	e9dd 4510 	ldrd	r4, r5, [sp, #64]	; 0x40
 8003df6:	3230      	adds	r2, #48	; 0x30
 8003df8:	ea54 0005 	orrs.w	r0, r4, r5
 8003dfc:	9303      	str	r3, [sp, #12]
 8003dfe:	701a      	strb	r2, [r3, #0]
 8003e00:	f103 33ff 	add.w	r3, r3, #4294967295
 8003e04:	d1ed      	bne.n	8003de2 <_svfprintf_r+0x722>
 8003e06:	07f8      	lsls	r0, r7, #31
 8003e08:	9903      	ldr	r1, [sp, #12]
 8003e0a:	d54c      	bpl.n	8003ea6 <_svfprintf_r+0x7e6>
 8003e0c:	2a30      	cmp	r2, #48	; 0x30
 8003e0e:	d04a      	beq.n	8003ea6 <_svfprintf_r+0x7e6>
 8003e10:	9303      	str	r3, [sp, #12]
 8003e12:	2330      	movs	r3, #48	; 0x30
 8003e14:	f801 3c01 	strb.w	r3, [r1, #-1]
 8003e18:	e045      	b.n	8003ea6 <_svfprintf_r+0x7e6>
 8003e1a:	2d00      	cmp	r5, #0
 8003e1c:	bf08      	it	eq
 8003e1e:	2c0a      	cmpeq	r4, #10
 8003e20:	d205      	bcs.n	8003e2e <_svfprintf_r+0x76e>
 8003e22:	3430      	adds	r4, #48	; 0x30
 8003e24:	f88d 40b7 	strb.w	r4, [sp, #183]	; 0xb7
 8003e28:	f10d 04b7 	add.w	r4, sp, #183	; 0xb7
 8003e2c:	e03a      	b.n	8003ea4 <_svfprintf_r+0x7e4>
 8003e2e:	f10d 00b7 	add.w	r0, sp, #183	; 0xb7
 8003e32:	9006      	str	r0, [sp, #24]
 8003e34:	9906      	ldr	r1, [sp, #24]
 8003e36:	9103      	str	r1, [sp, #12]
 8003e38:	4620      	mov	r0, r4
 8003e3a:	4629      	mov	r1, r5
 8003e3c:	220a      	movs	r2, #10
 8003e3e:	2300      	movs	r3, #0
 8003e40:	f7fc fe5c 	bl	8000afc <__aeabi_uldivmod>
 8003e44:	9b06      	ldr	r3, [sp, #24]
 8003e46:	3230      	adds	r2, #48	; 0x30
 8003e48:	f803 2901 	strb.w	r2, [r3], #-1
 8003e4c:	4620      	mov	r0, r4
 8003e4e:	9306      	str	r3, [sp, #24]
 8003e50:	4629      	mov	r1, r5
 8003e52:	220a      	movs	r2, #10
 8003e54:	2300      	movs	r3, #0
 8003e56:	f7fc fe51 	bl	8000afc <__aeabi_uldivmod>
 8003e5a:	4604      	mov	r4, r0
 8003e5c:	460d      	mov	r5, r1
 8003e5e:	ea54 0005 	orrs.w	r0, r4, r5
 8003e62:	d1e7      	bne.n	8003e34 <_svfprintf_r+0x774>
 8003e64:	e01f      	b.n	8003ea6 <_svfprintf_r+0x7e6>
 8003e66:	f004 020f 	and.w	r2, r4, #15
 8003e6a:	9917      	ldr	r1, [sp, #92]	; 0x5c
 8003e6c:	9303      	str	r3, [sp, #12]
 8003e6e:	5c8a      	ldrb	r2, [r1, r2]
 8003e70:	f803 2901 	strb.w	r2, [r3], #-1
 8003e74:	0922      	lsrs	r2, r4, #4
 8003e76:	ea42 7005 	orr.w	r0, r2, r5, lsl #28
 8003e7a:	0929      	lsrs	r1, r5, #4
 8003e7c:	9012      	str	r0, [sp, #72]	; 0x48
 8003e7e:	9113      	str	r1, [sp, #76]	; 0x4c
 8003e80:	e9dd 4512 	ldrd	r4, r5, [sp, #72]	; 0x48
 8003e84:	ea54 0205 	orrs.w	r2, r4, r5
 8003e88:	d1ed      	bne.n	8003e66 <_svfprintf_r+0x7a6>
 8003e8a:	e00c      	b.n	8003ea6 <_svfprintf_r+0x7e6>
 8003e8c:	b933      	cbnz	r3, 8003e9c <_svfprintf_r+0x7dc>
 8003e8e:	07fb      	lsls	r3, r7, #31
 8003e90:	d507      	bpl.n	8003ea2 <_svfprintf_r+0x7e2>
 8003e92:	ac3e      	add	r4, sp, #248	; 0xf8
 8003e94:	2330      	movs	r3, #48	; 0x30
 8003e96:	f804 3d41 	strb.w	r3, [r4, #-65]!
 8003e9a:	e003      	b.n	8003ea4 <_svfprintf_r+0x7e4>
 8003e9c:	ad2e      	add	r5, sp, #184	; 0xb8
 8003e9e:	9503      	str	r5, [sp, #12]
 8003ea0:	e001      	b.n	8003ea6 <_svfprintf_r+0x7e6>
 8003ea2:	ac2e      	add	r4, sp, #184	; 0xb8
 8003ea4:	9403      	str	r4, [sp, #12]
 8003ea6:	9c03      	ldr	r4, [sp, #12]
 8003ea8:	464d      	mov	r5, r9
 8003eaa:	f10d 09b8 	add.w	r9, sp, #184	; 0xb8
 8003eae:	ebc4 0909 	rsb	r9, r4, r9
 8003eb2:	2400      	movs	r4, #0
 8003eb4:	e012      	b.n	8003edc <_svfprintf_r+0x81c>
 8003eb6:	9d04      	ldr	r5, [sp, #16]
 8003eb8:	f88d 3067 	strb.w	r3, [sp, #103]	; 0x67
 8003ebc:	2d00      	cmp	r5, #0
 8003ebe:	f000 8389 	beq.w	80045d4 <_svfprintf_r+0xf14>
 8003ec2:	f88d 5090 	strb.w	r5, [sp, #144]	; 0x90
 8003ec6:	2500      	movs	r5, #0
 8003ec8:	f88d 5067 	strb.w	r5, [sp, #103]	; 0x67
 8003ecc:	a824      	add	r0, sp, #144	; 0x90
 8003ece:	f04f 0901 	mov.w	r9, #1
 8003ed2:	462c      	mov	r4, r5
 8003ed4:	9003      	str	r0, [sp, #12]
 8003ed6:	e001      	b.n	8003edc <_svfprintf_r+0x81c>
 8003ed8:	4605      	mov	r5, r0
 8003eda:	462c      	mov	r4, r5
 8003edc:	f89d 3067 	ldrb.w	r3, [sp, #103]	; 0x67
 8003ee0:	45a9      	cmp	r9, r5
 8003ee2:	bfac      	ite	ge
 8003ee4:	4649      	movge	r1, r9
 8003ee6:	4629      	movlt	r1, r5
 8003ee8:	9106      	str	r1, [sp, #24]
 8003eea:	b10b      	cbz	r3, 8003ef0 <_svfprintf_r+0x830>
 8003eec:	3101      	adds	r1, #1
 8003eee:	9106      	str	r1, [sp, #24]
 8003ef0:	f017 0302 	ands.w	r3, r7, #2
 8003ef4:	930d      	str	r3, [sp, #52]	; 0x34
 8003ef6:	d002      	beq.n	8003efe <_svfprintf_r+0x83e>
 8003ef8:	9806      	ldr	r0, [sp, #24]
 8003efa:	3002      	adds	r0, #2
 8003efc:	9006      	str	r0, [sp, #24]
 8003efe:	f017 0384 	ands.w	r3, r7, #132	; 0x84
 8003f02:	9315      	str	r3, [sp, #84]	; 0x54
 8003f04:	d141      	bne.n	8003f8a <_svfprintf_r+0x8ca>
 8003f06:	980a      	ldr	r0, [sp, #40]	; 0x28
 8003f08:	9906      	ldr	r1, [sp, #24]
 8003f0a:	ebc1 0c00 	rsb	ip, r1, r0
 8003f0e:	f1bc 0f00 	cmp.w	ip, #0
 8003f12:	dd3a      	ble.n	8003f8a <_svfprintf_r+0x8ca>
 8003f14:	4b17      	ldr	r3, [pc, #92]	; (8003f74 <_svfprintf_r+0x8b4>)
 8003f16:	6033      	str	r3, [r6, #0]
 8003f18:	f1bc 0f10 	cmp.w	ip, #16
 8003f1c:	dd1b      	ble.n	8003f56 <_svfprintf_r+0x896>
 8003f1e:	2310      	movs	r3, #16
 8003f20:	6073      	str	r3, [r6, #4]
 8003f22:	9b23      	ldr	r3, [sp, #140]	; 0x8c
 8003f24:	3310      	adds	r3, #16
 8003f26:	9323      	str	r3, [sp, #140]	; 0x8c
 8003f28:	9b22      	ldr	r3, [sp, #136]	; 0x88
 8003f2a:	3301      	adds	r3, #1
 8003f2c:	2b07      	cmp	r3, #7
 8003f2e:	9322      	str	r3, [sp, #136]	; 0x88
 8003f30:	dc01      	bgt.n	8003f36 <_svfprintf_r+0x876>
 8003f32:	3608      	adds	r6, #8
 8003f34:	e00c      	b.n	8003f50 <_svfprintf_r+0x890>
 8003f36:	4650      	mov	r0, sl
 8003f38:	4659      	mov	r1, fp
 8003f3a:	aa21      	add	r2, sp, #132	; 0x84
 8003f3c:	f8cd c008 	str.w	ip, [sp, #8]
 8003f40:	f001 fefa 	bl	8005d38 <__ssprint_r>
 8003f44:	f8dd c008 	ldr.w	ip, [sp, #8]
 8003f48:	2800      	cmp	r0, #0
 8003f4a:	f040 834a 	bne.w	80045e2 <_svfprintf_r+0xf22>
 8003f4e:	ae2e      	add	r6, sp, #184	; 0xb8
 8003f50:	f1ac 0c10 	sub.w	ip, ip, #16
 8003f54:	e7de      	b.n	8003f14 <_svfprintf_r+0x854>
 8003f56:	9b23      	ldr	r3, [sp, #140]	; 0x8c
 8003f58:	f8c6 c004 	str.w	ip, [r6, #4]
 8003f5c:	4463      	add	r3, ip
 8003f5e:	9323      	str	r3, [sp, #140]	; 0x8c
 8003f60:	9b22      	ldr	r3, [sp, #136]	; 0x88
 8003f62:	3301      	adds	r3, #1
 8003f64:	2b07      	cmp	r3, #7
 8003f66:	9322      	str	r3, [sp, #136]	; 0x88
 8003f68:	dc06      	bgt.n	8003f78 <_svfprintf_r+0x8b8>
 8003f6a:	3608      	adds	r6, #8
 8003f6c:	e00d      	b.n	8003f8a <_svfprintf_r+0x8ca>
 8003f6e:	bf00      	nop
 8003f70:	08007a8e 	.word	0x08007a8e
 8003f74:	08007aa1 	.word	0x08007aa1
 8003f78:	4650      	mov	r0, sl
 8003f7a:	4659      	mov	r1, fp
 8003f7c:	aa21      	add	r2, sp, #132	; 0x84
 8003f7e:	f001 fedb 	bl	8005d38 <__ssprint_r>
 8003f82:	2800      	cmp	r0, #0
 8003f84:	f040 832d 	bne.w	80045e2 <_svfprintf_r+0xf22>
 8003f88:	ae2e      	add	r6, sp, #184	; 0xb8
 8003f8a:	f89d 3067 	ldrb.w	r3, [sp, #103]	; 0x67
 8003f8e:	b1bb      	cbz	r3, 8003fc0 <_svfprintf_r+0x900>
 8003f90:	f10d 0367 	add.w	r3, sp, #103	; 0x67
 8003f94:	6033      	str	r3, [r6, #0]
 8003f96:	2301      	movs	r3, #1
 8003f98:	6073      	str	r3, [r6, #4]
 8003f9a:	9b23      	ldr	r3, [sp, #140]	; 0x8c
 8003f9c:	3301      	adds	r3, #1
 8003f9e:	9323      	str	r3, [sp, #140]	; 0x8c
 8003fa0:	9b22      	ldr	r3, [sp, #136]	; 0x88
 8003fa2:	3301      	adds	r3, #1
 8003fa4:	2b07      	cmp	r3, #7
 8003fa6:	9322      	str	r3, [sp, #136]	; 0x88
 8003fa8:	dc01      	bgt.n	8003fae <_svfprintf_r+0x8ee>
 8003faa:	3608      	adds	r6, #8
 8003fac:	e008      	b.n	8003fc0 <_svfprintf_r+0x900>
 8003fae:	4650      	mov	r0, sl
 8003fb0:	4659      	mov	r1, fp
 8003fb2:	aa21      	add	r2, sp, #132	; 0x84
 8003fb4:	f001 fec0 	bl	8005d38 <__ssprint_r>
 8003fb8:	2800      	cmp	r0, #0
 8003fba:	f040 8312 	bne.w	80045e2 <_svfprintf_r+0xf22>
 8003fbe:	ae2e      	add	r6, sp, #184	; 0xb8
 8003fc0:	9b0d      	ldr	r3, [sp, #52]	; 0x34
 8003fc2:	b1b3      	cbz	r3, 8003ff2 <_svfprintf_r+0x932>
 8003fc4:	ab1a      	add	r3, sp, #104	; 0x68
 8003fc6:	6033      	str	r3, [r6, #0]
 8003fc8:	2302      	movs	r3, #2
 8003fca:	6073      	str	r3, [r6, #4]
 8003fcc:	9b23      	ldr	r3, [sp, #140]	; 0x8c
 8003fce:	3302      	adds	r3, #2
 8003fd0:	9323      	str	r3, [sp, #140]	; 0x8c
 8003fd2:	9b22      	ldr	r3, [sp, #136]	; 0x88
 8003fd4:	3301      	adds	r3, #1
 8003fd6:	2b07      	cmp	r3, #7
 8003fd8:	9322      	str	r3, [sp, #136]	; 0x88
 8003fda:	dc01      	bgt.n	8003fe0 <_svfprintf_r+0x920>
 8003fdc:	3608      	adds	r6, #8
 8003fde:	e008      	b.n	8003ff2 <_svfprintf_r+0x932>
 8003fe0:	4650      	mov	r0, sl
 8003fe2:	4659      	mov	r1, fp
 8003fe4:	aa21      	add	r2, sp, #132	; 0x84
 8003fe6:	f001 fea7 	bl	8005d38 <__ssprint_r>
 8003fea:	2800      	cmp	r0, #0
 8003fec:	f040 82f9 	bne.w	80045e2 <_svfprintf_r+0xf22>
 8003ff0:	ae2e      	add	r6, sp, #184	; 0xb8
 8003ff2:	9b15      	ldr	r3, [sp, #84]	; 0x54
 8003ff4:	2b80      	cmp	r3, #128	; 0x80
 8003ff6:	d13c      	bne.n	8004072 <_svfprintf_r+0x9b2>
 8003ff8:	980a      	ldr	r0, [sp, #40]	; 0x28
 8003ffa:	9906      	ldr	r1, [sp, #24]
 8003ffc:	ebc1 0c00 	rsb	ip, r1, r0
 8004000:	f1bc 0f00 	cmp.w	ip, #0
 8004004:	dd35      	ble.n	8004072 <_svfprintf_r+0x9b2>
 8004006:	4b9c      	ldr	r3, [pc, #624]	; (8004278 <_svfprintf_r+0xbb8>)
 8004008:	6033      	str	r3, [r6, #0]
 800400a:	f1bc 0f10 	cmp.w	ip, #16
 800400e:	dd1b      	ble.n	8004048 <_svfprintf_r+0x988>
 8004010:	2310      	movs	r3, #16
 8004012:	6073      	str	r3, [r6, #4]
 8004014:	9b23      	ldr	r3, [sp, #140]	; 0x8c
 8004016:	3310      	adds	r3, #16
 8004018:	9323      	str	r3, [sp, #140]	; 0x8c
 800401a:	9b22      	ldr	r3, [sp, #136]	; 0x88
 800401c:	3301      	adds	r3, #1
 800401e:	2b07      	cmp	r3, #7
 8004020:	9322      	str	r3, [sp, #136]	; 0x88
 8004022:	dc01      	bgt.n	8004028 <_svfprintf_r+0x968>
 8004024:	3608      	adds	r6, #8
 8004026:	e00c      	b.n	8004042 <_svfprintf_r+0x982>
 8004028:	4650      	mov	r0, sl
 800402a:	4659      	mov	r1, fp
 800402c:	aa21      	add	r2, sp, #132	; 0x84
 800402e:	f8cd c008 	str.w	ip, [sp, #8]
 8004032:	f001 fe81 	bl	8005d38 <__ssprint_r>
 8004036:	f8dd c008 	ldr.w	ip, [sp, #8]
 800403a:	2800      	cmp	r0, #0
 800403c:	f040 82d1 	bne.w	80045e2 <_svfprintf_r+0xf22>
 8004040:	ae2e      	add	r6, sp, #184	; 0xb8
 8004042:	f1ac 0c10 	sub.w	ip, ip, #16
 8004046:	e7de      	b.n	8004006 <_svfprintf_r+0x946>
 8004048:	9b23      	ldr	r3, [sp, #140]	; 0x8c
 800404a:	f8c6 c004 	str.w	ip, [r6, #4]
 800404e:	4463      	add	r3, ip
 8004050:	9323      	str	r3, [sp, #140]	; 0x8c
 8004052:	9b22      	ldr	r3, [sp, #136]	; 0x88
 8004054:	3301      	adds	r3, #1
 8004056:	2b07      	cmp	r3, #7
 8004058:	9322      	str	r3, [sp, #136]	; 0x88
 800405a:	dc01      	bgt.n	8004060 <_svfprintf_r+0x9a0>
 800405c:	3608      	adds	r6, #8
 800405e:	e008      	b.n	8004072 <_svfprintf_r+0x9b2>
 8004060:	4650      	mov	r0, sl
 8004062:	4659      	mov	r1, fp
 8004064:	aa21      	add	r2, sp, #132	; 0x84
 8004066:	f001 fe67 	bl	8005d38 <__ssprint_r>
 800406a:	2800      	cmp	r0, #0
 800406c:	f040 82b9 	bne.w	80045e2 <_svfprintf_r+0xf22>
 8004070:	ae2e      	add	r6, sp, #184	; 0xb8
 8004072:	ebc9 0505 	rsb	r5, r9, r5
 8004076:	2d00      	cmp	r5, #0
 8004078:	dd2e      	ble.n	80040d8 <_svfprintf_r+0xa18>
 800407a:	4b7f      	ldr	r3, [pc, #508]	; (8004278 <_svfprintf_r+0xbb8>)
 800407c:	6033      	str	r3, [r6, #0]
 800407e:	2d10      	cmp	r5, #16
 8004080:	dd16      	ble.n	80040b0 <_svfprintf_r+0x9f0>
 8004082:	2310      	movs	r3, #16
 8004084:	6073      	str	r3, [r6, #4]
 8004086:	9b23      	ldr	r3, [sp, #140]	; 0x8c
 8004088:	3310      	adds	r3, #16
 800408a:	9323      	str	r3, [sp, #140]	; 0x8c
 800408c:	9b22      	ldr	r3, [sp, #136]	; 0x88
 800408e:	3301      	adds	r3, #1
 8004090:	2b07      	cmp	r3, #7
 8004092:	9322      	str	r3, [sp, #136]	; 0x88
 8004094:	dc01      	bgt.n	800409a <_svfprintf_r+0x9da>
 8004096:	3608      	adds	r6, #8
 8004098:	e008      	b.n	80040ac <_svfprintf_r+0x9ec>
 800409a:	4650      	mov	r0, sl
 800409c:	4659      	mov	r1, fp
 800409e:	aa21      	add	r2, sp, #132	; 0x84
 80040a0:	f001 fe4a 	bl	8005d38 <__ssprint_r>
 80040a4:	2800      	cmp	r0, #0
 80040a6:	f040 829c 	bne.w	80045e2 <_svfprintf_r+0xf22>
 80040aa:	ae2e      	add	r6, sp, #184	; 0xb8
 80040ac:	3d10      	subs	r5, #16
 80040ae:	e7e4      	b.n	800407a <_svfprintf_r+0x9ba>
 80040b0:	9b23      	ldr	r3, [sp, #140]	; 0x8c
 80040b2:	6075      	str	r5, [r6, #4]
 80040b4:	441d      	add	r5, r3
 80040b6:	9b22      	ldr	r3, [sp, #136]	; 0x88
 80040b8:	9523      	str	r5, [sp, #140]	; 0x8c
 80040ba:	3301      	adds	r3, #1
 80040bc:	2b07      	cmp	r3, #7
 80040be:	9322      	str	r3, [sp, #136]	; 0x88
 80040c0:	dc01      	bgt.n	80040c6 <_svfprintf_r+0xa06>
 80040c2:	3608      	adds	r6, #8
 80040c4:	e008      	b.n	80040d8 <_svfprintf_r+0xa18>
 80040c6:	4650      	mov	r0, sl
 80040c8:	4659      	mov	r1, fp
 80040ca:	aa21      	add	r2, sp, #132	; 0x84
 80040cc:	f001 fe34 	bl	8005d38 <__ssprint_r>
 80040d0:	2800      	cmp	r0, #0
 80040d2:	f040 8286 	bne.w	80045e2 <_svfprintf_r+0xf22>
 80040d6:	ae2e      	add	r6, sp, #184	; 0xb8
 80040d8:	05fd      	lsls	r5, r7, #23
 80040da:	d405      	bmi.n	80040e8 <_svfprintf_r+0xa28>
 80040dc:	9c03      	ldr	r4, [sp, #12]
 80040de:	9b23      	ldr	r3, [sp, #140]	; 0x8c
 80040e0:	e886 0210 	stmia.w	r6, {r4, r9}
 80040e4:	444b      	add	r3, r9
 80040e6:	e0da      	b.n	800429e <_svfprintf_r+0xbde>
 80040e8:	9d04      	ldr	r5, [sp, #16]
 80040ea:	2d65      	cmp	r5, #101	; 0x65
 80040ec:	f340 81a7 	ble.w	800443e <_svfprintf_r+0xd7e>
 80040f0:	e9dd 0108 	ldrd	r0, r1, [sp, #32]
 80040f4:	2200      	movs	r2, #0
 80040f6:	2300      	movs	r3, #0
 80040f8:	f7fc fca6 	bl	8000a48 <__aeabi_dcmpeq>
 80040fc:	2800      	cmp	r0, #0
 80040fe:	d059      	beq.n	80041b4 <_svfprintf_r+0xaf4>
 8004100:	4b5e      	ldr	r3, [pc, #376]	; (800427c <_svfprintf_r+0xbbc>)
 8004102:	6033      	str	r3, [r6, #0]
 8004104:	2301      	movs	r3, #1
 8004106:	6073      	str	r3, [r6, #4]
 8004108:	9b23      	ldr	r3, [sp, #140]	; 0x8c
 800410a:	3301      	adds	r3, #1
 800410c:	9323      	str	r3, [sp, #140]	; 0x8c
 800410e:	9b22      	ldr	r3, [sp, #136]	; 0x88
 8004110:	3301      	adds	r3, #1
 8004112:	2b07      	cmp	r3, #7
 8004114:	9322      	str	r3, [sp, #136]	; 0x88
 8004116:	dc01      	bgt.n	800411c <_svfprintf_r+0xa5c>
 8004118:	3608      	adds	r6, #8
 800411a:	e008      	b.n	800412e <_svfprintf_r+0xa6e>
 800411c:	4650      	mov	r0, sl
 800411e:	4659      	mov	r1, fp
 8004120:	aa21      	add	r2, sp, #132	; 0x84
 8004122:	f001 fe09 	bl	8005d38 <__ssprint_r>
 8004126:	2800      	cmp	r0, #0
 8004128:	f040 825b 	bne.w	80045e2 <_svfprintf_r+0xf22>
 800412c:	ae2e      	add	r6, sp, #184	; 0xb8
 800412e:	9b1b      	ldr	r3, [sp, #108]	; 0x6c
 8004130:	9c05      	ldr	r4, [sp, #20]
 8004132:	42a3      	cmp	r3, r4
 8004134:	db02      	blt.n	800413c <_svfprintf_r+0xa7c>
 8004136:	07fc      	lsls	r4, r7, #31
 8004138:	f140 8202 	bpl.w	8004540 <_svfprintf_r+0xe80>
 800413c:	9c0c      	ldr	r4, [sp, #48]	; 0x30
 800413e:	9b23      	ldr	r3, [sp, #140]	; 0x8c
 8004140:	9d14      	ldr	r5, [sp, #80]	; 0x50
 8004142:	6035      	str	r5, [r6, #0]
 8004144:	4423      	add	r3, r4
 8004146:	9323      	str	r3, [sp, #140]	; 0x8c
 8004148:	9b22      	ldr	r3, [sp, #136]	; 0x88
 800414a:	6074      	str	r4, [r6, #4]
 800414c:	3301      	adds	r3, #1
 800414e:	2b07      	cmp	r3, #7
 8004150:	9322      	str	r3, [sp, #136]	; 0x88
 8004152:	dc01      	bgt.n	8004158 <_svfprintf_r+0xa98>
 8004154:	3608      	adds	r6, #8
 8004156:	e008      	b.n	800416a <_svfprintf_r+0xaaa>
 8004158:	4650      	mov	r0, sl
 800415a:	4659      	mov	r1, fp
 800415c:	aa21      	add	r2, sp, #132	; 0x84
 800415e:	f001 fdeb 	bl	8005d38 <__ssprint_r>
 8004162:	2800      	cmp	r0, #0
 8004164:	f040 823d 	bne.w	80045e2 <_svfprintf_r+0xf22>
 8004168:	ae2e      	add	r6, sp, #184	; 0xb8
 800416a:	9d05      	ldr	r5, [sp, #20]
 800416c:	1e6c      	subs	r4, r5, #1
 800416e:	2c00      	cmp	r4, #0
 8004170:	f340 81e6 	ble.w	8004540 <_svfprintf_r+0xe80>
 8004174:	4b40      	ldr	r3, [pc, #256]	; (8004278 <_svfprintf_r+0xbb8>)
 8004176:	6033      	str	r3, [r6, #0]
 8004178:	2c10      	cmp	r4, #16
 800417a:	dd16      	ble.n	80041aa <_svfprintf_r+0xaea>
 800417c:	2310      	movs	r3, #16
 800417e:	6073      	str	r3, [r6, #4]
 8004180:	9b23      	ldr	r3, [sp, #140]	; 0x8c
 8004182:	3310      	adds	r3, #16
 8004184:	9323      	str	r3, [sp, #140]	; 0x8c
 8004186:	9b22      	ldr	r3, [sp, #136]	; 0x88
 8004188:	3301      	adds	r3, #1
 800418a:	2b07      	cmp	r3, #7
 800418c:	9322      	str	r3, [sp, #136]	; 0x88
 800418e:	dc01      	bgt.n	8004194 <_svfprintf_r+0xad4>
 8004190:	3608      	adds	r6, #8
 8004192:	e008      	b.n	80041a6 <_svfprintf_r+0xae6>
 8004194:	4650      	mov	r0, sl
 8004196:	4659      	mov	r1, fp
 8004198:	aa21      	add	r2, sp, #132	; 0x84
 800419a:	f001 fdcd 	bl	8005d38 <__ssprint_r>
 800419e:	2800      	cmp	r0, #0
 80041a0:	f040 821f 	bne.w	80045e2 <_svfprintf_r+0xf22>
 80041a4:	ae2e      	add	r6, sp, #184	; 0xb8
 80041a6:	3c10      	subs	r4, #16
 80041a8:	e7e4      	b.n	8004174 <_svfprintf_r+0xab4>
 80041aa:	9b23      	ldr	r3, [sp, #140]	; 0x8c
 80041ac:	6074      	str	r4, [r6, #4]
 80041ae:	441c      	add	r4, r3
 80041b0:	9423      	str	r4, [sp, #140]	; 0x8c
 80041b2:	e134      	b.n	800441e <_svfprintf_r+0xd5e>
 80041b4:	9b1b      	ldr	r3, [sp, #108]	; 0x6c
 80041b6:	2b00      	cmp	r3, #0
 80041b8:	dc73      	bgt.n	80042a2 <_svfprintf_r+0xbe2>
 80041ba:	4b30      	ldr	r3, [pc, #192]	; (800427c <_svfprintf_r+0xbbc>)
 80041bc:	6033      	str	r3, [r6, #0]
 80041be:	2301      	movs	r3, #1
 80041c0:	6073      	str	r3, [r6, #4]
 80041c2:	9b23      	ldr	r3, [sp, #140]	; 0x8c
 80041c4:	3301      	adds	r3, #1
 80041c6:	9323      	str	r3, [sp, #140]	; 0x8c
 80041c8:	9b22      	ldr	r3, [sp, #136]	; 0x88
 80041ca:	3301      	adds	r3, #1
 80041cc:	2b07      	cmp	r3, #7
 80041ce:	9322      	str	r3, [sp, #136]	; 0x88
 80041d0:	dc01      	bgt.n	80041d6 <_svfprintf_r+0xb16>
 80041d2:	3608      	adds	r6, #8
 80041d4:	e008      	b.n	80041e8 <_svfprintf_r+0xb28>
 80041d6:	4650      	mov	r0, sl
 80041d8:	4659      	mov	r1, fp
 80041da:	aa21      	add	r2, sp, #132	; 0x84
 80041dc:	f001 fdac 	bl	8005d38 <__ssprint_r>
 80041e0:	2800      	cmp	r0, #0
 80041e2:	f040 81fe 	bne.w	80045e2 <_svfprintf_r+0xf22>
 80041e6:	ae2e      	add	r6, sp, #184	; 0xb8
 80041e8:	9b1b      	ldr	r3, [sp, #108]	; 0x6c
 80041ea:	b923      	cbnz	r3, 80041f6 <_svfprintf_r+0xb36>
 80041ec:	9c05      	ldr	r4, [sp, #20]
 80041ee:	b914      	cbnz	r4, 80041f6 <_svfprintf_r+0xb36>
 80041f0:	07f8      	lsls	r0, r7, #31
 80041f2:	f140 81a5 	bpl.w	8004540 <_svfprintf_r+0xe80>
 80041f6:	9c0c      	ldr	r4, [sp, #48]	; 0x30
 80041f8:	9b23      	ldr	r3, [sp, #140]	; 0x8c
 80041fa:	9d14      	ldr	r5, [sp, #80]	; 0x50
 80041fc:	6035      	str	r5, [r6, #0]
 80041fe:	4423      	add	r3, r4
 8004200:	9323      	str	r3, [sp, #140]	; 0x8c
 8004202:	9b22      	ldr	r3, [sp, #136]	; 0x88
 8004204:	6074      	str	r4, [r6, #4]
 8004206:	3301      	adds	r3, #1
 8004208:	2b07      	cmp	r3, #7
 800420a:	9322      	str	r3, [sp, #136]	; 0x88
 800420c:	dc01      	bgt.n	8004212 <_svfprintf_r+0xb52>
 800420e:	3608      	adds	r6, #8
 8004210:	e008      	b.n	8004224 <_svfprintf_r+0xb64>
 8004212:	4650      	mov	r0, sl
 8004214:	4659      	mov	r1, fp
 8004216:	aa21      	add	r2, sp, #132	; 0x84
 8004218:	f001 fd8e 	bl	8005d38 <__ssprint_r>
 800421c:	2800      	cmp	r0, #0
 800421e:	f040 81e0 	bne.w	80045e2 <_svfprintf_r+0xf22>
 8004222:	ae2e      	add	r6, sp, #184	; 0xb8
 8004224:	9c1b      	ldr	r4, [sp, #108]	; 0x6c
 8004226:	4264      	negs	r4, r4
 8004228:	2c00      	cmp	r4, #0
 800422a:	dd32      	ble.n	8004292 <_svfprintf_r+0xbd2>
 800422c:	4b12      	ldr	r3, [pc, #72]	; (8004278 <_svfprintf_r+0xbb8>)
 800422e:	6033      	str	r3, [r6, #0]
 8004230:	2c10      	cmp	r4, #16
 8004232:	dd16      	ble.n	8004262 <_svfprintf_r+0xba2>
 8004234:	2310      	movs	r3, #16
 8004236:	6073      	str	r3, [r6, #4]
 8004238:	9b23      	ldr	r3, [sp, #140]	; 0x8c
 800423a:	3310      	adds	r3, #16
 800423c:	9323      	str	r3, [sp, #140]	; 0x8c
 800423e:	9b22      	ldr	r3, [sp, #136]	; 0x88
 8004240:	3301      	adds	r3, #1
 8004242:	2b07      	cmp	r3, #7
 8004244:	9322      	str	r3, [sp, #136]	; 0x88
 8004246:	dc01      	bgt.n	800424c <_svfprintf_r+0xb8c>
 8004248:	3608      	adds	r6, #8
 800424a:	e008      	b.n	800425e <_svfprintf_r+0xb9e>
 800424c:	4650      	mov	r0, sl
 800424e:	4659      	mov	r1, fp
 8004250:	aa21      	add	r2, sp, #132	; 0x84
 8004252:	f001 fd71 	bl	8005d38 <__ssprint_r>
 8004256:	2800      	cmp	r0, #0
 8004258:	f040 81c3 	bne.w	80045e2 <_svfprintf_r+0xf22>
 800425c:	ae2e      	add	r6, sp, #184	; 0xb8
 800425e:	3c10      	subs	r4, #16
 8004260:	e7e4      	b.n	800422c <_svfprintf_r+0xb6c>
 8004262:	9b23      	ldr	r3, [sp, #140]	; 0x8c
 8004264:	6074      	str	r4, [r6, #4]
 8004266:	441c      	add	r4, r3
 8004268:	9b22      	ldr	r3, [sp, #136]	; 0x88
 800426a:	9423      	str	r4, [sp, #140]	; 0x8c
 800426c:	3301      	adds	r3, #1
 800426e:	2b07      	cmp	r3, #7
 8004270:	9322      	str	r3, [sp, #136]	; 0x88
 8004272:	dc05      	bgt.n	8004280 <_svfprintf_r+0xbc0>
 8004274:	3608      	adds	r6, #8
 8004276:	e00c      	b.n	8004292 <_svfprintf_r+0xbd2>
 8004278:	08007a5d 	.word	0x08007a5d
 800427c:	08007a9f 	.word	0x08007a9f
 8004280:	4650      	mov	r0, sl
 8004282:	4659      	mov	r1, fp
 8004284:	aa21      	add	r2, sp, #132	; 0x84
 8004286:	f001 fd57 	bl	8005d38 <__ssprint_r>
 800428a:	2800      	cmp	r0, #0
 800428c:	f040 81a9 	bne.w	80045e2 <_svfprintf_r+0xf22>
 8004290:	ae2e      	add	r6, sp, #184	; 0xb8
 8004292:	9d03      	ldr	r5, [sp, #12]
 8004294:	9c05      	ldr	r4, [sp, #20]
 8004296:	6035      	str	r5, [r6, #0]
 8004298:	6074      	str	r4, [r6, #4]
 800429a:	9b23      	ldr	r3, [sp, #140]	; 0x8c
 800429c:	4423      	add	r3, r4
 800429e:	9323      	str	r3, [sp, #140]	; 0x8c
 80042a0:	e0bd      	b.n	800441e <_svfprintf_r+0xd5e>
 80042a2:	9805      	ldr	r0, [sp, #20]
 80042a4:	9d03      	ldr	r5, [sp, #12]
 80042a6:	4681      	mov	r9, r0
 80042a8:	45a1      	cmp	r9, r4
 80042aa:	bfa8      	it	ge
 80042ac:	46a1      	movge	r9, r4
 80042ae:	f1b9 0f00 	cmp.w	r9, #0
 80042b2:	4405      	add	r5, r0
 80042b4:	dd15      	ble.n	80042e2 <_svfprintf_r+0xc22>
 80042b6:	9b23      	ldr	r3, [sp, #140]	; 0x8c
 80042b8:	9903      	ldr	r1, [sp, #12]
 80042ba:	444b      	add	r3, r9
 80042bc:	9323      	str	r3, [sp, #140]	; 0x8c
 80042be:	9b22      	ldr	r3, [sp, #136]	; 0x88
 80042c0:	3301      	adds	r3, #1
 80042c2:	2b07      	cmp	r3, #7
 80042c4:	e886 0202 	stmia.w	r6, {r1, r9}
 80042c8:	9322      	str	r3, [sp, #136]	; 0x88
 80042ca:	dc01      	bgt.n	80042d0 <_svfprintf_r+0xc10>
 80042cc:	3608      	adds	r6, #8
 80042ce:	e008      	b.n	80042e2 <_svfprintf_r+0xc22>
 80042d0:	4650      	mov	r0, sl
 80042d2:	4659      	mov	r1, fp
 80042d4:	aa21      	add	r2, sp, #132	; 0x84
 80042d6:	f001 fd2f 	bl	8005d38 <__ssprint_r>
 80042da:	2800      	cmp	r0, #0
 80042dc:	f040 8181 	bne.w	80045e2 <_svfprintf_r+0xf22>
 80042e0:	ae2e      	add	r6, sp, #184	; 0xb8
 80042e2:	ea29 79e9 	bic.w	r9, r9, r9, asr #31
 80042e6:	ebc9 0904 	rsb	r9, r9, r4
 80042ea:	f1b9 0f00 	cmp.w	r9, #0
 80042ee:	dd31      	ble.n	8004354 <_svfprintf_r+0xc94>
 80042f0:	4b9a      	ldr	r3, [pc, #616]	; (800455c <_svfprintf_r+0xe9c>)
 80042f2:	6033      	str	r3, [r6, #0]
 80042f4:	f1b9 0f10 	cmp.w	r9, #16
 80042f8:	dd17      	ble.n	800432a <_svfprintf_r+0xc6a>
 80042fa:	2310      	movs	r3, #16
 80042fc:	6073      	str	r3, [r6, #4]
 80042fe:	9b23      	ldr	r3, [sp, #140]	; 0x8c
 8004300:	3310      	adds	r3, #16
 8004302:	9323      	str	r3, [sp, #140]	; 0x8c
 8004304:	9b22      	ldr	r3, [sp, #136]	; 0x88
 8004306:	3301      	adds	r3, #1
 8004308:	2b07      	cmp	r3, #7
 800430a:	9322      	str	r3, [sp, #136]	; 0x88
 800430c:	dc01      	bgt.n	8004312 <_svfprintf_r+0xc52>
 800430e:	3608      	adds	r6, #8
 8004310:	e008      	b.n	8004324 <_svfprintf_r+0xc64>
 8004312:	4650      	mov	r0, sl
 8004314:	4659      	mov	r1, fp
 8004316:	aa21      	add	r2, sp, #132	; 0x84
 8004318:	f001 fd0e 	bl	8005d38 <__ssprint_r>
 800431c:	2800      	cmp	r0, #0
 800431e:	f040 8160 	bne.w	80045e2 <_svfprintf_r+0xf22>
 8004322:	ae2e      	add	r6, sp, #184	; 0xb8
 8004324:	f1a9 0910 	sub.w	r9, r9, #16
 8004328:	e7e2      	b.n	80042f0 <_svfprintf_r+0xc30>
 800432a:	9b23      	ldr	r3, [sp, #140]	; 0x8c
 800432c:	f8c6 9004 	str.w	r9, [r6, #4]
 8004330:	444b      	add	r3, r9
 8004332:	9323      	str	r3, [sp, #140]	; 0x8c
 8004334:	9b22      	ldr	r3, [sp, #136]	; 0x88
 8004336:	3301      	adds	r3, #1
 8004338:	2b07      	cmp	r3, #7
 800433a:	9322      	str	r3, [sp, #136]	; 0x88
 800433c:	dc01      	bgt.n	8004342 <_svfprintf_r+0xc82>
 800433e:	3608      	adds	r6, #8
 8004340:	e008      	b.n	8004354 <_svfprintf_r+0xc94>
 8004342:	4650      	mov	r0, sl
 8004344:	4659      	mov	r1, fp
 8004346:	aa21      	add	r2, sp, #132	; 0x84
 8004348:	f001 fcf6 	bl	8005d38 <__ssprint_r>
 800434c:	2800      	cmp	r0, #0
 800434e:	f040 8148 	bne.w	80045e2 <_svfprintf_r+0xf22>
 8004352:	ae2e      	add	r6, sp, #184	; 0xb8
 8004354:	9b1b      	ldr	r3, [sp, #108]	; 0x6c
 8004356:	9805      	ldr	r0, [sp, #20]
 8004358:	9a03      	ldr	r2, [sp, #12]
 800435a:	4283      	cmp	r3, r0
 800435c:	4414      	add	r4, r2
 800435e:	db01      	blt.n	8004364 <_svfprintf_r+0xca4>
 8004360:	07f9      	lsls	r1, r7, #31
 8004362:	d516      	bpl.n	8004392 <_svfprintf_r+0xcd2>
 8004364:	9a0c      	ldr	r2, [sp, #48]	; 0x30
 8004366:	9b23      	ldr	r3, [sp, #140]	; 0x8c
 8004368:	9914      	ldr	r1, [sp, #80]	; 0x50
 800436a:	6031      	str	r1, [r6, #0]
 800436c:	4413      	add	r3, r2
 800436e:	9323      	str	r3, [sp, #140]	; 0x8c
 8004370:	9b22      	ldr	r3, [sp, #136]	; 0x88
 8004372:	6072      	str	r2, [r6, #4]
 8004374:	3301      	adds	r3, #1
 8004376:	2b07      	cmp	r3, #7
 8004378:	9322      	str	r3, [sp, #136]	; 0x88
 800437a:	dc01      	bgt.n	8004380 <_svfprintf_r+0xcc0>
 800437c:	3608      	adds	r6, #8
 800437e:	e008      	b.n	8004392 <_svfprintf_r+0xcd2>
 8004380:	4650      	mov	r0, sl
 8004382:	4659      	mov	r1, fp
 8004384:	aa21      	add	r2, sp, #132	; 0x84
 8004386:	f001 fcd7 	bl	8005d38 <__ssprint_r>
 800438a:	2800      	cmp	r0, #0
 800438c:	f040 8129 	bne.w	80045e2 <_svfprintf_r+0xf22>
 8004390:	ae2e      	add	r6, sp, #184	; 0xb8
 8004392:	9b1b      	ldr	r3, [sp, #108]	; 0x6c
 8004394:	9805      	ldr	r0, [sp, #20]
 8004396:	1b2d      	subs	r5, r5, r4
 8004398:	1ac3      	subs	r3, r0, r3
 800439a:	429d      	cmp	r5, r3
 800439c:	bfa8      	it	ge
 800439e:	461d      	movge	r5, r3
 80043a0:	2d00      	cmp	r5, #0
 80043a2:	dd14      	ble.n	80043ce <_svfprintf_r+0xd0e>
 80043a4:	9b23      	ldr	r3, [sp, #140]	; 0x8c
 80043a6:	442b      	add	r3, r5
 80043a8:	9323      	str	r3, [sp, #140]	; 0x8c
 80043aa:	9b22      	ldr	r3, [sp, #136]	; 0x88
 80043ac:	3301      	adds	r3, #1
 80043ae:	2b07      	cmp	r3, #7
 80043b0:	e886 0030 	stmia.w	r6, {r4, r5}
 80043b4:	9322      	str	r3, [sp, #136]	; 0x88
 80043b6:	dc01      	bgt.n	80043bc <_svfprintf_r+0xcfc>
 80043b8:	3608      	adds	r6, #8
 80043ba:	e008      	b.n	80043ce <_svfprintf_r+0xd0e>
 80043bc:	4650      	mov	r0, sl
 80043be:	4659      	mov	r1, fp
 80043c0:	aa21      	add	r2, sp, #132	; 0x84
 80043c2:	f001 fcb9 	bl	8005d38 <__ssprint_r>
 80043c6:	2800      	cmp	r0, #0
 80043c8:	f040 810b 	bne.w	80045e2 <_svfprintf_r+0xf22>
 80043cc:	ae2e      	add	r6, sp, #184	; 0xb8
 80043ce:	9b1b      	ldr	r3, [sp, #108]	; 0x6c
 80043d0:	9c05      	ldr	r4, [sp, #20]
 80043d2:	ea25 75e5 	bic.w	r5, r5, r5, asr #31
 80043d6:	1ae3      	subs	r3, r4, r3
 80043d8:	1b5d      	subs	r5, r3, r5
 80043da:	2d00      	cmp	r5, #0
 80043dc:	f340 80b0 	ble.w	8004540 <_svfprintf_r+0xe80>
 80043e0:	4b5e      	ldr	r3, [pc, #376]	; (800455c <_svfprintf_r+0xe9c>)
 80043e2:	6033      	str	r3, [r6, #0]
 80043e4:	2d10      	cmp	r5, #16
 80043e6:	dd16      	ble.n	8004416 <_svfprintf_r+0xd56>
 80043e8:	2310      	movs	r3, #16
 80043ea:	6073      	str	r3, [r6, #4]
 80043ec:	9b23      	ldr	r3, [sp, #140]	; 0x8c
 80043ee:	3310      	adds	r3, #16
 80043f0:	9323      	str	r3, [sp, #140]	; 0x8c
 80043f2:	9b22      	ldr	r3, [sp, #136]	; 0x88
 80043f4:	3301      	adds	r3, #1
 80043f6:	2b07      	cmp	r3, #7
 80043f8:	9322      	str	r3, [sp, #136]	; 0x88
 80043fa:	dc01      	bgt.n	8004400 <_svfprintf_r+0xd40>
 80043fc:	3608      	adds	r6, #8
 80043fe:	e008      	b.n	8004412 <_svfprintf_r+0xd52>
 8004400:	4650      	mov	r0, sl
 8004402:	4659      	mov	r1, fp
 8004404:	aa21      	add	r2, sp, #132	; 0x84
 8004406:	f001 fc97 	bl	8005d38 <__ssprint_r>
 800440a:	2800      	cmp	r0, #0
 800440c:	f040 80e9 	bne.w	80045e2 <_svfprintf_r+0xf22>
 8004410:	ae2e      	add	r6, sp, #184	; 0xb8
 8004412:	3d10      	subs	r5, #16
 8004414:	e7e4      	b.n	80043e0 <_svfprintf_r+0xd20>
 8004416:	9b23      	ldr	r3, [sp, #140]	; 0x8c
 8004418:	6075      	str	r5, [r6, #4]
 800441a:	441d      	add	r5, r3
 800441c:	9523      	str	r5, [sp, #140]	; 0x8c
 800441e:	9b22      	ldr	r3, [sp, #136]	; 0x88
 8004420:	3301      	adds	r3, #1
 8004422:	2b07      	cmp	r3, #7
 8004424:	9322      	str	r3, [sp, #136]	; 0x88
 8004426:	f340 808a 	ble.w	800453e <_svfprintf_r+0xe7e>
 800442a:	4650      	mov	r0, sl
 800442c:	4659      	mov	r1, fp
 800442e:	aa21      	add	r2, sp, #132	; 0x84
 8004430:	f001 fc82 	bl	8005d38 <__ssprint_r>
 8004434:	2800      	cmp	r0, #0
 8004436:	f040 80d4 	bne.w	80045e2 <_svfprintf_r+0xf22>
 800443a:	ae2e      	add	r6, sp, #184	; 0xb8
 800443c:	e080      	b.n	8004540 <_svfprintf_r+0xe80>
 800443e:	9d05      	ldr	r5, [sp, #20]
 8004440:	2d01      	cmp	r5, #1
 8004442:	dc01      	bgt.n	8004448 <_svfprintf_r+0xd88>
 8004444:	07fa      	lsls	r2, r7, #31
 8004446:	d56d      	bpl.n	8004524 <_svfprintf_r+0xe64>
 8004448:	2301      	movs	r3, #1
 800444a:	6073      	str	r3, [r6, #4]
 800444c:	9b23      	ldr	r3, [sp, #140]	; 0x8c
 800444e:	9c03      	ldr	r4, [sp, #12]
 8004450:	6034      	str	r4, [r6, #0]
 8004452:	3301      	adds	r3, #1
 8004454:	9323      	str	r3, [sp, #140]	; 0x8c
 8004456:	9b22      	ldr	r3, [sp, #136]	; 0x88
 8004458:	3301      	adds	r3, #1
 800445a:	2b07      	cmp	r3, #7
 800445c:	9322      	str	r3, [sp, #136]	; 0x88
 800445e:	dc01      	bgt.n	8004464 <_svfprintf_r+0xda4>
 8004460:	3608      	adds	r6, #8
 8004462:	e008      	b.n	8004476 <_svfprintf_r+0xdb6>
 8004464:	4650      	mov	r0, sl
 8004466:	4659      	mov	r1, fp
 8004468:	aa21      	add	r2, sp, #132	; 0x84
 800446a:	f001 fc65 	bl	8005d38 <__ssprint_r>
 800446e:	2800      	cmp	r0, #0
 8004470:	f040 80b7 	bne.w	80045e2 <_svfprintf_r+0xf22>
 8004474:	ae2e      	add	r6, sp, #184	; 0xb8
 8004476:	9c0c      	ldr	r4, [sp, #48]	; 0x30
 8004478:	9b23      	ldr	r3, [sp, #140]	; 0x8c
 800447a:	9d14      	ldr	r5, [sp, #80]	; 0x50
 800447c:	6035      	str	r5, [r6, #0]
 800447e:	4423      	add	r3, r4
 8004480:	9323      	str	r3, [sp, #140]	; 0x8c
 8004482:	9b22      	ldr	r3, [sp, #136]	; 0x88
 8004484:	6074      	str	r4, [r6, #4]
 8004486:	3301      	adds	r3, #1
 8004488:	2b07      	cmp	r3, #7
 800448a:	9322      	str	r3, [sp, #136]	; 0x88
 800448c:	dc01      	bgt.n	8004492 <_svfprintf_r+0xdd2>
 800448e:	3608      	adds	r6, #8
 8004490:	e008      	b.n	80044a4 <_svfprintf_r+0xde4>
 8004492:	4650      	mov	r0, sl
 8004494:	4659      	mov	r1, fp
 8004496:	aa21      	add	r2, sp, #132	; 0x84
 8004498:	f001 fc4e 	bl	8005d38 <__ssprint_r>
 800449c:	2800      	cmp	r0, #0
 800449e:	f040 80a0 	bne.w	80045e2 <_svfprintf_r+0xf22>
 80044a2:	ae2e      	add	r6, sp, #184	; 0xb8
 80044a4:	e9dd 0108 	ldrd	r0, r1, [sp, #32]
 80044a8:	2200      	movs	r2, #0
 80044aa:	2300      	movs	r3, #0
 80044ac:	f7fc facc 	bl	8000a48 <__aeabi_dcmpeq>
 80044b0:	9d05      	ldr	r5, [sp, #20]
 80044b2:	1e6c      	subs	r4, r5, #1
 80044b4:	b940      	cbnz	r0, 80044c8 <_svfprintf_r+0xe08>
 80044b6:	9d03      	ldr	r5, [sp, #12]
 80044b8:	1c6b      	adds	r3, r5, #1
 80044ba:	e886 0018 	stmia.w	r6, {r3, r4}
 80044be:	9b23      	ldr	r3, [sp, #140]	; 0x8c
 80044c0:	9c05      	ldr	r4, [sp, #20]
 80044c2:	3b01      	subs	r3, #1
 80044c4:	4423      	add	r3, r4
 80044c6:	e033      	b.n	8004530 <_svfprintf_r+0xe70>
 80044c8:	2c00      	cmp	r4, #0
 80044ca:	dd34      	ble.n	8004536 <_svfprintf_r+0xe76>
 80044cc:	4b23      	ldr	r3, [pc, #140]	; (800455c <_svfprintf_r+0xe9c>)
 80044ce:	6033      	str	r3, [r6, #0]
 80044d0:	2c10      	cmp	r4, #16
 80044d2:	dd15      	ble.n	8004500 <_svfprintf_r+0xe40>
 80044d4:	2310      	movs	r3, #16
 80044d6:	6073      	str	r3, [r6, #4]
 80044d8:	9b23      	ldr	r3, [sp, #140]	; 0x8c
 80044da:	3310      	adds	r3, #16
 80044dc:	9323      	str	r3, [sp, #140]	; 0x8c
 80044de:	9b22      	ldr	r3, [sp, #136]	; 0x88
 80044e0:	3301      	adds	r3, #1
 80044e2:	2b07      	cmp	r3, #7
 80044e4:	9322      	str	r3, [sp, #136]	; 0x88
 80044e6:	dc01      	bgt.n	80044ec <_svfprintf_r+0xe2c>
 80044e8:	3608      	adds	r6, #8
 80044ea:	e007      	b.n	80044fc <_svfprintf_r+0xe3c>
 80044ec:	4650      	mov	r0, sl
 80044ee:	4659      	mov	r1, fp
 80044f0:	aa21      	add	r2, sp, #132	; 0x84
 80044f2:	f001 fc21 	bl	8005d38 <__ssprint_r>
 80044f6:	2800      	cmp	r0, #0
 80044f8:	d173      	bne.n	80045e2 <_svfprintf_r+0xf22>
 80044fa:	ae2e      	add	r6, sp, #184	; 0xb8
 80044fc:	3c10      	subs	r4, #16
 80044fe:	e7e5      	b.n	80044cc <_svfprintf_r+0xe0c>
 8004500:	9b23      	ldr	r3, [sp, #140]	; 0x8c
 8004502:	6074      	str	r4, [r6, #4]
 8004504:	441c      	add	r4, r3
 8004506:	9423      	str	r4, [sp, #140]	; 0x8c
 8004508:	9b22      	ldr	r3, [sp, #136]	; 0x88
 800450a:	3301      	adds	r3, #1
 800450c:	2b07      	cmp	r3, #7
 800450e:	9322      	str	r3, [sp, #136]	; 0x88
 8004510:	dd10      	ble.n	8004534 <_svfprintf_r+0xe74>
 8004512:	4650      	mov	r0, sl
 8004514:	4659      	mov	r1, fp
 8004516:	aa21      	add	r2, sp, #132	; 0x84
 8004518:	f001 fc0e 	bl	8005d38 <__ssprint_r>
 800451c:	2800      	cmp	r0, #0
 800451e:	d160      	bne.n	80045e2 <_svfprintf_r+0xf22>
 8004520:	ae2e      	add	r6, sp, #184	; 0xb8
 8004522:	e008      	b.n	8004536 <_svfprintf_r+0xe76>
 8004524:	2301      	movs	r3, #1
 8004526:	6073      	str	r3, [r6, #4]
 8004528:	9b23      	ldr	r3, [sp, #140]	; 0x8c
 800452a:	9d03      	ldr	r5, [sp, #12]
 800452c:	6035      	str	r5, [r6, #0]
 800452e:	3301      	adds	r3, #1
 8004530:	9323      	str	r3, [sp, #140]	; 0x8c
 8004532:	e7e9      	b.n	8004508 <_svfprintf_r+0xe48>
 8004534:	3608      	adds	r6, #8
 8004536:	ab1d      	add	r3, sp, #116	; 0x74
 8004538:	6033      	str	r3, [r6, #0]
 800453a:	9c16      	ldr	r4, [sp, #88]	; 0x58
 800453c:	e6ac      	b.n	8004298 <_svfprintf_r+0xbd8>
 800453e:	3608      	adds	r6, #8
 8004540:	077b      	lsls	r3, r7, #29
 8004542:	d40d      	bmi.n	8004560 <_svfprintf_r+0xea0>
 8004544:	9d0b      	ldr	r5, [sp, #44]	; 0x2c
 8004546:	9806      	ldr	r0, [sp, #24]
 8004548:	9c0a      	ldr	r4, [sp, #40]	; 0x28
 800454a:	9b23      	ldr	r3, [sp, #140]	; 0x8c
 800454c:	42a0      	cmp	r0, r4
 800454e:	bfac      	ite	ge
 8004550:	182d      	addge	r5, r5, r0
 8004552:	192d      	addlt	r5, r5, r4
 8004554:	950b      	str	r5, [sp, #44]	; 0x2c
 8004556:	2b00      	cmp	r3, #0
 8004558:	d037      	beq.n	80045ca <_svfprintf_r+0xf0a>
 800455a:	e030      	b.n	80045be <_svfprintf_r+0xefe>
 800455c:	08007a5d 	.word	0x08007a5d
 8004560:	9d0a      	ldr	r5, [sp, #40]	; 0x28
 8004562:	9806      	ldr	r0, [sp, #24]
 8004564:	1a2c      	subs	r4, r5, r0
 8004566:	2c00      	cmp	r4, #0
 8004568:	ddec      	ble.n	8004544 <_svfprintf_r+0xe84>
 800456a:	4b23      	ldr	r3, [pc, #140]	; (80045f8 <_svfprintf_r+0xf38>)
 800456c:	6033      	str	r3, [r6, #0]
 800456e:	2c10      	cmp	r4, #16
 8004570:	dd14      	ble.n	800459c <_svfprintf_r+0xedc>
 8004572:	2310      	movs	r3, #16
 8004574:	6073      	str	r3, [r6, #4]
 8004576:	9b23      	ldr	r3, [sp, #140]	; 0x8c
 8004578:	3310      	adds	r3, #16
 800457a:	9323      	str	r3, [sp, #140]	; 0x8c
 800457c:	9b22      	ldr	r3, [sp, #136]	; 0x88
 800457e:	3301      	adds	r3, #1
 8004580:	2b07      	cmp	r3, #7
 8004582:	9322      	str	r3, [sp, #136]	; 0x88
 8004584:	dc01      	bgt.n	800458a <_svfprintf_r+0xeca>
 8004586:	3608      	adds	r6, #8
 8004588:	e006      	b.n	8004598 <_svfprintf_r+0xed8>
 800458a:	4650      	mov	r0, sl
 800458c:	4659      	mov	r1, fp
 800458e:	aa21      	add	r2, sp, #132	; 0x84
 8004590:	f001 fbd2 	bl	8005d38 <__ssprint_r>
 8004594:	bb28      	cbnz	r0, 80045e2 <_svfprintf_r+0xf22>
 8004596:	ae2e      	add	r6, sp, #184	; 0xb8
 8004598:	3c10      	subs	r4, #16
 800459a:	e7e6      	b.n	800456a <_svfprintf_r+0xeaa>
 800459c:	9b23      	ldr	r3, [sp, #140]	; 0x8c
 800459e:	6074      	str	r4, [r6, #4]
 80045a0:	441c      	add	r4, r3
 80045a2:	9b22      	ldr	r3, [sp, #136]	; 0x88
 80045a4:	9423      	str	r4, [sp, #140]	; 0x8c
 80045a6:	3301      	adds	r3, #1
 80045a8:	2b07      	cmp	r3, #7
 80045aa:	9322      	str	r3, [sp, #136]	; 0x88
 80045ac:	ddca      	ble.n	8004544 <_svfprintf_r+0xe84>
 80045ae:	4650      	mov	r0, sl
 80045b0:	4659      	mov	r1, fp
 80045b2:	aa21      	add	r2, sp, #132	; 0x84
 80045b4:	f001 fbc0 	bl	8005d38 <__ssprint_r>
 80045b8:	2800      	cmp	r0, #0
 80045ba:	d0c3      	beq.n	8004544 <_svfprintf_r+0xe84>
 80045bc:	e011      	b.n	80045e2 <_svfprintf_r+0xf22>
 80045be:	4650      	mov	r0, sl
 80045c0:	4659      	mov	r1, fp
 80045c2:	aa21      	add	r2, sp, #132	; 0x84
 80045c4:	f001 fbb8 	bl	8005d38 <__ssprint_r>
 80045c8:	b958      	cbnz	r0, 80045e2 <_svfprintf_r+0xf22>
 80045ca:	2300      	movs	r3, #0
 80045cc:	9322      	str	r3, [sp, #136]	; 0x88
 80045ce:	ae2e      	add	r6, sp, #184	; 0xb8
 80045d0:	f7ff b8ab 	b.w	800372a <_svfprintf_r+0x6a>
 80045d4:	9b23      	ldr	r3, [sp, #140]	; 0x8c
 80045d6:	b123      	cbz	r3, 80045e2 <_svfprintf_r+0xf22>
 80045d8:	4650      	mov	r0, sl
 80045da:	4659      	mov	r1, fp
 80045dc:	aa21      	add	r2, sp, #132	; 0x84
 80045de:	f001 fbab 	bl	8005d38 <__ssprint_r>
 80045e2:	f8bb 300c 	ldrh.w	r3, [fp, #12]
 80045e6:	980b      	ldr	r0, [sp, #44]	; 0x2c
 80045e8:	f013 0f40 	tst.w	r3, #64	; 0x40
 80045ec:	bf18      	it	ne
 80045ee:	f04f 30ff 	movne.w	r0, #4294967295
 80045f2:	b03f      	add	sp, #252	; 0xfc
 80045f4:	e8bd 8ff0 	ldmia.w	sp!, {r4, r5, r6, r7, r8, r9, sl, fp, pc}
 80045f8:	08007aa1 	.word	0x08007aa1
 80045fc:	f3af 8000 	nop.w

08004600 <quorem>:
 8004600:	e92d 4ff7 	stmdb	sp!, {r0, r1, r2, r4, r5, r6, r7, r8, r9, sl, fp, lr}
 8004604:	6903      	ldr	r3, [r0, #16]
 8004606:	690c      	ldr	r4, [r1, #16]
 8004608:	42a3      	cmp	r3, r4
 800460a:	4680      	mov	r8, r0
 800460c:	f2c0 8081 	blt.w	8004712 <quorem+0x112>
 8004610:	3c01      	subs	r4, #1
 8004612:	f101 0714 	add.w	r7, r1, #20
 8004616:	00a2      	lsls	r2, r4, #2
 8004618:	f100 0514 	add.w	r5, r0, #20
 800461c:	4691      	mov	r9, r2
 800461e:	9200      	str	r2, [sp, #0]
 8004620:	f857 6024 	ldr.w	r6, [r7, r4, lsl #2]
 8004624:	442a      	add	r2, r5
 8004626:	9201      	str	r2, [sp, #4]
 8004628:	f855 2024 	ldr.w	r2, [r5, r4, lsl #2]
 800462c:	3601      	adds	r6, #1
 800462e:	fbb2 f6f6 	udiv	r6, r2, r6
 8004632:	44b9      	add	r9, r7
 8004634:	2e00      	cmp	r6, #0
 8004636:	d03a      	beq.n	80046ae <quorem+0xae>
 8004638:	f04f 0e00 	mov.w	lr, #0
 800463c:	463a      	mov	r2, r7
 800463e:	4628      	mov	r0, r5
 8004640:	46f3      	mov	fp, lr
 8004642:	f852 cb04 	ldr.w	ip, [r2], #4
 8004646:	6803      	ldr	r3, [r0, #0]
 8004648:	fa1f fa8c 	uxth.w	sl, ip
 800464c:	ea4f 4c1c 	mov.w	ip, ip, lsr #16
 8004650:	fb0a ea06 	mla	sl, sl, r6, lr
 8004654:	fb0c fc06 	mul.w	ip, ip, r6
 8004658:	eb0c 4c1a 	add.w	ip, ip, sl, lsr #16
 800465c:	fa1f fa8a 	uxth.w	sl, sl
 8004660:	ebca 0a0b 	rsb	sl, sl, fp
 8004664:	ea4f 4e1c 	mov.w	lr, ip, lsr #16
 8004668:	fa1f fc8c 	uxth.w	ip, ip
 800466c:	fa1a fa83 	uxtah	sl, sl, r3
 8004670:	ebcc 4c13 	rsb	ip, ip, r3, lsr #16
 8004674:	eb0c 4c2a 	add.w	ip, ip, sl, asr #16
 8004678:	fa1f fa8a 	uxth.w	sl, sl
 800467c:	ea4a 4a0c 	orr.w	sl, sl, ip, lsl #16
 8004680:	454a      	cmp	r2, r9
 8004682:	ea4f 4b2c 	mov.w	fp, ip, asr #16
 8004686:	f840 ab04 	str.w	sl, [r0], #4
 800468a:	d9da      	bls.n	8004642 <quorem+0x42>
 800468c:	9a00      	ldr	r2, [sp, #0]
 800468e:	58ab      	ldr	r3, [r5, r2]
 8004690:	b96b      	cbnz	r3, 80046ae <quorem+0xae>
 8004692:	9a01      	ldr	r2, [sp, #4]
 8004694:	1f13      	subs	r3, r2, #4
 8004696:	42ab      	cmp	r3, r5
 8004698:	461a      	mov	r2, r3
 800469a:	d802      	bhi.n	80046a2 <quorem+0xa2>
 800469c:	f8c8 4010 	str.w	r4, [r8, #16]
 80046a0:	e005      	b.n	80046ae <quorem+0xae>
 80046a2:	6812      	ldr	r2, [r2, #0]
 80046a4:	3b04      	subs	r3, #4
 80046a6:	2a00      	cmp	r2, #0
 80046a8:	d1f8      	bne.n	800469c <quorem+0x9c>
 80046aa:	3c01      	subs	r4, #1
 80046ac:	e7f3      	b.n	8004696 <quorem+0x96>
 80046ae:	4640      	mov	r0, r8
 80046b0:	f001 fa3b 	bl	8005b2a <__mcmp>
 80046b4:	2800      	cmp	r0, #0
 80046b6:	db2a      	blt.n	800470e <quorem+0x10e>
 80046b8:	3601      	adds	r6, #1
 80046ba:	462b      	mov	r3, r5
 80046bc:	2000      	movs	r0, #0
 80046be:	f857 cb04 	ldr.w	ip, [r7], #4
 80046c2:	681a      	ldr	r2, [r3, #0]
 80046c4:	fa1f f18c 	uxth.w	r1, ip
 80046c8:	1a41      	subs	r1, r0, r1
 80046ca:	ea4f 4c1c 	mov.w	ip, ip, lsr #16
 80046ce:	fa11 f182 	uxtah	r1, r1, r2
 80046d2:	ebcc 4212 	rsb	r2, ip, r2, lsr #16
 80046d6:	eb02 4221 	add.w	r2, r2, r1, asr #16
 80046da:	b289      	uxth	r1, r1
 80046dc:	1410      	asrs	r0, r2, #16
 80046de:	454f      	cmp	r7, r9
 80046e0:	ea41 4202 	orr.w	r2, r1, r2, lsl #16
 80046e4:	f843 2b04 	str.w	r2, [r3], #4
 80046e8:	d9e9      	bls.n	80046be <quorem+0xbe>
 80046ea:	f855 2024 	ldr.w	r2, [r5, r4, lsl #2]
 80046ee:	eb05 0384 	add.w	r3, r5, r4, lsl #2
 80046f2:	b962      	cbnz	r2, 800470e <quorem+0x10e>
 80046f4:	3b04      	subs	r3, #4
 80046f6:	42ab      	cmp	r3, r5
 80046f8:	461a      	mov	r2, r3
 80046fa:	d802      	bhi.n	8004702 <quorem+0x102>
 80046fc:	f8c8 4010 	str.w	r4, [r8, #16]
 8004700:	e005      	b.n	800470e <quorem+0x10e>
 8004702:	6812      	ldr	r2, [r2, #0]
 8004704:	3b04      	subs	r3, #4
 8004706:	2a00      	cmp	r2, #0
 8004708:	d1f8      	bne.n	80046fc <quorem+0xfc>
 800470a:	3c01      	subs	r4, #1
 800470c:	e7f3      	b.n	80046f6 <quorem+0xf6>
 800470e:	4630      	mov	r0, r6
 8004710:	e000      	b.n	8004714 <quorem+0x114>
 8004712:	2000      	movs	r0, #0
 8004714:	b003      	add	sp, #12
 8004716:	e8bd 8ff0 	ldmia.w	sp!, {r4, r5, r6, r7, r8, r9, sl, fp, pc}
 800471a:	0000      	movs	r0, r0
 800471c:	0000      	movs	r0, r0
	...

08004720 <_dtoa_r>:
 8004720:	e92d 4ff0 	stmdb	sp!, {r4, r5, r6, r7, r8, r9, sl, fp, lr}
 8004724:	6a45      	ldr	r5, [r0, #36]	; 0x24
 8004726:	b09b      	sub	sp, #108	; 0x6c
 8004728:	4682      	mov	sl, r0
 800472a:	910d      	str	r1, [sp, #52]	; 0x34
 800472c:	920e      	str	r2, [sp, #56]	; 0x38
 800472e:	9314      	str	r3, [sp, #80]	; 0x50
 8004730:	9c24      	ldr	r4, [sp, #144]	; 0x90
 8004732:	ed8d 0b02 	vstr	d0, [sp, #8]
 8004736:	b945      	cbnz	r5, 800474a <_dtoa_r+0x2a>
 8004738:	2010      	movs	r0, #16
 800473a:	f000 fdad 	bl	8005298 <malloc>
 800473e:	f8ca 0024 	str.w	r0, [sl, #36]	; 0x24
 8004742:	6045      	str	r5, [r0, #4]
 8004744:	6085      	str	r5, [r0, #8]
 8004746:	6005      	str	r5, [r0, #0]
 8004748:	60c5      	str	r5, [r0, #12]
 800474a:	f8da 3024 	ldr.w	r3, [sl, #36]	; 0x24
 800474e:	6819      	ldr	r1, [r3, #0]
 8004750:	b161      	cbz	r1, 800476c <_dtoa_r+0x4c>
 8004752:	685b      	ldr	r3, [r3, #4]
 8004754:	604b      	str	r3, [r1, #4]
 8004756:	2201      	movs	r2, #1
 8004758:	fa02 f303 	lsl.w	r3, r2, r3
 800475c:	608b      	str	r3, [r1, #8]
 800475e:	4650      	mov	r0, sl
 8004760:	f001 f803 	bl	800576a <_Bfree>
 8004764:	f8da 3024 	ldr.w	r3, [sl, #36]	; 0x24
 8004768:	2200      	movs	r2, #0
 800476a:	601a      	str	r2, [r3, #0]
 800476c:	9903      	ldr	r1, [sp, #12]
 800476e:	2900      	cmp	r1, #0
 8004770:	da05      	bge.n	800477e <_dtoa_r+0x5e>
 8004772:	2301      	movs	r3, #1
 8004774:	f021 4200 	bic.w	r2, r1, #2147483648	; 0x80000000
 8004778:	6023      	str	r3, [r4, #0]
 800477a:	9203      	str	r2, [sp, #12]
 800477c:	e001      	b.n	8004782 <_dtoa_r+0x62>
 800477e:	2300      	movs	r3, #0
 8004780:	6023      	str	r3, [r4, #0]
 8004782:	9c03      	ldr	r4, [sp, #12]
 8004784:	4a9a      	ldr	r2, [pc, #616]	; (80049f0 <_dtoa_r+0x2d0>)
 8004786:	f024 4300 	bic.w	r3, r4, #2147483648	; 0x80000000
 800478a:	0d1b      	lsrs	r3, r3, #20
 800478c:	051b      	lsls	r3, r3, #20
 800478e:	4293      	cmp	r3, r2
 8004790:	d11d      	bne.n	80047ce <_dtoa_r+0xae>
 8004792:	9f14      	ldr	r7, [sp, #80]	; 0x50
 8004794:	9902      	ldr	r1, [sp, #8]
 8004796:	f242 730f 	movw	r3, #9999	; 0x270f
 800479a:	603b      	str	r3, [r7, #0]
 800479c:	b941      	cbnz	r1, 80047b0 <_dtoa_r+0x90>
 800479e:	4b95      	ldr	r3, [pc, #596]	; (80049f4 <_dtoa_r+0x2d4>)
 80047a0:	4a95      	ldr	r2, [pc, #596]	; (80049f8 <_dtoa_r+0x2d8>)
 80047a2:	f3c4 0013 	ubfx	r0, r4, #0, #20
 80047a6:	2800      	cmp	r0, #0
 80047a8:	bf0c      	ite	eq
 80047aa:	4610      	moveq	r0, r2
 80047ac:	4618      	movne	r0, r3
 80047ae:	e000      	b.n	80047b2 <_dtoa_r+0x92>
 80047b0:	4890      	ldr	r0, [pc, #576]	; (80049f4 <_dtoa_r+0x2d4>)
 80047b2:	9f25      	ldr	r7, [sp, #148]	; 0x94
 80047b4:	2f00      	cmp	r7, #0
 80047b6:	f000 8565 	beq.w	8005284 <_dtoa_r+0xb64>
 80047ba:	78c3      	ldrb	r3, [r0, #3]
 80047bc:	b113      	cbz	r3, 80047c4 <_dtoa_r+0xa4>
 80047be:	f100 0308 	add.w	r3, r0, #8
 80047c2:	e000      	b.n	80047c6 <_dtoa_r+0xa6>
 80047c4:	1cc3      	adds	r3, r0, #3
 80047c6:	9f25      	ldr	r7, [sp, #148]	; 0x94
 80047c8:	603b      	str	r3, [r7, #0]
 80047ca:	f000 bd5b 	b.w	8005284 <_dtoa_r+0xb64>
 80047ce:	e9dd 8902 	ldrd	r8, r9, [sp, #8]
 80047d2:	2200      	movs	r2, #0
 80047d4:	4640      	mov	r0, r8
 80047d6:	4649      	mov	r1, r9
 80047d8:	2300      	movs	r3, #0
 80047da:	f7fc f935 	bl	8000a48 <__aeabi_dcmpeq>
 80047de:	4605      	mov	r5, r0
 80047e0:	b158      	cbz	r0, 80047fa <_dtoa_r+0xda>
 80047e2:	9f14      	ldr	r7, [sp, #80]	; 0x50
 80047e4:	2301      	movs	r3, #1
 80047e6:	603b      	str	r3, [r7, #0]
 80047e8:	9f25      	ldr	r7, [sp, #148]	; 0x94
 80047ea:	2f00      	cmp	r7, #0
 80047ec:	f000 8547 	beq.w	800527e <_dtoa_r+0xb5e>
 80047f0:	4882      	ldr	r0, [pc, #520]	; (80049fc <_dtoa_r+0x2dc>)
 80047f2:	6038      	str	r0, [r7, #0]
 80047f4:	3801      	subs	r0, #1
 80047f6:	f000 bd45 	b.w	8005284 <_dtoa_r+0xb64>
 80047fa:	4650      	mov	r0, sl
 80047fc:	ec49 8b10 	vmov	d0, r8, r9
 8004800:	a919      	add	r1, sp, #100	; 0x64
 8004802:	aa18      	add	r2, sp, #96	; 0x60
 8004804:	f001 fa0c 	bl	8005c20 <__d2b>
 8004808:	f3c4 560a 	ubfx	r6, r4, #20, #11
 800480c:	4683      	mov	fp, r0
 800480e:	b156      	cbz	r6, 8004826 <_dtoa_r+0x106>
 8004810:	f3c9 0313 	ubfx	r3, r9, #0, #20
 8004814:	f043 517f 	orr.w	r1, r3, #1069547520	; 0x3fc00000
 8004818:	4640      	mov	r0, r8
 800481a:	f441 1140 	orr.w	r1, r1, #3145728	; 0x300000
 800481e:	f2a6 36ff 	subw	r6, r6, #1023	; 0x3ff
 8004822:	9515      	str	r5, [sp, #84]	; 0x54
 8004824:	e01c      	b.n	8004860 <_dtoa_r+0x140>
 8004826:	9b19      	ldr	r3, [sp, #100]	; 0x64
 8004828:	9e18      	ldr	r6, [sp, #96]	; 0x60
 800482a:	441e      	add	r6, r3
 800482c:	f46f 6382 	mvn.w	r3, #1040	; 0x410
 8004830:	429e      	cmp	r6, r3
 8004832:	db09      	blt.n	8004848 <_dtoa_r+0x128>
 8004834:	9902      	ldr	r1, [sp, #8]
 8004836:	331f      	adds	r3, #31
 8004838:	f206 4012 	addw	r0, r6, #1042	; 0x412
 800483c:	1b9b      	subs	r3, r3, r6
 800483e:	fa21 f000 	lsr.w	r0, r1, r0
 8004842:	409c      	lsls	r4, r3
 8004844:	4320      	orrs	r0, r4
 8004846:	e004      	b.n	8004852 <_dtoa_r+0x132>
 8004848:	486d      	ldr	r0, [pc, #436]	; (8004a00 <_dtoa_r+0x2e0>)
 800484a:	9a02      	ldr	r2, [sp, #8]
 800484c:	1b80      	subs	r0, r0, r6
 800484e:	fa02 f000 	lsl.w	r0, r2, r0
 8004852:	f7fb fe1b 	bl	800048c <__aeabi_ui2d>
 8004856:	2701      	movs	r7, #1
 8004858:	f1a1 71f8 	sub.w	r1, r1, #32505856	; 0x1f00000
 800485c:	3e01      	subs	r6, #1
 800485e:	9715      	str	r7, [sp, #84]	; 0x54
 8004860:	2200      	movs	r2, #0
 8004862:	4b68      	ldr	r3, [pc, #416]	; (8004a04 <_dtoa_r+0x2e4>)
 8004864:	f7fb fcd4 	bl	8000210 <__aeabi_dsub>
 8004868:	a35b      	add	r3, pc, #364	; (adr r3, 80049d8 <_dtoa_r+0x2b8>)
 800486a:	e9d3 2300 	ldrd	r2, r3, [r3]
 800486e:	f7fb fe83 	bl	8000578 <__aeabi_dmul>
 8004872:	a35b      	add	r3, pc, #364	; (adr r3, 80049e0 <_dtoa_r+0x2c0>)
 8004874:	e9d3 2300 	ldrd	r2, r3, [r3]
 8004878:	f7fb fccc 	bl	8000214 <__adddf3>
 800487c:	4604      	mov	r4, r0
 800487e:	4630      	mov	r0, r6
 8004880:	460d      	mov	r5, r1
 8004882:	f7fb fe13 	bl	80004ac <__aeabi_i2d>
 8004886:	a358      	add	r3, pc, #352	; (adr r3, 80049e8 <_dtoa_r+0x2c8>)
 8004888:	e9d3 2300 	ldrd	r2, r3, [r3]
 800488c:	f7fb fe74 	bl	8000578 <__aeabi_dmul>
 8004890:	4602      	mov	r2, r0
 8004892:	460b      	mov	r3, r1
 8004894:	4620      	mov	r0, r4
 8004896:	4629      	mov	r1, r5
 8004898:	f7fb fcbc 	bl	8000214 <__adddf3>
 800489c:	4604      	mov	r4, r0
 800489e:	460d      	mov	r5, r1
 80048a0:	f7fc f904 	bl	8000aac <__aeabi_d2iz>
 80048a4:	4629      	mov	r1, r5
 80048a6:	4681      	mov	r9, r0
 80048a8:	2200      	movs	r2, #0
 80048aa:	4620      	mov	r0, r4
 80048ac:	2300      	movs	r3, #0
 80048ae:	f7fc f8d5 	bl	8000a5c <__aeabi_dcmplt>
 80048b2:	b158      	cbz	r0, 80048cc <_dtoa_r+0x1ac>
 80048b4:	4648      	mov	r0, r9
 80048b6:	f7fb fdf9 	bl	80004ac <__aeabi_i2d>
 80048ba:	4602      	mov	r2, r0
 80048bc:	460b      	mov	r3, r1
 80048be:	4620      	mov	r0, r4
 80048c0:	4629      	mov	r1, r5
 80048c2:	f7fc f8c1 	bl	8000a48 <__aeabi_dcmpeq>
 80048c6:	b908      	cbnz	r0, 80048cc <_dtoa_r+0x1ac>
 80048c8:	f109 39ff 	add.w	r9, r9, #4294967295
 80048cc:	f1b9 0f16 	cmp.w	r9, #22
 80048d0:	d80d      	bhi.n	80048ee <_dtoa_r+0x1ce>
 80048d2:	4b4d      	ldr	r3, [pc, #308]	; (8004a08 <_dtoa_r+0x2e8>)
 80048d4:	eb03 03c9 	add.w	r3, r3, r9, lsl #3
 80048d8:	e9d3 0100 	ldrd	r0, r1, [r3]
 80048dc:	e9dd 2302 	ldrd	r2, r3, [sp, #8]
 80048e0:	f7fc f8da 	bl	8000a98 <__aeabi_dcmpgt>
 80048e4:	b130      	cbz	r0, 80048f4 <_dtoa_r+0x1d4>
 80048e6:	f109 39ff 	add.w	r9, r9, #4294967295
 80048ea:	2700      	movs	r7, #0
 80048ec:	e000      	b.n	80048f0 <_dtoa_r+0x1d0>
 80048ee:	2701      	movs	r7, #1
 80048f0:	9711      	str	r7, [sp, #68]	; 0x44
 80048f2:	e000      	b.n	80048f6 <_dtoa_r+0x1d6>
 80048f4:	9011      	str	r0, [sp, #68]	; 0x44
 80048f6:	9b18      	ldr	r3, [sp, #96]	; 0x60
 80048f8:	1b9e      	subs	r6, r3, r6
 80048fa:	3e01      	subs	r6, #1
 80048fc:	9606      	str	r6, [sp, #24]
 80048fe:	d504      	bpl.n	800490a <_dtoa_r+0x1ea>
 8004900:	4277      	negs	r7, r6
 8004902:	9705      	str	r7, [sp, #20]
 8004904:	2700      	movs	r7, #0
 8004906:	9706      	str	r7, [sp, #24]
 8004908:	e001      	b.n	800490e <_dtoa_r+0x1ee>
 800490a:	2700      	movs	r7, #0
 800490c:	9705      	str	r7, [sp, #20]
 800490e:	f1b9 0f00 	cmp.w	r9, #0
 8004912:	db07      	blt.n	8004924 <_dtoa_r+0x204>
 8004914:	9f06      	ldr	r7, [sp, #24]
 8004916:	f8cd 9040 	str.w	r9, [sp, #64]	; 0x40
 800491a:	444f      	add	r7, r9
 800491c:	9706      	str	r7, [sp, #24]
 800491e:	2700      	movs	r7, #0
 8004920:	970b      	str	r7, [sp, #44]	; 0x2c
 8004922:	e008      	b.n	8004936 <_dtoa_r+0x216>
 8004924:	9f05      	ldr	r7, [sp, #20]
 8004926:	ebc9 0707 	rsb	r7, r9, r7
 800492a:	9705      	str	r7, [sp, #20]
 800492c:	f1c9 0700 	rsb	r7, r9, #0
 8004930:	970b      	str	r7, [sp, #44]	; 0x2c
 8004932:	2700      	movs	r7, #0
 8004934:	9710      	str	r7, [sp, #64]	; 0x40
 8004936:	9f0d      	ldr	r7, [sp, #52]	; 0x34
 8004938:	2f09      	cmp	r7, #9
 800493a:	d828      	bhi.n	800498e <_dtoa_r+0x26e>
 800493c:	2f05      	cmp	r7, #5
 800493e:	bfc4      	itt	gt
 8004940:	3f04      	subgt	r7, #4
 8004942:	970d      	strgt	r7, [sp, #52]	; 0x34
 8004944:	9f0d      	ldr	r7, [sp, #52]	; 0x34
 8004946:	f1a7 0302 	sub.w	r3, r7, #2
 800494a:	bfcc      	ite	gt
 800494c:	2500      	movgt	r5, #0
 800494e:	2501      	movle	r5, #1
 8004950:	2b03      	cmp	r3, #3
 8004952:	d821      	bhi.n	8004998 <_dtoa_r+0x278>
 8004954:	e8df f003 	tbb	[pc, r3]
 8004958:	04020f06 	.word	0x04020f06
 800495c:	2701      	movs	r7, #1
 800495e:	e002      	b.n	8004966 <_dtoa_r+0x246>
 8004960:	2701      	movs	r7, #1
 8004962:	e009      	b.n	8004978 <_dtoa_r+0x258>
 8004964:	2700      	movs	r7, #0
 8004966:	970c      	str	r7, [sp, #48]	; 0x30
 8004968:	9f0e      	ldr	r7, [sp, #56]	; 0x38
 800496a:	2f00      	cmp	r7, #0
 800496c:	dd1e      	ble.n	80049ac <_dtoa_r+0x28c>
 800496e:	970a      	str	r7, [sp, #40]	; 0x28
 8004970:	9704      	str	r7, [sp, #16]
 8004972:	463b      	mov	r3, r7
 8004974:	e01f      	b.n	80049b6 <_dtoa_r+0x296>
 8004976:	2700      	movs	r7, #0
 8004978:	970c      	str	r7, [sp, #48]	; 0x30
 800497a:	9f0e      	ldr	r7, [sp, #56]	; 0x38
 800497c:	444f      	add	r7, r9
 800497e:	970a      	str	r7, [sp, #40]	; 0x28
 8004980:	3701      	adds	r7, #1
 8004982:	463b      	mov	r3, r7
 8004984:	9704      	str	r7, [sp, #16]
 8004986:	2b01      	cmp	r3, #1
 8004988:	bfb8      	it	lt
 800498a:	2301      	movlt	r3, #1
 800498c:	e013      	b.n	80049b6 <_dtoa_r+0x296>
 800498e:	2501      	movs	r5, #1
 8004990:	2700      	movs	r7, #0
 8004992:	970d      	str	r7, [sp, #52]	; 0x34
 8004994:	950c      	str	r5, [sp, #48]	; 0x30
 8004996:	e001      	b.n	800499c <_dtoa_r+0x27c>
 8004998:	2701      	movs	r7, #1
 800499a:	970c      	str	r7, [sp, #48]	; 0x30
 800499c:	f04f 37ff 	mov.w	r7, #4294967295
 80049a0:	970a      	str	r7, [sp, #40]	; 0x28
 80049a2:	9704      	str	r7, [sp, #16]
 80049a4:	2700      	movs	r7, #0
 80049a6:	2312      	movs	r3, #18
 80049a8:	970e      	str	r7, [sp, #56]	; 0x38
 80049aa:	e004      	b.n	80049b6 <_dtoa_r+0x296>
 80049ac:	2701      	movs	r7, #1
 80049ae:	970a      	str	r7, [sp, #40]	; 0x28
 80049b0:	9704      	str	r7, [sp, #16]
 80049b2:	463b      	mov	r3, r7
 80049b4:	970e      	str	r7, [sp, #56]	; 0x38
 80049b6:	f8da 4024 	ldr.w	r4, [sl, #36]	; 0x24
 80049ba:	2200      	movs	r2, #0
 80049bc:	6062      	str	r2, [r4, #4]
 80049be:	2104      	movs	r1, #4
 80049c0:	f101 0214 	add.w	r2, r1, #20
 80049c4:	429a      	cmp	r2, r3
 80049c6:	d821      	bhi.n	8004a0c <_dtoa_r+0x2ec>
 80049c8:	6862      	ldr	r2, [r4, #4]
 80049ca:	3201      	adds	r2, #1
 80049cc:	6062      	str	r2, [r4, #4]
 80049ce:	0049      	lsls	r1, r1, #1
 80049d0:	e7f6      	b.n	80049c0 <_dtoa_r+0x2a0>
 80049d2:	bf00      	nop
 80049d4:	f3af 8000 	nop.w
 80049d8:	636f4361 	.word	0x636f4361
 80049dc:	3fd287a7 	.word	0x3fd287a7
 80049e0:	8b60c8b3 	.word	0x8b60c8b3
 80049e4:	3fc68a28 	.word	0x3fc68a28
 80049e8:	509f79fb 	.word	0x509f79fb
 80049ec:	3fd34413 	.word	0x3fd34413
 80049f0:	7ff00000 	.word	0x7ff00000
 80049f4:	08007aba 	.word	0x08007aba
 80049f8:	08007ab1 	.word	0x08007ab1
 80049fc:	08007aa0 	.word	0x08007aa0
 8004a00:	fffffbee 	.word	0xfffffbee
 8004a04:	3ff80000 	.word	0x3ff80000
 8004a08:	08007ac8 	.word	0x08007ac8
 8004a0c:	4650      	mov	r0, sl
 8004a0e:	6861      	ldr	r1, [r4, #4]
 8004a10:	f000 fe76 	bl	8005700 <_Balloc>
 8004a14:	f8da 3024 	ldr.w	r3, [sl, #36]	; 0x24
 8004a18:	9f04      	ldr	r7, [sp, #16]
 8004a1a:	6020      	str	r0, [r4, #0]
 8004a1c:	681b      	ldr	r3, [r3, #0]
 8004a1e:	9307      	str	r3, [sp, #28]
 8004a20:	2f0e      	cmp	r7, #14
 8004a22:	f200 8169 	bhi.w	8004cf8 <_dtoa_r+0x5d8>
 8004a26:	2d00      	cmp	r5, #0
 8004a28:	f000 8166 	beq.w	8004cf8 <_dtoa_r+0x5d8>
 8004a2c:	ed9d 7b02 	vldr	d7, [sp, #8]
 8004a30:	f1b9 0f00 	cmp.w	r9, #0
 8004a34:	ed8d 7b12 	vstr	d7, [sp, #72]	; 0x48
 8004a38:	dd31      	ble.n	8004a9e <_dtoa_r+0x37e>
 8004a3a:	4a80      	ldr	r2, [pc, #512]	; (8004c3c <_dtoa_r+0x51c>)
 8004a3c:	f009 030f 	and.w	r3, r9, #15
 8004a40:	eb02 03c3 	add.w	r3, r2, r3, lsl #3
 8004a44:	ed93 7b00 	vldr	d7, [r3]
 8004a48:	ea4f 1429 	mov.w	r4, r9, asr #4
 8004a4c:	06e0      	lsls	r0, r4, #27
 8004a4e:	ed8d 7b08 	vstr	d7, [sp, #32]
 8004a52:	d50c      	bpl.n	8004a6e <_dtoa_r+0x34e>
 8004a54:	4b7a      	ldr	r3, [pc, #488]	; (8004c40 <_dtoa_r+0x520>)
 8004a56:	e9dd 0112 	ldrd	r0, r1, [sp, #72]	; 0x48
 8004a5a:	e9d3 2308 	ldrd	r2, r3, [r3, #32]
 8004a5e:	f7fb feb5 	bl	80007cc <__aeabi_ddiv>
 8004a62:	f004 040f 	and.w	r4, r4, #15
 8004a66:	e9cd 0102 	strd	r0, r1, [sp, #8]
 8004a6a:	2703      	movs	r7, #3
 8004a6c:	e000      	b.n	8004a70 <_dtoa_r+0x350>
 8004a6e:	2702      	movs	r7, #2
 8004a70:	4d73      	ldr	r5, [pc, #460]	; (8004c40 <_dtoa_r+0x520>)
 8004a72:	b16c      	cbz	r4, 8004a90 <_dtoa_r+0x370>
 8004a74:	07e1      	lsls	r1, r4, #31
 8004a76:	d508      	bpl.n	8004a8a <_dtoa_r+0x36a>
 8004a78:	e9dd 0108 	ldrd	r0, r1, [sp, #32]
 8004a7c:	e9d5 2300 	ldrd	r2, r3, [r5]
 8004a80:	f7fb fd7a 	bl	8000578 <__aeabi_dmul>
 8004a84:	e9cd 0108 	strd	r0, r1, [sp, #32]
 8004a88:	3701      	adds	r7, #1
 8004a8a:	1064      	asrs	r4, r4, #1
 8004a8c:	3508      	adds	r5, #8
 8004a8e:	e7f0      	b.n	8004a72 <_dtoa_r+0x352>
 8004a90:	e9dd 0102 	ldrd	r0, r1, [sp, #8]
 8004a94:	e9dd 2308 	ldrd	r2, r3, [sp, #32]
 8004a98:	f7fb fe98 	bl	80007cc <__aeabi_ddiv>
 8004a9c:	e01b      	b.n	8004ad6 <_dtoa_r+0x3b6>
 8004a9e:	f1c9 0400 	rsb	r4, r9, #0
 8004aa2:	b1dc      	cbz	r4, 8004adc <_dtoa_r+0x3bc>
 8004aa4:	4b65      	ldr	r3, [pc, #404]	; (8004c3c <_dtoa_r+0x51c>)
 8004aa6:	4d66      	ldr	r5, [pc, #408]	; (8004c40 <_dtoa_r+0x520>)
 8004aa8:	f004 020f 	and.w	r2, r4, #15
 8004aac:	eb03 03c2 	add.w	r3, r3, r2, lsl #3
 8004ab0:	e9dd 0112 	ldrd	r0, r1, [sp, #72]	; 0x48
 8004ab4:	e9d3 2300 	ldrd	r2, r3, [r3]
 8004ab8:	f7fb fd5e 	bl	8000578 <__aeabi_dmul>
 8004abc:	1124      	asrs	r4, r4, #4
 8004abe:	2702      	movs	r7, #2
 8004ac0:	b14c      	cbz	r4, 8004ad6 <_dtoa_r+0x3b6>
 8004ac2:	07e2      	lsls	r2, r4, #31
 8004ac4:	d504      	bpl.n	8004ad0 <_dtoa_r+0x3b0>
 8004ac6:	e9d5 2300 	ldrd	r2, r3, [r5]
 8004aca:	3701      	adds	r7, #1
 8004acc:	f7fb fd54 	bl	8000578 <__aeabi_dmul>
 8004ad0:	1064      	asrs	r4, r4, #1
 8004ad2:	3508      	adds	r5, #8
 8004ad4:	e7f4      	b.n	8004ac0 <_dtoa_r+0x3a0>
 8004ad6:	e9cd 0102 	strd	r0, r1, [sp, #8]
 8004ada:	e000      	b.n	8004ade <_dtoa_r+0x3be>
 8004adc:	2702      	movs	r7, #2
 8004ade:	9911      	ldr	r1, [sp, #68]	; 0x44
 8004ae0:	b1e1      	cbz	r1, 8004b1c <_dtoa_r+0x3fc>
 8004ae2:	e9dd 4502 	ldrd	r4, r5, [sp, #8]
 8004ae6:	2200      	movs	r2, #0
 8004ae8:	4620      	mov	r0, r4
 8004aea:	4629      	mov	r1, r5
 8004aec:	4b55      	ldr	r3, [pc, #340]	; (8004c44 <_dtoa_r+0x524>)
 8004aee:	f7fb ffb5 	bl	8000a5c <__aeabi_dcmplt>
 8004af2:	b1c0      	cbz	r0, 8004b26 <_dtoa_r+0x406>
 8004af4:	9a04      	ldr	r2, [sp, #16]
 8004af6:	b1da      	cbz	r2, 8004b30 <_dtoa_r+0x410>
 8004af8:	9b0a      	ldr	r3, [sp, #40]	; 0x28
 8004afa:	2b00      	cmp	r3, #0
 8004afc:	f340 80f8 	ble.w	8004cf0 <_dtoa_r+0x5d0>
 8004b00:	f109 31ff 	add.w	r1, r9, #4294967295
 8004b04:	910f      	str	r1, [sp, #60]	; 0x3c
 8004b06:	2200      	movs	r2, #0
 8004b08:	4620      	mov	r0, r4
 8004b0a:	4629      	mov	r1, r5
 8004b0c:	4b4e      	ldr	r3, [pc, #312]	; (8004c48 <_dtoa_r+0x528>)
 8004b0e:	f7fb fd33 	bl	8000578 <__aeabi_dmul>
 8004b12:	3701      	adds	r7, #1
 8004b14:	e9cd 0102 	strd	r0, r1, [sp, #8]
 8004b18:	9a0a      	ldr	r2, [sp, #40]	; 0x28
 8004b1a:	e00c      	b.n	8004b36 <_dtoa_r+0x416>
 8004b1c:	9b04      	ldr	r3, [sp, #16]
 8004b1e:	f8cd 903c 	str.w	r9, [sp, #60]	; 0x3c
 8004b22:	9308      	str	r3, [sp, #32]
 8004b24:	e008      	b.n	8004b38 <_dtoa_r+0x418>
 8004b26:	9904      	ldr	r1, [sp, #16]
 8004b28:	f8cd 903c 	str.w	r9, [sp, #60]	; 0x3c
 8004b2c:	9108      	str	r1, [sp, #32]
 8004b2e:	e003      	b.n	8004b38 <_dtoa_r+0x418>
 8004b30:	9a04      	ldr	r2, [sp, #16]
 8004b32:	f8cd 903c 	str.w	r9, [sp, #60]	; 0x3c
 8004b36:	9208      	str	r2, [sp, #32]
 8004b38:	4638      	mov	r0, r7
 8004b3a:	f7fb fcb7 	bl	80004ac <__aeabi_i2d>
 8004b3e:	e9dd 2302 	ldrd	r2, r3, [sp, #8]
 8004b42:	f7fb fd19 	bl	8000578 <__aeabi_dmul>
 8004b46:	2200      	movs	r2, #0
 8004b48:	4b40      	ldr	r3, [pc, #256]	; (8004c4c <_dtoa_r+0x52c>)
 8004b4a:	f7fb fb63 	bl	8000214 <__adddf3>
 8004b4e:	9f08      	ldr	r7, [sp, #32]
 8004b50:	4604      	mov	r4, r0
 8004b52:	f1a1 7550 	sub.w	r5, r1, #54525952	; 0x3400000
 8004b56:	b9cf      	cbnz	r7, 8004b8c <_dtoa_r+0x46c>
 8004b58:	2200      	movs	r2, #0
 8004b5a:	4b3d      	ldr	r3, [pc, #244]	; (8004c50 <_dtoa_r+0x530>)
 8004b5c:	e9dd 0102 	ldrd	r0, r1, [sp, #8]
 8004b60:	f7fb fb56 	bl	8000210 <__aeabi_dsub>
 8004b64:	4622      	mov	r2, r4
 8004b66:	462b      	mov	r3, r5
 8004b68:	4606      	mov	r6, r0
 8004b6a:	460f      	mov	r7, r1
 8004b6c:	f7fb ff94 	bl	8000a98 <__aeabi_dcmpgt>
 8004b70:	2800      	cmp	r0, #0
 8004b72:	f040 824b 	bne.w	800500c <_dtoa_r+0x8ec>
 8004b76:	4622      	mov	r2, r4
 8004b78:	f105 4300 	add.w	r3, r5, #2147483648	; 0x80000000
 8004b7c:	4630      	mov	r0, r6
 8004b7e:	4639      	mov	r1, r7
 8004b80:	f7fb ff6c 	bl	8000a5c <__aeabi_dcmplt>
 8004b84:	2800      	cmp	r0, #0
 8004b86:	f040 8237 	bne.w	8004ff8 <_dtoa_r+0x8d8>
 8004b8a:	e0b1      	b.n	8004cf0 <_dtoa_r+0x5d0>
 8004b8c:	9f08      	ldr	r7, [sp, #32]
 8004b8e:	4b2b      	ldr	r3, [pc, #172]	; (8004c3c <_dtoa_r+0x51c>)
 8004b90:	1e7a      	subs	r2, r7, #1
 8004b92:	9f0c      	ldr	r7, [sp, #48]	; 0x30
 8004b94:	eb03 03c2 	add.w	r3, r3, r2, lsl #3
 8004b98:	2f00      	cmp	r7, #0
 8004b9a:	d05d      	beq.n	8004c58 <_dtoa_r+0x538>
 8004b9c:	e9d3 2300 	ldrd	r2, r3, [r3]
 8004ba0:	2000      	movs	r0, #0
 8004ba2:	492c      	ldr	r1, [pc, #176]	; (8004c54 <_dtoa_r+0x534>)
 8004ba4:	f7fb fe12 	bl	80007cc <__aeabi_ddiv>
 8004ba8:	4622      	mov	r2, r4
 8004baa:	462b      	mov	r3, r5
 8004bac:	f7fb fb30 	bl	8000210 <__aeabi_dsub>
 8004bb0:	e9dd 6702 	ldrd	r6, r7, [sp, #8]
 8004bb4:	f8dd 801c 	ldr.w	r8, [sp, #28]
 8004bb8:	4604      	mov	r4, r0
 8004bba:	460d      	mov	r5, r1
 8004bbc:	4639      	mov	r1, r7
 8004bbe:	4630      	mov	r0, r6
 8004bc0:	f7fb ff74 	bl	8000aac <__aeabi_d2iz>
 8004bc4:	9000      	str	r0, [sp, #0]
 8004bc6:	f7fb fc71 	bl	80004ac <__aeabi_i2d>
 8004bca:	4602      	mov	r2, r0
 8004bcc:	460b      	mov	r3, r1
 8004bce:	4630      	mov	r0, r6
 8004bd0:	4639      	mov	r1, r7
 8004bd2:	f7fb fb1d 	bl	8000210 <__aeabi_dsub>
 8004bd6:	f8dd c000 	ldr.w	ip, [sp]
 8004bda:	f10c 0330 	add.w	r3, ip, #48	; 0x30
 8004bde:	f808 3b01 	strb.w	r3, [r8], #1
 8004be2:	4622      	mov	r2, r4
 8004be4:	462b      	mov	r3, r5
 8004be6:	4606      	mov	r6, r0
 8004be8:	460f      	mov	r7, r1
 8004bea:	f7fb ff37 	bl	8000a5c <__aeabi_dcmplt>
 8004bee:	2800      	cmp	r0, #0
 8004bf0:	f040 8333 	bne.w	800525a <_dtoa_r+0xb3a>
 8004bf4:	4632      	mov	r2, r6
 8004bf6:	463b      	mov	r3, r7
 8004bf8:	2000      	movs	r0, #0
 8004bfa:	4912      	ldr	r1, [pc, #72]	; (8004c44 <_dtoa_r+0x524>)
 8004bfc:	f7fb fb08 	bl	8000210 <__aeabi_dsub>
 8004c00:	4622      	mov	r2, r4
 8004c02:	462b      	mov	r3, r5
 8004c04:	f7fb ff2a 	bl	8000a5c <__aeabi_dcmplt>
 8004c08:	2800      	cmp	r0, #0
 8004c0a:	f040 80d4 	bne.w	8004db6 <_dtoa_r+0x696>
 8004c0e:	9907      	ldr	r1, [sp, #28]
 8004c10:	9a08      	ldr	r2, [sp, #32]
 8004c12:	ebc1 0308 	rsb	r3, r1, r8
 8004c16:	4293      	cmp	r3, r2
 8004c18:	da6a      	bge.n	8004cf0 <_dtoa_r+0x5d0>
 8004c1a:	4620      	mov	r0, r4
 8004c1c:	4629      	mov	r1, r5
 8004c1e:	2200      	movs	r2, #0
 8004c20:	4b09      	ldr	r3, [pc, #36]	; (8004c48 <_dtoa_r+0x528>)
 8004c22:	f7fb fca9 	bl	8000578 <__aeabi_dmul>
 8004c26:	2200      	movs	r2, #0
 8004c28:	4604      	mov	r4, r0
 8004c2a:	460d      	mov	r5, r1
 8004c2c:	4630      	mov	r0, r6
 8004c2e:	4639      	mov	r1, r7
 8004c30:	4b05      	ldr	r3, [pc, #20]	; (8004c48 <_dtoa_r+0x528>)
 8004c32:	f7fb fca1 	bl	8000578 <__aeabi_dmul>
 8004c36:	4606      	mov	r6, r0
 8004c38:	460f      	mov	r7, r1
 8004c3a:	e7bf      	b.n	8004bbc <_dtoa_r+0x49c>
 8004c3c:	08007ac8 	.word	0x08007ac8
 8004c40:	08007b90 	.word	0x08007b90
 8004c44:	3ff00000 	.word	0x3ff00000
 8004c48:	40240000 	.word	0x40240000
 8004c4c:	401c0000 	.word	0x401c0000
 8004c50:	40140000 	.word	0x40140000
 8004c54:	3fe00000 	.word	0x3fe00000
 8004c58:	e9d3 0100 	ldrd	r0, r1, [r3]
 8004c5c:	4622      	mov	r2, r4
 8004c5e:	462b      	mov	r3, r5
 8004c60:	f7fb fc8a 	bl	8000578 <__aeabi_dmul>
 8004c64:	f8dd 801c 	ldr.w	r8, [sp, #28]
 8004c68:	9b08      	ldr	r3, [sp, #32]
 8004c6a:	9c07      	ldr	r4, [sp, #28]
 8004c6c:	e9cd 0116 	strd	r0, r1, [sp, #88]	; 0x58
 8004c70:	e9dd 6702 	ldrd	r6, r7, [sp, #8]
 8004c74:	4498      	add	r8, r3
 8004c76:	4639      	mov	r1, r7
 8004c78:	4630      	mov	r0, r6
 8004c7a:	f7fb ff17 	bl	8000aac <__aeabi_d2iz>
 8004c7e:	4605      	mov	r5, r0
 8004c80:	f7fb fc14 	bl	80004ac <__aeabi_i2d>
 8004c84:	3530      	adds	r5, #48	; 0x30
 8004c86:	4602      	mov	r2, r0
 8004c88:	460b      	mov	r3, r1
 8004c8a:	4630      	mov	r0, r6
 8004c8c:	4639      	mov	r1, r7
 8004c8e:	f7fb fabf 	bl	8000210 <__aeabi_dsub>
 8004c92:	f804 5b01 	strb.w	r5, [r4], #1
 8004c96:	4544      	cmp	r4, r8
 8004c98:	4606      	mov	r6, r0
 8004c9a:	460f      	mov	r7, r1
 8004c9c:	d121      	bne.n	8004ce2 <_dtoa_r+0x5c2>
 8004c9e:	2200      	movs	r2, #0
 8004ca0:	4b87      	ldr	r3, [pc, #540]	; (8004ec0 <_dtoa_r+0x7a0>)
 8004ca2:	e9dd 0116 	ldrd	r0, r1, [sp, #88]	; 0x58
 8004ca6:	f7fb fab5 	bl	8000214 <__adddf3>
 8004caa:	4602      	mov	r2, r0
 8004cac:	460b      	mov	r3, r1
 8004cae:	4630      	mov	r0, r6
 8004cb0:	4639      	mov	r1, r7
 8004cb2:	f7fb fef1 	bl	8000a98 <__aeabi_dcmpgt>
 8004cb6:	2800      	cmp	r0, #0
 8004cb8:	d17d      	bne.n	8004db6 <_dtoa_r+0x696>
 8004cba:	e9dd 2316 	ldrd	r2, r3, [sp, #88]	; 0x58
 8004cbe:	2000      	movs	r0, #0
 8004cc0:	497f      	ldr	r1, [pc, #508]	; (8004ec0 <_dtoa_r+0x7a0>)
 8004cc2:	f7fb faa5 	bl	8000210 <__aeabi_dsub>
 8004cc6:	4602      	mov	r2, r0
 8004cc8:	460b      	mov	r3, r1
 8004cca:	4630      	mov	r0, r6
 8004ccc:	4639      	mov	r1, r7
 8004cce:	f7fb fec5 	bl	8000a5c <__aeabi_dcmplt>
 8004cd2:	b168      	cbz	r0, 8004cf0 <_dtoa_r+0x5d0>
 8004cd4:	46a0      	mov	r8, r4
 8004cd6:	3c01      	subs	r4, #1
 8004cd8:	f818 3c01 	ldrb.w	r3, [r8, #-1]
 8004cdc:	2b30      	cmp	r3, #48	; 0x30
 8004cde:	d0f9      	beq.n	8004cd4 <_dtoa_r+0x5b4>
 8004ce0:	e2bb      	b.n	800525a <_dtoa_r+0xb3a>
 8004ce2:	2200      	movs	r2, #0
 8004ce4:	4b77      	ldr	r3, [pc, #476]	; (8004ec4 <_dtoa_r+0x7a4>)
 8004ce6:	f7fb fc47 	bl	8000578 <__aeabi_dmul>
 8004cea:	4606      	mov	r6, r0
 8004cec:	460f      	mov	r7, r1
 8004cee:	e7c2      	b.n	8004c76 <_dtoa_r+0x556>
 8004cf0:	ed9d 7b12 	vldr	d7, [sp, #72]	; 0x48
 8004cf4:	ed8d 7b02 	vstr	d7, [sp, #8]
 8004cf8:	9b19      	ldr	r3, [sp, #100]	; 0x64
 8004cfa:	2b00      	cmp	r3, #0
 8004cfc:	db7c      	blt.n	8004df8 <_dtoa_r+0x6d8>
 8004cfe:	f1b9 0f0e 	cmp.w	r9, #14
 8004d02:	dc79      	bgt.n	8004df8 <_dtoa_r+0x6d8>
 8004d04:	4b70      	ldr	r3, [pc, #448]	; (8004ec8 <_dtoa_r+0x7a8>)
 8004d06:	9f0e      	ldr	r7, [sp, #56]	; 0x38
 8004d08:	eb03 03c9 	add.w	r3, r3, r9, lsl #3
 8004d0c:	2f00      	cmp	r7, #0
 8004d0e:	e9d3 4500 	ldrd	r4, r5, [r3]
 8004d12:	da14      	bge.n	8004d3e <_dtoa_r+0x61e>
 8004d14:	9f04      	ldr	r7, [sp, #16]
 8004d16:	2f00      	cmp	r7, #0
 8004d18:	dc11      	bgt.n	8004d3e <_dtoa_r+0x61e>
 8004d1a:	f040 816f 	bne.w	8004ffc <_dtoa_r+0x8dc>
 8004d1e:	4620      	mov	r0, r4
 8004d20:	4629      	mov	r1, r5
 8004d22:	2200      	movs	r2, #0
 8004d24:	4b69      	ldr	r3, [pc, #420]	; (8004ecc <_dtoa_r+0x7ac>)
 8004d26:	f7fb fc27 	bl	8000578 <__aeabi_dmul>
 8004d2a:	e9dd 2302 	ldrd	r2, r3, [sp, #8]
 8004d2e:	f7fb fea9 	bl	8000a84 <__aeabi_dcmpge>
 8004d32:	9d04      	ldr	r5, [sp, #16]
 8004d34:	462c      	mov	r4, r5
 8004d36:	2800      	cmp	r0, #0
 8004d38:	f040 8162 	bne.w	8005000 <_dtoa_r+0x8e0>
 8004d3c:	e16a      	b.n	8005014 <_dtoa_r+0x8f4>
 8004d3e:	e9dd 6702 	ldrd	r6, r7, [sp, #8]
 8004d42:	f8dd 801c 	ldr.w	r8, [sp, #28]
 8004d46:	4622      	mov	r2, r4
 8004d48:	462b      	mov	r3, r5
 8004d4a:	4630      	mov	r0, r6
 8004d4c:	4639      	mov	r1, r7
 8004d4e:	f7fb fd3d 	bl	80007cc <__aeabi_ddiv>
 8004d52:	f7fb feab 	bl	8000aac <__aeabi_d2iz>
 8004d56:	9002      	str	r0, [sp, #8]
 8004d58:	f7fb fba8 	bl	80004ac <__aeabi_i2d>
 8004d5c:	4622      	mov	r2, r4
 8004d5e:	462b      	mov	r3, r5
 8004d60:	f7fb fc0a 	bl	8000578 <__aeabi_dmul>
 8004d64:	4602      	mov	r2, r0
 8004d66:	460b      	mov	r3, r1
 8004d68:	4630      	mov	r0, r6
 8004d6a:	4639      	mov	r1, r7
 8004d6c:	f7fb fa50 	bl	8000210 <__aeabi_dsub>
 8004d70:	9f02      	ldr	r7, [sp, #8]
 8004d72:	f107 0630 	add.w	r6, r7, #48	; 0x30
 8004d76:	f808 6b01 	strb.w	r6, [r8], #1
 8004d7a:	9f07      	ldr	r7, [sp, #28]
 8004d7c:	ebc7 0608 	rsb	r6, r7, r8
 8004d80:	9f04      	ldr	r7, [sp, #16]
 8004d82:	42be      	cmp	r6, r7
 8004d84:	4602      	mov	r2, r0
 8004d86:	460b      	mov	r3, r1
 8004d88:	d129      	bne.n	8004dde <_dtoa_r+0x6be>
 8004d8a:	f7fb fa43 	bl	8000214 <__adddf3>
 8004d8e:	4622      	mov	r2, r4
 8004d90:	462b      	mov	r3, r5
 8004d92:	4606      	mov	r6, r0
 8004d94:	460f      	mov	r7, r1
 8004d96:	f7fb fe7f 	bl	8000a98 <__aeabi_dcmpgt>
 8004d9a:	b970      	cbnz	r0, 8004dba <_dtoa_r+0x69a>
 8004d9c:	4630      	mov	r0, r6
 8004d9e:	4639      	mov	r1, r7
 8004da0:	4622      	mov	r2, r4
 8004da2:	462b      	mov	r3, r5
 8004da4:	f7fb fe50 	bl	8000a48 <__aeabi_dcmpeq>
 8004da8:	2800      	cmp	r0, #0
 8004daa:	f000 8258 	beq.w	800525e <_dtoa_r+0xb3e>
 8004dae:	9f02      	ldr	r7, [sp, #8]
 8004db0:	07fb      	lsls	r3, r7, #31
 8004db2:	d402      	bmi.n	8004dba <_dtoa_r+0x69a>
 8004db4:	e253      	b.n	800525e <_dtoa_r+0xb3e>
 8004db6:	f8dd 903c 	ldr.w	r9, [sp, #60]	; 0x3c
 8004dba:	4643      	mov	r3, r8
 8004dbc:	4698      	mov	r8, r3
 8004dbe:	3b01      	subs	r3, #1
 8004dc0:	f818 2c01 	ldrb.w	r2, [r8, #-1]
 8004dc4:	2a39      	cmp	r2, #57	; 0x39
 8004dc6:	d106      	bne.n	8004dd6 <_dtoa_r+0x6b6>
 8004dc8:	9f07      	ldr	r7, [sp, #28]
 8004dca:	429f      	cmp	r7, r3
 8004dcc:	d1f6      	bne.n	8004dbc <_dtoa_r+0x69c>
 8004dce:	2230      	movs	r2, #48	; 0x30
 8004dd0:	f109 0901 	add.w	r9, r9, #1
 8004dd4:	703a      	strb	r2, [r7, #0]
 8004dd6:	781a      	ldrb	r2, [r3, #0]
 8004dd8:	3201      	adds	r2, #1
 8004dda:	701a      	strb	r2, [r3, #0]
 8004ddc:	e23f      	b.n	800525e <_dtoa_r+0xb3e>
 8004dde:	2200      	movs	r2, #0
 8004de0:	4b38      	ldr	r3, [pc, #224]	; (8004ec4 <_dtoa_r+0x7a4>)
 8004de2:	f7fb fbc9 	bl	8000578 <__aeabi_dmul>
 8004de6:	2200      	movs	r2, #0
 8004de8:	2300      	movs	r3, #0
 8004dea:	4606      	mov	r6, r0
 8004dec:	460f      	mov	r7, r1
 8004dee:	f7fb fe2b 	bl	8000a48 <__aeabi_dcmpeq>
 8004df2:	2800      	cmp	r0, #0
 8004df4:	d0a7      	beq.n	8004d46 <_dtoa_r+0x626>
 8004df6:	e232      	b.n	800525e <_dtoa_r+0xb3e>
 8004df8:	9f0c      	ldr	r7, [sp, #48]	; 0x30
 8004dfa:	2f00      	cmp	r7, #0
 8004dfc:	d030      	beq.n	8004e60 <_dtoa_r+0x740>
 8004dfe:	9f0d      	ldr	r7, [sp, #52]	; 0x34
 8004e00:	2f01      	cmp	r7, #1
 8004e02:	dc0a      	bgt.n	8004e1a <_dtoa_r+0x6fa>
 8004e04:	9f15      	ldr	r7, [sp, #84]	; 0x54
 8004e06:	b117      	cbz	r7, 8004e0e <_dtoa_r+0x6ee>
 8004e08:	f203 4333 	addw	r3, r3, #1075	; 0x433
 8004e0c:	e002      	b.n	8004e14 <_dtoa_r+0x6f4>
 8004e0e:	9b18      	ldr	r3, [sp, #96]	; 0x60
 8004e10:	f1c3 0336 	rsb	r3, r3, #54	; 0x36
 8004e14:	9d0b      	ldr	r5, [sp, #44]	; 0x2c
 8004e16:	9e05      	ldr	r6, [sp, #20]
 8004e18:	e016      	b.n	8004e48 <_dtoa_r+0x728>
 8004e1a:	9f04      	ldr	r7, [sp, #16]
 8004e1c:	1e7d      	subs	r5, r7, #1
 8004e1e:	9f0b      	ldr	r7, [sp, #44]	; 0x2c
 8004e20:	42af      	cmp	r7, r5
 8004e22:	db01      	blt.n	8004e28 <_dtoa_r+0x708>
 8004e24:	1b7d      	subs	r5, r7, r5
 8004e26:	e006      	b.n	8004e36 <_dtoa_r+0x716>
 8004e28:	9f0b      	ldr	r7, [sp, #44]	; 0x2c
 8004e2a:	950b      	str	r5, [sp, #44]	; 0x2c
 8004e2c:	1beb      	subs	r3, r5, r7
 8004e2e:	9f10      	ldr	r7, [sp, #64]	; 0x40
 8004e30:	441f      	add	r7, r3
 8004e32:	9710      	str	r7, [sp, #64]	; 0x40
 8004e34:	2500      	movs	r5, #0
 8004e36:	9f04      	ldr	r7, [sp, #16]
 8004e38:	2f00      	cmp	r7, #0
 8004e3a:	da03      	bge.n	8004e44 <_dtoa_r+0x724>
 8004e3c:	9905      	ldr	r1, [sp, #20]
 8004e3e:	2300      	movs	r3, #0
 8004e40:	1bce      	subs	r6, r1, r7
 8004e42:	e001      	b.n	8004e48 <_dtoa_r+0x728>
 8004e44:	9e05      	ldr	r6, [sp, #20]
 8004e46:	9b04      	ldr	r3, [sp, #16]
 8004e48:	9f05      	ldr	r7, [sp, #20]
 8004e4a:	441f      	add	r7, r3
 8004e4c:	9705      	str	r7, [sp, #20]
 8004e4e:	9f06      	ldr	r7, [sp, #24]
 8004e50:	4650      	mov	r0, sl
 8004e52:	441f      	add	r7, r3
 8004e54:	2101      	movs	r1, #1
 8004e56:	9706      	str	r7, [sp, #24]
 8004e58:	f000 fd25 	bl	80058a6 <__i2b>
 8004e5c:	4604      	mov	r4, r0
 8004e5e:	e002      	b.n	8004e66 <_dtoa_r+0x746>
 8004e60:	9d0b      	ldr	r5, [sp, #44]	; 0x2c
 8004e62:	9e05      	ldr	r6, [sp, #20]
 8004e64:	9c0c      	ldr	r4, [sp, #48]	; 0x30
 8004e66:	b16e      	cbz	r6, 8004e84 <_dtoa_r+0x764>
 8004e68:	9f06      	ldr	r7, [sp, #24]
 8004e6a:	2f00      	cmp	r7, #0
 8004e6c:	dd0a      	ble.n	8004e84 <_dtoa_r+0x764>
 8004e6e:	463b      	mov	r3, r7
 8004e70:	9f05      	ldr	r7, [sp, #20]
 8004e72:	42b3      	cmp	r3, r6
 8004e74:	bfa8      	it	ge
 8004e76:	4633      	movge	r3, r6
 8004e78:	1aff      	subs	r7, r7, r3
 8004e7a:	9705      	str	r7, [sp, #20]
 8004e7c:	9f06      	ldr	r7, [sp, #24]
 8004e7e:	1aff      	subs	r7, r7, r3
 8004e80:	1af6      	subs	r6, r6, r3
 8004e82:	9706      	str	r7, [sp, #24]
 8004e84:	9f0b      	ldr	r7, [sp, #44]	; 0x2c
 8004e86:	2f00      	cmp	r7, #0
 8004e88:	dd28      	ble.n	8004edc <_dtoa_r+0x7bc>
 8004e8a:	9f0c      	ldr	r7, [sp, #48]	; 0x30
 8004e8c:	b307      	cbz	r7, 8004ed0 <_dtoa_r+0x7b0>
 8004e8e:	2d00      	cmp	r5, #0
 8004e90:	dd10      	ble.n	8004eb4 <_dtoa_r+0x794>
 8004e92:	4621      	mov	r1, r4
 8004e94:	462a      	mov	r2, r5
 8004e96:	4650      	mov	r0, sl
 8004e98:	f000 fda6 	bl	80059e8 <__pow5mult>
 8004e9c:	4604      	mov	r4, r0
 8004e9e:	465a      	mov	r2, fp
 8004ea0:	4621      	mov	r1, r4
 8004ea2:	4650      	mov	r0, sl
 8004ea4:	f000 fd08 	bl	80058b8 <__multiply>
 8004ea8:	4659      	mov	r1, fp
 8004eaa:	4607      	mov	r7, r0
 8004eac:	4650      	mov	r0, sl
 8004eae:	f000 fc5c 	bl	800576a <_Bfree>
 8004eb2:	46bb      	mov	fp, r7
 8004eb4:	9f0b      	ldr	r7, [sp, #44]	; 0x2c
 8004eb6:	1b7a      	subs	r2, r7, r5
 8004eb8:	d010      	beq.n	8004edc <_dtoa_r+0x7bc>
 8004eba:	4650      	mov	r0, sl
 8004ebc:	4659      	mov	r1, fp
 8004ebe:	e00a      	b.n	8004ed6 <_dtoa_r+0x7b6>
 8004ec0:	3fe00000 	.word	0x3fe00000
 8004ec4:	40240000 	.word	0x40240000
 8004ec8:	08007ac8 	.word	0x08007ac8
 8004ecc:	40140000 	.word	0x40140000
 8004ed0:	9a0b      	ldr	r2, [sp, #44]	; 0x2c
 8004ed2:	4650      	mov	r0, sl
 8004ed4:	4659      	mov	r1, fp
 8004ed6:	f000 fd87 	bl	80059e8 <__pow5mult>
 8004eda:	4683      	mov	fp, r0
 8004edc:	4650      	mov	r0, sl
 8004ede:	2101      	movs	r1, #1
 8004ee0:	f000 fce1 	bl	80058a6 <__i2b>
 8004ee4:	9f10      	ldr	r7, [sp, #64]	; 0x40
 8004ee6:	2f00      	cmp	r7, #0
 8004ee8:	4605      	mov	r5, r0
 8004eea:	dd05      	ble.n	8004ef8 <_dtoa_r+0x7d8>
 8004eec:	4629      	mov	r1, r5
 8004eee:	4650      	mov	r0, sl
 8004ef0:	463a      	mov	r2, r7
 8004ef2:	f000 fd79 	bl	80059e8 <__pow5mult>
 8004ef6:	4605      	mov	r5, r0
 8004ef8:	9f0d      	ldr	r7, [sp, #52]	; 0x34
 8004efa:	2f01      	cmp	r7, #1
 8004efc:	dc12      	bgt.n	8004f24 <_dtoa_r+0x804>
 8004efe:	9902      	ldr	r1, [sp, #8]
 8004f00:	b981      	cbnz	r1, 8004f24 <_dtoa_r+0x804>
 8004f02:	9a03      	ldr	r2, [sp, #12]
 8004f04:	f3c2 0313 	ubfx	r3, r2, #0, #20
 8004f08:	b973      	cbnz	r3, 8004f28 <_dtoa_r+0x808>
 8004f0a:	f022 4700 	bic.w	r7, r2, #2147483648	; 0x80000000
 8004f0e:	0d3f      	lsrs	r7, r7, #20
 8004f10:	053f      	lsls	r7, r7, #20
 8004f12:	b157      	cbz	r7, 8004f2a <_dtoa_r+0x80a>
 8004f14:	9f05      	ldr	r7, [sp, #20]
 8004f16:	3701      	adds	r7, #1
 8004f18:	9705      	str	r7, [sp, #20]
 8004f1a:	9f06      	ldr	r7, [sp, #24]
 8004f1c:	3701      	adds	r7, #1
 8004f1e:	9706      	str	r7, [sp, #24]
 8004f20:	2701      	movs	r7, #1
 8004f22:	e002      	b.n	8004f2a <_dtoa_r+0x80a>
 8004f24:	2700      	movs	r7, #0
 8004f26:	e000      	b.n	8004f2a <_dtoa_r+0x80a>
 8004f28:	9f02      	ldr	r7, [sp, #8]
 8004f2a:	9910      	ldr	r1, [sp, #64]	; 0x40
 8004f2c:	b141      	cbz	r1, 8004f40 <_dtoa_r+0x820>
 8004f2e:	692b      	ldr	r3, [r5, #16]
 8004f30:	eb05 0383 	add.w	r3, r5, r3, lsl #2
 8004f34:	6918      	ldr	r0, [r3, #16]
 8004f36:	f000 fc69 	bl	800580c <__hi0bits>
 8004f3a:	f1c0 0020 	rsb	r0, r0, #32
 8004f3e:	e000      	b.n	8004f42 <_dtoa_r+0x822>
 8004f40:	2001      	movs	r0, #1
 8004f42:	9b06      	ldr	r3, [sp, #24]
 8004f44:	4403      	add	r3, r0
 8004f46:	f013 031f 	ands.w	r3, r3, #31
 8004f4a:	d008      	beq.n	8004f5e <_dtoa_r+0x83e>
 8004f4c:	f1c3 0220 	rsb	r2, r3, #32
 8004f50:	2a04      	cmp	r2, #4
 8004f52:	dd02      	ble.n	8004f5a <_dtoa_r+0x83a>
 8004f54:	f1c3 031c 	rsb	r3, r3, #28
 8004f58:	e002      	b.n	8004f60 <_dtoa_r+0x840>
 8004f5a:	d008      	beq.n	8004f6e <_dtoa_r+0x84e>
 8004f5c:	4613      	mov	r3, r2
 8004f5e:	331c      	adds	r3, #28
 8004f60:	9a05      	ldr	r2, [sp, #20]
 8004f62:	9906      	ldr	r1, [sp, #24]
 8004f64:	441a      	add	r2, r3
 8004f66:	4419      	add	r1, r3
 8004f68:	9205      	str	r2, [sp, #20]
 8004f6a:	441e      	add	r6, r3
 8004f6c:	9106      	str	r1, [sp, #24]
 8004f6e:	9a05      	ldr	r2, [sp, #20]
 8004f70:	2a00      	cmp	r2, #0
 8004f72:	dd04      	ble.n	8004f7e <_dtoa_r+0x85e>
 8004f74:	4659      	mov	r1, fp
 8004f76:	4650      	mov	r0, sl
 8004f78:	f000 fd84 	bl	8005a84 <__lshift>
 8004f7c:	4683      	mov	fp, r0
 8004f7e:	9b06      	ldr	r3, [sp, #24]
 8004f80:	2b00      	cmp	r3, #0
 8004f82:	dd05      	ble.n	8004f90 <_dtoa_r+0x870>
 8004f84:	4629      	mov	r1, r5
 8004f86:	4650      	mov	r0, sl
 8004f88:	461a      	mov	r2, r3
 8004f8a:	f000 fd7b 	bl	8005a84 <__lshift>
 8004f8e:	4605      	mov	r5, r0
 8004f90:	9911      	ldr	r1, [sp, #68]	; 0x44
 8004f92:	b1e1      	cbz	r1, 8004fce <_dtoa_r+0x8ae>
 8004f94:	4658      	mov	r0, fp
 8004f96:	4629      	mov	r1, r5
 8004f98:	f000 fdc7 	bl	8005b2a <__mcmp>
 8004f9c:	2800      	cmp	r0, #0
 8004f9e:	da16      	bge.n	8004fce <_dtoa_r+0x8ae>
 8004fa0:	4659      	mov	r1, fp
 8004fa2:	220a      	movs	r2, #10
 8004fa4:	4650      	mov	r0, sl
 8004fa6:	2300      	movs	r3, #0
 8004fa8:	f000 fbf6 	bl	8005798 <__multadd>
 8004fac:	9a0c      	ldr	r2, [sp, #48]	; 0x30
 8004fae:	f109 39ff 	add.w	r9, r9, #4294967295
 8004fb2:	4683      	mov	fp, r0
 8004fb4:	b14a      	cbz	r2, 8004fca <_dtoa_r+0x8aa>
 8004fb6:	4621      	mov	r1, r4
 8004fb8:	2300      	movs	r3, #0
 8004fba:	4650      	mov	r0, sl
 8004fbc:	220a      	movs	r2, #10
 8004fbe:	f000 fbeb 	bl	8005798 <__multadd>
 8004fc2:	9b0a      	ldr	r3, [sp, #40]	; 0x28
 8004fc4:	9304      	str	r3, [sp, #16]
 8004fc6:	4604      	mov	r4, r0
 8004fc8:	e001      	b.n	8004fce <_dtoa_r+0x8ae>
 8004fca:	990a      	ldr	r1, [sp, #40]	; 0x28
 8004fcc:	9104      	str	r1, [sp, #16]
 8004fce:	9a04      	ldr	r2, [sp, #16]
 8004fd0:	2a00      	cmp	r2, #0
 8004fd2:	dc29      	bgt.n	8005028 <_dtoa_r+0x908>
 8004fd4:	9b0d      	ldr	r3, [sp, #52]	; 0x34
 8004fd6:	2b02      	cmp	r3, #2
 8004fd8:	dd26      	ble.n	8005028 <_dtoa_r+0x908>
 8004fda:	b98a      	cbnz	r2, 8005000 <_dtoa_r+0x8e0>
 8004fdc:	4629      	mov	r1, r5
 8004fde:	2205      	movs	r2, #5
 8004fe0:	9b04      	ldr	r3, [sp, #16]
 8004fe2:	4650      	mov	r0, sl
 8004fe4:	f000 fbd8 	bl	8005798 <__multadd>
 8004fe8:	4605      	mov	r5, r0
 8004fea:	4629      	mov	r1, r5
 8004fec:	4658      	mov	r0, fp
 8004fee:	f000 fd9c 	bl	8005b2a <__mcmp>
 8004ff2:	2800      	cmp	r0, #0
 8004ff4:	dc0e      	bgt.n	8005014 <_dtoa_r+0x8f4>
 8004ff6:	e003      	b.n	8005000 <_dtoa_r+0x8e0>
 8004ff8:	9d08      	ldr	r5, [sp, #32]
 8004ffa:	e000      	b.n	8004ffe <_dtoa_r+0x8de>
 8004ffc:	2500      	movs	r5, #0
 8004ffe:	462c      	mov	r4, r5
 8005000:	9f0e      	ldr	r7, [sp, #56]	; 0x38
 8005002:	f8dd 801c 	ldr.w	r8, [sp, #28]
 8005006:	ea6f 0907 	mvn.w	r9, r7
 800500a:	e00a      	b.n	8005022 <_dtoa_r+0x902>
 800500c:	9d08      	ldr	r5, [sp, #32]
 800500e:	f8dd 903c 	ldr.w	r9, [sp, #60]	; 0x3c
 8005012:	462c      	mov	r4, r5
 8005014:	9f07      	ldr	r7, [sp, #28]
 8005016:	2331      	movs	r3, #49	; 0x31
 8005018:	f107 0801 	add.w	r8, r7, #1
 800501c:	703b      	strb	r3, [r7, #0]
 800501e:	f109 0901 	add.w	r9, r9, #1
 8005022:	4627      	mov	r7, r4
 8005024:	2400      	movs	r4, #0
 8005026:	e107      	b.n	8005238 <_dtoa_r+0xb18>
 8005028:	990c      	ldr	r1, [sp, #48]	; 0x30
 800502a:	2900      	cmp	r1, #0
 800502c:	f000 80bb 	beq.w	80051a6 <_dtoa_r+0xa86>
 8005030:	2e00      	cmp	r6, #0
 8005032:	dd05      	ble.n	8005040 <_dtoa_r+0x920>
 8005034:	4621      	mov	r1, r4
 8005036:	4650      	mov	r0, sl
 8005038:	4632      	mov	r2, r6
 800503a:	f000 fd23 	bl	8005a84 <__lshift>
 800503e:	4604      	mov	r4, r0
 8005040:	b19f      	cbz	r7, 800506a <_dtoa_r+0x94a>
 8005042:	6861      	ldr	r1, [r4, #4]
 8005044:	4650      	mov	r0, sl
 8005046:	f000 fb5b 	bl	8005700 <_Balloc>
 800504a:	6922      	ldr	r2, [r4, #16]
 800504c:	3202      	adds	r2, #2
 800504e:	4606      	mov	r6, r0
 8005050:	f104 010c 	add.w	r1, r4, #12
 8005054:	0092      	lsls	r2, r2, #2
 8005056:	300c      	adds	r0, #12
 8005058:	f000 fb47 	bl	80056ea <memcpy>
 800505c:	4650      	mov	r0, sl
 800505e:	4631      	mov	r1, r6
 8005060:	2201      	movs	r2, #1
 8005062:	f000 fd0f 	bl	8005a84 <__lshift>
 8005066:	4607      	mov	r7, r0
 8005068:	e000      	b.n	800506c <_dtoa_r+0x94c>
 800506a:	4627      	mov	r7, r4
 800506c:	9e07      	ldr	r6, [sp, #28]
 800506e:	4629      	mov	r1, r5
 8005070:	4658      	mov	r0, fp
 8005072:	f7ff fac5 	bl	8004600 <quorem>
 8005076:	4621      	mov	r1, r4
 8005078:	f100 0c30 	add.w	ip, r0, #48	; 0x30
 800507c:	4680      	mov	r8, r0
 800507e:	4658      	mov	r0, fp
 8005080:	f8cd c000 	str.w	ip, [sp]
 8005084:	f000 fd51 	bl	8005b2a <__mcmp>
 8005088:	463a      	mov	r2, r7
 800508a:	9005      	str	r0, [sp, #20]
 800508c:	4629      	mov	r1, r5
 800508e:	4650      	mov	r0, sl
 8005090:	f000 fd68 	bl	8005b64 <__mdiff>
 8005094:	68c3      	ldr	r3, [r0, #12]
 8005096:	f8dd c000 	ldr.w	ip, [sp]
 800509a:	4602      	mov	r2, r0
 800509c:	b94b      	cbnz	r3, 80050b2 <_dtoa_r+0x992>
 800509e:	4611      	mov	r1, r2
 80050a0:	4658      	mov	r0, fp
 80050a2:	9201      	str	r2, [sp, #4]
 80050a4:	f000 fd41 	bl	8005b2a <__mcmp>
 80050a8:	9a01      	ldr	r2, [sp, #4]
 80050aa:	f8dd c000 	ldr.w	ip, [sp]
 80050ae:	4603      	mov	r3, r0
 80050b0:	e000      	b.n	80050b4 <_dtoa_r+0x994>
 80050b2:	2301      	movs	r3, #1
 80050b4:	4650      	mov	r0, sl
 80050b6:	4611      	mov	r1, r2
 80050b8:	9301      	str	r3, [sp, #4]
 80050ba:	f8cd c000 	str.w	ip, [sp]
 80050be:	f000 fb54 	bl	800576a <_Bfree>
 80050c2:	9b01      	ldr	r3, [sp, #4]
 80050c4:	f8dd c000 	ldr.w	ip, [sp]
 80050c8:	b963      	cbnz	r3, 80050e4 <_dtoa_r+0x9c4>
 80050ca:	9a0d      	ldr	r2, [sp, #52]	; 0x34
 80050cc:	b952      	cbnz	r2, 80050e4 <_dtoa_r+0x9c4>
 80050ce:	9902      	ldr	r1, [sp, #8]
 80050d0:	f001 0201 	and.w	r2, r1, #1
 80050d4:	b932      	cbnz	r2, 80050e4 <_dtoa_r+0x9c4>
 80050d6:	f1bc 0f39 	cmp.w	ip, #57	; 0x39
 80050da:	d035      	beq.n	8005148 <_dtoa_r+0xa28>
 80050dc:	9b05      	ldr	r3, [sp, #20]
 80050de:	2b00      	cmp	r3, #0
 80050e0:	dc24      	bgt.n	800512c <_dtoa_r+0xa0c>
 80050e2:	e025      	b.n	8005130 <_dtoa_r+0xa10>
 80050e4:	9905      	ldr	r1, [sp, #20]
 80050e6:	2900      	cmp	r1, #0
 80050e8:	da02      	bge.n	80050f0 <_dtoa_r+0x9d0>
 80050ea:	2b00      	cmp	r3, #0
 80050ec:	dc08      	bgt.n	8005100 <_dtoa_r+0x9e0>
 80050ee:	e01f      	b.n	8005130 <_dtoa_r+0xa10>
 80050f0:	d123      	bne.n	800513a <_dtoa_r+0xa1a>
 80050f2:	9a0d      	ldr	r2, [sp, #52]	; 0x34
 80050f4:	bb0a      	cbnz	r2, 800513a <_dtoa_r+0xa1a>
 80050f6:	9902      	ldr	r1, [sp, #8]
 80050f8:	f001 0201 	and.w	r2, r1, #1
 80050fc:	b9ea      	cbnz	r2, 800513a <_dtoa_r+0xa1a>
 80050fe:	e7f4      	b.n	80050ea <_dtoa_r+0x9ca>
 8005100:	4659      	mov	r1, fp
 8005102:	2201      	movs	r2, #1
 8005104:	4650      	mov	r0, sl
 8005106:	f8cd c000 	str.w	ip, [sp]
 800510a:	f000 fcbb 	bl	8005a84 <__lshift>
 800510e:	4629      	mov	r1, r5
 8005110:	4683      	mov	fp, r0
 8005112:	f000 fd0a 	bl	8005b2a <__mcmp>
 8005116:	2800      	cmp	r0, #0
 8005118:	f8dd c000 	ldr.w	ip, [sp]
 800511c:	dc03      	bgt.n	8005126 <_dtoa_r+0xa06>
 800511e:	d107      	bne.n	8005130 <_dtoa_r+0xa10>
 8005120:	f01c 0f01 	tst.w	ip, #1
 8005124:	d004      	beq.n	8005130 <_dtoa_r+0xa10>
 8005126:	f1bc 0f39 	cmp.w	ip, #57	; 0x39
 800512a:	d00d      	beq.n	8005148 <_dtoa_r+0xa28>
 800512c:	f108 0c31 	add.w	ip, r8, #49	; 0x31
 8005130:	f106 0801 	add.w	r8, r6, #1
 8005134:	f886 c000 	strb.w	ip, [r6]
 8005138:	e07e      	b.n	8005238 <_dtoa_r+0xb18>
 800513a:	2b00      	cmp	r3, #0
 800513c:	f106 0801 	add.w	r8, r6, #1
 8005140:	dd09      	ble.n	8005156 <_dtoa_r+0xa36>
 8005142:	f1bc 0f39 	cmp.w	ip, #57	; 0x39
 8005146:	d103      	bne.n	8005150 <_dtoa_r+0xa30>
 8005148:	2339      	movs	r3, #57	; 0x39
 800514a:	7033      	strb	r3, [r6, #0]
 800514c:	3601      	adds	r6, #1
 800514e:	e05b      	b.n	8005208 <_dtoa_r+0xae8>
 8005150:	f10c 0301 	add.w	r3, ip, #1
 8005154:	e068      	b.n	8005228 <_dtoa_r+0xb08>
 8005156:	9a07      	ldr	r2, [sp, #28]
 8005158:	9904      	ldr	r1, [sp, #16]
 800515a:	4646      	mov	r6, r8
 800515c:	ebc2 0308 	rsb	r3, r2, r8
 8005160:	428b      	cmp	r3, r1
 8005162:	f806 cc01 	strb.w	ip, [r6, #-1]
 8005166:	d03c      	beq.n	80051e2 <_dtoa_r+0xac2>
 8005168:	4659      	mov	r1, fp
 800516a:	220a      	movs	r2, #10
 800516c:	2300      	movs	r3, #0
 800516e:	4650      	mov	r0, sl
 8005170:	f000 fb12 	bl	8005798 <__multadd>
 8005174:	42bc      	cmp	r4, r7
 8005176:	4683      	mov	fp, r0
 8005178:	4621      	mov	r1, r4
 800517a:	4650      	mov	r0, sl
 800517c:	f04f 020a 	mov.w	r2, #10
 8005180:	f04f 0300 	mov.w	r3, #0
 8005184:	d104      	bne.n	8005190 <_dtoa_r+0xa70>
 8005186:	f000 fb07 	bl	8005798 <__multadd>
 800518a:	4604      	mov	r4, r0
 800518c:	4607      	mov	r7, r0
 800518e:	e76e      	b.n	800506e <_dtoa_r+0x94e>
 8005190:	f000 fb02 	bl	8005798 <__multadd>
 8005194:	4639      	mov	r1, r7
 8005196:	4604      	mov	r4, r0
 8005198:	220a      	movs	r2, #10
 800519a:	4650      	mov	r0, sl
 800519c:	2300      	movs	r3, #0
 800519e:	f000 fafb 	bl	8005798 <__multadd>
 80051a2:	4607      	mov	r7, r0
 80051a4:	e763      	b.n	800506e <_dtoa_r+0x94e>
 80051a6:	9e0c      	ldr	r6, [sp, #48]	; 0x30
 80051a8:	4658      	mov	r0, fp
 80051aa:	4629      	mov	r1, r5
 80051ac:	f7ff fa28 	bl	8004600 <quorem>
 80051b0:	9f07      	ldr	r7, [sp, #28]
 80051b2:	f100 0c30 	add.w	ip, r0, #48	; 0x30
 80051b6:	f807 c006 	strb.w	ip, [r7, r6]
 80051ba:	9f04      	ldr	r7, [sp, #16]
 80051bc:	3601      	adds	r6, #1
 80051be:	42be      	cmp	r6, r7
 80051c0:	db07      	blt.n	80051d2 <_dtoa_r+0xab2>
 80051c2:	9e07      	ldr	r6, [sp, #28]
 80051c4:	2f01      	cmp	r7, #1
 80051c6:	bfac      	ite	ge
 80051c8:	19f6      	addge	r6, r6, r7
 80051ca:	3601      	addlt	r6, #1
 80051cc:	4627      	mov	r7, r4
 80051ce:	2400      	movs	r4, #0
 80051d0:	e007      	b.n	80051e2 <_dtoa_r+0xac2>
 80051d2:	4659      	mov	r1, fp
 80051d4:	4650      	mov	r0, sl
 80051d6:	220a      	movs	r2, #10
 80051d8:	2300      	movs	r3, #0
 80051da:	f000 fadd 	bl	8005798 <__multadd>
 80051de:	4683      	mov	fp, r0
 80051e0:	e7e2      	b.n	80051a8 <_dtoa_r+0xa88>
 80051e2:	4659      	mov	r1, fp
 80051e4:	2201      	movs	r2, #1
 80051e6:	4650      	mov	r0, sl
 80051e8:	f8cd c000 	str.w	ip, [sp]
 80051ec:	f000 fc4a 	bl	8005a84 <__lshift>
 80051f0:	4629      	mov	r1, r5
 80051f2:	4683      	mov	fp, r0
 80051f4:	f000 fc99 	bl	8005b2a <__mcmp>
 80051f8:	2800      	cmp	r0, #0
 80051fa:	f8dd c000 	ldr.w	ip, [sp]
 80051fe:	dc03      	bgt.n	8005208 <_dtoa_r+0xae8>
 8005200:	d114      	bne.n	800522c <_dtoa_r+0xb0c>
 8005202:	f01c 0f01 	tst.w	ip, #1
 8005206:	d011      	beq.n	800522c <_dtoa_r+0xb0c>
 8005208:	f816 3c01 	ldrb.w	r3, [r6, #-1]
 800520c:	2b39      	cmp	r3, #57	; 0x39
 800520e:	46b0      	mov	r8, r6
 8005210:	f106 36ff 	add.w	r6, r6, #4294967295
 8005214:	d107      	bne.n	8005226 <_dtoa_r+0xb06>
 8005216:	9907      	ldr	r1, [sp, #28]
 8005218:	42b1      	cmp	r1, r6
 800521a:	d1f5      	bne.n	8005208 <_dtoa_r+0xae8>
 800521c:	2331      	movs	r3, #49	; 0x31
 800521e:	f109 0901 	add.w	r9, r9, #1
 8005222:	700b      	strb	r3, [r1, #0]
 8005224:	e008      	b.n	8005238 <_dtoa_r+0xb18>
 8005226:	3301      	adds	r3, #1
 8005228:	7033      	strb	r3, [r6, #0]
 800522a:	e005      	b.n	8005238 <_dtoa_r+0xb18>
 800522c:	46b0      	mov	r8, r6
 800522e:	3e01      	subs	r6, #1
 8005230:	f818 3c01 	ldrb.w	r3, [r8, #-1]
 8005234:	2b30      	cmp	r3, #48	; 0x30
 8005236:	d0f9      	beq.n	800522c <_dtoa_r+0xb0c>
 8005238:	4650      	mov	r0, sl
 800523a:	4629      	mov	r1, r5
 800523c:	f000 fa95 	bl	800576a <_Bfree>
 8005240:	b16f      	cbz	r7, 800525e <_dtoa_r+0xb3e>
 8005242:	b12c      	cbz	r4, 8005250 <_dtoa_r+0xb30>
 8005244:	42bc      	cmp	r4, r7
 8005246:	d003      	beq.n	8005250 <_dtoa_r+0xb30>
 8005248:	4650      	mov	r0, sl
 800524a:	4621      	mov	r1, r4
 800524c:	f000 fa8d 	bl	800576a <_Bfree>
 8005250:	4650      	mov	r0, sl
 8005252:	4639      	mov	r1, r7
 8005254:	f000 fa89 	bl	800576a <_Bfree>
 8005258:	e001      	b.n	800525e <_dtoa_r+0xb3e>
 800525a:	f8dd 903c 	ldr.w	r9, [sp, #60]	; 0x3c
 800525e:	4650      	mov	r0, sl
 8005260:	4659      	mov	r1, fp
 8005262:	f000 fa82 	bl	800576a <_Bfree>
 8005266:	2300      	movs	r3, #0
 8005268:	9f14      	ldr	r7, [sp, #80]	; 0x50
 800526a:	f888 3000 	strb.w	r3, [r8]
 800526e:	f109 0301 	add.w	r3, r9, #1
 8005272:	603b      	str	r3, [r7, #0]
 8005274:	9f25      	ldr	r7, [sp, #148]	; 0x94
 8005276:	b127      	cbz	r7, 8005282 <_dtoa_r+0xb62>
 8005278:	f8c7 8000 	str.w	r8, [r7]
 800527c:	e001      	b.n	8005282 <_dtoa_r+0xb62>
 800527e:	4803      	ldr	r0, [pc, #12]	; (800528c <_dtoa_r+0xb6c>)
 8005280:	e000      	b.n	8005284 <_dtoa_r+0xb64>
 8005282:	9807      	ldr	r0, [sp, #28]
 8005284:	b01b      	add	sp, #108	; 0x6c
 8005286:	e8bd 8ff0 	ldmia.w	sp!, {r4, r5, r6, r7, r8, r9, sl, fp, pc}
 800528a:	bf00      	nop
 800528c:	08007a9f 	.word	0x08007a9f

08005290 <_localeconv_r>:
 8005290:	4800      	ldr	r0, [pc, #0]	; (8005294 <_localeconv_r+0x4>)
 8005292:	4770      	bx	lr
 8005294:	200000f8 	.word	0x200000f8

08005298 <malloc>:
 8005298:	4b02      	ldr	r3, [pc, #8]	; (80052a4 <malloc+0xc>)
 800529a:	4601      	mov	r1, r0
 800529c:	6818      	ldr	r0, [r3, #0]
 800529e:	f000 b803 	b.w	80052a8 <_malloc_r>
 80052a2:	bf00      	nop
 80052a4:	200000f4 	.word	0x200000f4

080052a8 <_malloc_r>:
 80052a8:	e92d 4ff0 	stmdb	sp!, {r4, r5, r6, r7, r8, r9, sl, fp, lr}
 80052ac:	f101 040b 	add.w	r4, r1, #11
 80052b0:	2c16      	cmp	r4, #22
 80052b2:	b085      	sub	sp, #20
 80052b4:	4607      	mov	r7, r0
 80052b6:	d903      	bls.n	80052c0 <_malloc_r+0x18>
 80052b8:	f034 0407 	bics.w	r4, r4, #7
 80052bc:	d501      	bpl.n	80052c2 <_malloc_r+0x1a>
 80052be:	e002      	b.n	80052c6 <_malloc_r+0x1e>
 80052c0:	2410      	movs	r4, #16
 80052c2:	428c      	cmp	r4, r1
 80052c4:	d202      	bcs.n	80052cc <_malloc_r+0x24>
 80052c6:	230c      	movs	r3, #12
 80052c8:	603b      	str	r3, [r7, #0]
 80052ca:	e1dd      	b.n	8005688 <_malloc_r+0x3e0>
 80052cc:	4638      	mov	r0, r7
 80052ce:	f000 fa15 	bl	80056fc <__malloc_lock>
 80052d2:	f5b4 7ffc 	cmp.w	r4, #504	; 0x1f8
 80052d6:	4d97      	ldr	r5, [pc, #604]	; (8005534 <_malloc_r+0x28c>)
 80052d8:	d214      	bcs.n	8005304 <_malloc_r+0x5c>
 80052da:	08e2      	lsrs	r2, r4, #3
 80052dc:	eb05 03c2 	add.w	r3, r5, r2, lsl #3
 80052e0:	68de      	ldr	r6, [r3, #12]
 80052e2:	429e      	cmp	r6, r3
 80052e4:	d106      	bne.n	80052f4 <_malloc_r+0x4c>
 80052e6:	f106 0308 	add.w	r3, r6, #8
 80052ea:	6976      	ldr	r6, [r6, #20]
 80052ec:	429e      	cmp	r6, r3
 80052ee:	bf08      	it	eq
 80052f0:	3202      	addeq	r2, #2
 80052f2:	d043      	beq.n	800537c <_malloc_r+0xd4>
 80052f4:	6873      	ldr	r3, [r6, #4]
 80052f6:	68f2      	ldr	r2, [r6, #12]
 80052f8:	68b1      	ldr	r1, [r6, #8]
 80052fa:	f023 0303 	bic.w	r3, r3, #3
 80052fe:	60ca      	str	r2, [r1, #12]
 8005300:	6091      	str	r1, [r2, #8]
 8005302:	e05d      	b.n	80053c0 <_malloc_r+0x118>
 8005304:	0a62      	lsrs	r2, r4, #9
 8005306:	d01a      	beq.n	800533e <_malloc_r+0x96>
 8005308:	2a04      	cmp	r2, #4
 800530a:	d802      	bhi.n	8005312 <_malloc_r+0x6a>
 800530c:	09a2      	lsrs	r2, r4, #6
 800530e:	3238      	adds	r2, #56	; 0x38
 8005310:	e018      	b.n	8005344 <_malloc_r+0x9c>
 8005312:	2a14      	cmp	r2, #20
 8005314:	d801      	bhi.n	800531a <_malloc_r+0x72>
 8005316:	325b      	adds	r2, #91	; 0x5b
 8005318:	e014      	b.n	8005344 <_malloc_r+0x9c>
 800531a:	2a54      	cmp	r2, #84	; 0x54
 800531c:	d802      	bhi.n	8005324 <_malloc_r+0x7c>
 800531e:	0b22      	lsrs	r2, r4, #12
 8005320:	326e      	adds	r2, #110	; 0x6e
 8005322:	e00f      	b.n	8005344 <_malloc_r+0x9c>
 8005324:	f5b2 7faa 	cmp.w	r2, #340	; 0x154
 8005328:	d802      	bhi.n	8005330 <_malloc_r+0x88>
 800532a:	0be2      	lsrs	r2, r4, #15
 800532c:	3277      	adds	r2, #119	; 0x77
 800532e:	e009      	b.n	8005344 <_malloc_r+0x9c>
 8005330:	f240 5354 	movw	r3, #1364	; 0x554
 8005334:	429a      	cmp	r2, r3
 8005336:	d804      	bhi.n	8005342 <_malloc_r+0x9a>
 8005338:	0ca2      	lsrs	r2, r4, #18
 800533a:	327c      	adds	r2, #124	; 0x7c
 800533c:	e002      	b.n	8005344 <_malloc_r+0x9c>
 800533e:	223f      	movs	r2, #63	; 0x3f
 8005340:	e000      	b.n	8005344 <_malloc_r+0x9c>
 8005342:	227e      	movs	r2, #126	; 0x7e
 8005344:	eb05 03c2 	add.w	r3, r5, r2, lsl #3
 8005348:	68de      	ldr	r6, [r3, #12]
 800534a:	429e      	cmp	r6, r3
 800534c:	d015      	beq.n	800537a <_malloc_r+0xd2>
 800534e:	6871      	ldr	r1, [r6, #4]
 8005350:	f021 0103 	bic.w	r1, r1, #3
 8005354:	1b08      	subs	r0, r1, r4
 8005356:	280f      	cmp	r0, #15
 8005358:	dd01      	ble.n	800535e <_malloc_r+0xb6>
 800535a:	3a01      	subs	r2, #1
 800535c:	e00d      	b.n	800537a <_malloc_r+0xd2>
 800535e:	2800      	cmp	r0, #0
 8005360:	db09      	blt.n	8005376 <_malloc_r+0xce>
 8005362:	68f3      	ldr	r3, [r6, #12]
 8005364:	68b2      	ldr	r2, [r6, #8]
 8005366:	60d3      	str	r3, [r2, #12]
 8005368:	609a      	str	r2, [r3, #8]
 800536a:	1873      	adds	r3, r6, r1
 800536c:	685a      	ldr	r2, [r3, #4]
 800536e:	f042 0201 	orr.w	r2, r2, #1
 8005372:	605a      	str	r2, [r3, #4]
 8005374:	e193      	b.n	800569e <_malloc_r+0x3f6>
 8005376:	68f6      	ldr	r6, [r6, #12]
 8005378:	e7e7      	b.n	800534a <_malloc_r+0xa2>
 800537a:	3201      	adds	r2, #1
 800537c:	496d      	ldr	r1, [pc, #436]	; (8005534 <_malloc_r+0x28c>)
 800537e:	692e      	ldr	r6, [r5, #16]
 8005380:	f101 0008 	add.w	r0, r1, #8
 8005384:	4286      	cmp	r6, r0
 8005386:	4686      	mov	lr, r0
 8005388:	d06d      	beq.n	8005466 <_malloc_r+0x1be>
 800538a:	6873      	ldr	r3, [r6, #4]
 800538c:	f023 0303 	bic.w	r3, r3, #3
 8005390:	ebc4 0c03 	rsb	ip, r4, r3
 8005394:	f1bc 0f0f 	cmp.w	ip, #15
 8005398:	dd0d      	ble.n	80053b6 <_malloc_r+0x10e>
 800539a:	1933      	adds	r3, r6, r4
 800539c:	f04c 0201 	orr.w	r2, ip, #1
 80053a0:	f044 0401 	orr.w	r4, r4, #1
 80053a4:	6074      	str	r4, [r6, #4]
 80053a6:	614b      	str	r3, [r1, #20]
 80053a8:	610b      	str	r3, [r1, #16]
 80053aa:	60d8      	str	r0, [r3, #12]
 80053ac:	6098      	str	r0, [r3, #8]
 80053ae:	605a      	str	r2, [r3, #4]
 80053b0:	f843 c00c 	str.w	ip, [r3, ip]
 80053b4:	e173      	b.n	800569e <_malloc_r+0x3f6>
 80053b6:	f1bc 0f00 	cmp.w	ip, #0
 80053ba:	6148      	str	r0, [r1, #20]
 80053bc:	6108      	str	r0, [r1, #16]
 80053be:	db01      	blt.n	80053c4 <_malloc_r+0x11c>
 80053c0:	4433      	add	r3, r6
 80053c2:	e7d3      	b.n	800536c <_malloc_r+0xc4>
 80053c4:	f5b3 7f00 	cmp.w	r3, #512	; 0x200
 80053c8:	d211      	bcs.n	80053ee <_malloc_r+0x146>
 80053ca:	08db      	lsrs	r3, r3, #3
 80053cc:	1098      	asrs	r0, r3, #2
 80053ce:	f04f 0c01 	mov.w	ip, #1
 80053d2:	fa0c fc00 	lsl.w	ip, ip, r0
 80053d6:	6848      	ldr	r0, [r1, #4]
 80053d8:	ea4c 0000 	orr.w	r0, ip, r0
 80053dc:	6048      	str	r0, [r1, #4]
 80053de:	eb01 01c3 	add.w	r1, r1, r3, lsl #3
 80053e2:	688b      	ldr	r3, [r1, #8]
 80053e4:	60b3      	str	r3, [r6, #8]
 80053e6:	60f1      	str	r1, [r6, #12]
 80053e8:	608e      	str	r6, [r1, #8]
 80053ea:	60de      	str	r6, [r3, #12]
 80053ec:	e03b      	b.n	8005466 <_malloc_r+0x1be>
 80053ee:	0a58      	lsrs	r0, r3, #9
 80053f0:	2804      	cmp	r0, #4
 80053f2:	d802      	bhi.n	80053fa <_malloc_r+0x152>
 80053f4:	0998      	lsrs	r0, r3, #6
 80053f6:	3038      	adds	r0, #56	; 0x38
 80053f8:	e015      	b.n	8005426 <_malloc_r+0x17e>
 80053fa:	2814      	cmp	r0, #20
 80053fc:	d801      	bhi.n	8005402 <_malloc_r+0x15a>
 80053fe:	305b      	adds	r0, #91	; 0x5b
 8005400:	e011      	b.n	8005426 <_malloc_r+0x17e>
 8005402:	2854      	cmp	r0, #84	; 0x54
 8005404:	d802      	bhi.n	800540c <_malloc_r+0x164>
 8005406:	0b18      	lsrs	r0, r3, #12
 8005408:	306e      	adds	r0, #110	; 0x6e
 800540a:	e00c      	b.n	8005426 <_malloc_r+0x17e>
 800540c:	f5b0 7faa 	cmp.w	r0, #340	; 0x154
 8005410:	d802      	bhi.n	8005418 <_malloc_r+0x170>
 8005412:	0bd8      	lsrs	r0, r3, #15
 8005414:	3077      	adds	r0, #119	; 0x77
 8005416:	e006      	b.n	8005426 <_malloc_r+0x17e>
 8005418:	f240 5154 	movw	r1, #1364	; 0x554
 800541c:	4288      	cmp	r0, r1
 800541e:	bf9a      	itte	ls
 8005420:	0c98      	lsrls	r0, r3, #18
 8005422:	307c      	addls	r0, #124	; 0x7c
 8005424:	207e      	movhi	r0, #126	; 0x7e
 8005426:	eb05 0cc0 	add.w	ip, r5, r0, lsl #3
 800542a:	f8df 8108 	ldr.w	r8, [pc, #264]	; 8005534 <_malloc_r+0x28c>
 800542e:	f8dc 1008 	ldr.w	r1, [ip, #8]
 8005432:	4561      	cmp	r1, ip
 8005434:	d10d      	bne.n	8005452 <_malloc_r+0x1aa>
 8005436:	2301      	movs	r3, #1
 8005438:	1080      	asrs	r0, r0, #2
 800543a:	fa03 f000 	lsl.w	r0, r3, r0
 800543e:	f8d8 3004 	ldr.w	r3, [r8, #4]
 8005442:	4303      	orrs	r3, r0
 8005444:	f8c8 3004 	str.w	r3, [r8, #4]
 8005448:	460b      	mov	r3, r1
 800544a:	e008      	b.n	800545e <_malloc_r+0x1b6>
 800544c:	6889      	ldr	r1, [r1, #8]
 800544e:	4561      	cmp	r1, ip
 8005450:	d004      	beq.n	800545c <_malloc_r+0x1b4>
 8005452:	6848      	ldr	r0, [r1, #4]
 8005454:	f020 0003 	bic.w	r0, r0, #3
 8005458:	4283      	cmp	r3, r0
 800545a:	d3f7      	bcc.n	800544c <_malloc_r+0x1a4>
 800545c:	68cb      	ldr	r3, [r1, #12]
 800545e:	60f3      	str	r3, [r6, #12]
 8005460:	60b1      	str	r1, [r6, #8]
 8005462:	609e      	str	r6, [r3, #8]
 8005464:	60ce      	str	r6, [r1, #12]
 8005466:	2101      	movs	r1, #1
 8005468:	1093      	asrs	r3, r2, #2
 800546a:	fa01 f303 	lsl.w	r3, r1, r3
 800546e:	6869      	ldr	r1, [r5, #4]
 8005470:	428b      	cmp	r3, r1
 8005472:	d861      	bhi.n	8005538 <_malloc_r+0x290>
 8005474:	420b      	tst	r3, r1
 8005476:	d106      	bne.n	8005486 <_malloc_r+0x1de>
 8005478:	f022 0203 	bic.w	r2, r2, #3
 800547c:	005b      	lsls	r3, r3, #1
 800547e:	420b      	tst	r3, r1
 8005480:	f102 0204 	add.w	r2, r2, #4
 8005484:	d0fa      	beq.n	800547c <_malloc_r+0x1d4>
 8005486:	eb05 00c2 	add.w	r0, r5, r2, lsl #3
 800548a:	4680      	mov	r8, r0
 800548c:	4694      	mov	ip, r2
 800548e:	f8d8 600c 	ldr.w	r6, [r8, #12]
 8005492:	4546      	cmp	r6, r8
 8005494:	d02d      	beq.n	80054f2 <_malloc_r+0x24a>
 8005496:	6871      	ldr	r1, [r6, #4]
 8005498:	f021 0903 	bic.w	r9, r1, #3
 800549c:	ebc4 0109 	rsb	r1, r4, r9
 80054a0:	290f      	cmp	r1, #15
 80054a2:	dd13      	ble.n	80054cc <_malloc_r+0x224>
 80054a4:	1933      	adds	r3, r6, r4
 80054a6:	f044 0401 	orr.w	r4, r4, #1
 80054aa:	68f2      	ldr	r2, [r6, #12]
 80054ac:	6074      	str	r4, [r6, #4]
 80054ae:	f856 0f08 	ldr.w	r0, [r6, #8]!
 80054b2:	60c2      	str	r2, [r0, #12]
 80054b4:	6090      	str	r0, [r2, #8]
 80054b6:	f041 0201 	orr.w	r2, r1, #1
 80054ba:	616b      	str	r3, [r5, #20]
 80054bc:	612b      	str	r3, [r5, #16]
 80054be:	f8c3 e00c 	str.w	lr, [r3, #12]
 80054c2:	f8c3 e008 	str.w	lr, [r3, #8]
 80054c6:	605a      	str	r2, [r3, #4]
 80054c8:	5059      	str	r1, [r3, r1]
 80054ca:	e00c      	b.n	80054e6 <_malloc_r+0x23e>
 80054cc:	2900      	cmp	r1, #0
 80054ce:	db0e      	blt.n	80054ee <_malloc_r+0x246>
 80054d0:	eb06 0109 	add.w	r1, r6, r9
 80054d4:	684b      	ldr	r3, [r1, #4]
 80054d6:	f043 0301 	orr.w	r3, r3, #1
 80054da:	604b      	str	r3, [r1, #4]
 80054dc:	68f3      	ldr	r3, [r6, #12]
 80054de:	f856 2f08 	ldr.w	r2, [r6, #8]!
 80054e2:	60d3      	str	r3, [r2, #12]
 80054e4:	609a      	str	r2, [r3, #8]
 80054e6:	4638      	mov	r0, r7
 80054e8:	f000 f909 	bl	80056fe <__malloc_unlock>
 80054ec:	e0db      	b.n	80056a6 <_malloc_r+0x3fe>
 80054ee:	68f6      	ldr	r6, [r6, #12]
 80054f0:	e7cf      	b.n	8005492 <_malloc_r+0x1ea>
 80054f2:	f10c 0c01 	add.w	ip, ip, #1
 80054f6:	f01c 0f03 	tst.w	ip, #3
 80054fa:	f108 0808 	add.w	r8, r8, #8
 80054fe:	d1c6      	bne.n	800548e <_malloc_r+0x1e6>
 8005500:	0791      	lsls	r1, r2, #30
 8005502:	d104      	bne.n	800550e <_malloc_r+0x266>
 8005504:	686a      	ldr	r2, [r5, #4]
 8005506:	ea22 0203 	bic.w	r2, r2, r3
 800550a:	606a      	str	r2, [r5, #4]
 800550c:	e006      	b.n	800551c <_malloc_r+0x274>
 800550e:	f1a0 0108 	sub.w	r1, r0, #8
 8005512:	6800      	ldr	r0, [r0, #0]
 8005514:	4288      	cmp	r0, r1
 8005516:	f102 32ff 	add.w	r2, r2, #4294967295
 800551a:	d0f1      	beq.n	8005500 <_malloc_r+0x258>
 800551c:	6869      	ldr	r1, [r5, #4]
 800551e:	005b      	lsls	r3, r3, #1
 8005520:	428b      	cmp	r3, r1
 8005522:	d809      	bhi.n	8005538 <_malloc_r+0x290>
 8005524:	b143      	cbz	r3, 8005538 <_malloc_r+0x290>
 8005526:	4662      	mov	r2, ip
 8005528:	420b      	tst	r3, r1
 800552a:	d1ac      	bne.n	8005486 <_malloc_r+0x1de>
 800552c:	3204      	adds	r2, #4
 800552e:	005b      	lsls	r3, r3, #1
 8005530:	e7fa      	b.n	8005528 <_malloc_r+0x280>
 8005532:	bf00      	nop
 8005534:	20000130 	.word	0x20000130
 8005538:	f8d5 8008 	ldr.w	r8, [r5, #8]
 800553c:	f8d8 3004 	ldr.w	r3, [r8, #4]
 8005540:	f023 0903 	bic.w	r9, r3, #3
 8005544:	45a1      	cmp	r9, r4
 8005546:	d304      	bcc.n	8005552 <_malloc_r+0x2aa>
 8005548:	ebc4 0309 	rsb	r3, r4, r9
 800554c:	2b0f      	cmp	r3, #15
 800554e:	f300 809d 	bgt.w	800568c <_malloc_r+0x3e4>
 8005552:	4b57      	ldr	r3, [pc, #348]	; (80056b0 <_malloc_r+0x408>)
 8005554:	4a57      	ldr	r2, [pc, #348]	; (80056b4 <_malloc_r+0x40c>)
 8005556:	681b      	ldr	r3, [r3, #0]
 8005558:	6811      	ldr	r1, [r2, #0]
 800555a:	f103 0a10 	add.w	sl, r3, #16
 800555e:	3101      	adds	r1, #1
 8005560:	eb08 0c09 	add.w	ip, r8, r9
 8005564:	44a2      	add	sl, r4
 8005566:	4b54      	ldr	r3, [pc, #336]	; (80056b8 <_malloc_r+0x410>)
 8005568:	d004      	beq.n	8005574 <_malloc_r+0x2cc>
 800556a:	1e59      	subs	r1, r3, #1
 800556c:	448a      	add	sl, r1
 800556e:	4259      	negs	r1, r3
 8005570:	ea0a 0a01 	and.w	sl, sl, r1
 8005574:	4638      	mov	r0, r7
 8005576:	4651      	mov	r1, sl
 8005578:	9201      	str	r2, [sp, #4]
 800557a:	9302      	str	r3, [sp, #8]
 800557c:	f8cd c00c 	str.w	ip, [sp, #12]
 8005580:	f000 fbc2 	bl	8005d08 <_sbrk_r>
 8005584:	1c42      	adds	r2, r0, #1
 8005586:	aa01      	add	r2, sp, #4
 8005588:	4606      	mov	r6, r0
 800558a:	e892 100c 	ldmia.w	r2, {r2, r3, ip}
 800558e:	d06e      	beq.n	800566e <_malloc_r+0x3c6>
 8005590:	4560      	cmp	r0, ip
 8005592:	d201      	bcs.n	8005598 <_malloc_r+0x2f0>
 8005594:	45a8      	cmp	r8, r5
 8005596:	d16a      	bne.n	800566e <_malloc_r+0x3c6>
 8005598:	4948      	ldr	r1, [pc, #288]	; (80056bc <_malloc_r+0x414>)
 800559a:	6808      	ldr	r0, [r1, #0]
 800559c:	4566      	cmp	r6, ip
 800559e:	eb0a 0e00 	add.w	lr, sl, r0
 80055a2:	f8c1 e000 	str.w	lr, [r1]
 80055a6:	4846      	ldr	r0, [pc, #280]	; (80056c0 <_malloc_r+0x418>)
 80055a8:	468b      	mov	fp, r1
 80055aa:	d107      	bne.n	80055bc <_malloc_r+0x314>
 80055ac:	4206      	tst	r6, r0
 80055ae:	d105      	bne.n	80055bc <_malloc_r+0x314>
 80055b0:	68ab      	ldr	r3, [r5, #8]
 80055b2:	44d1      	add	r9, sl
 80055b4:	f049 0201 	orr.w	r2, r9, #1
 80055b8:	605a      	str	r2, [r3, #4]
 80055ba:	e04c      	b.n	8005656 <_malloc_r+0x3ae>
 80055bc:	6812      	ldr	r2, [r2, #0]
 80055be:	3201      	adds	r2, #1
 80055c0:	d102      	bne.n	80055c8 <_malloc_r+0x320>
 80055c2:	4a3c      	ldr	r2, [pc, #240]	; (80056b4 <_malloc_r+0x40c>)
 80055c4:	6016      	str	r6, [r2, #0]
 80055c6:	e005      	b.n	80055d4 <_malloc_r+0x32c>
 80055c8:	ebcc 0c06 	rsb	ip, ip, r6
 80055cc:	eb0e 020c 	add.w	r2, lr, ip
 80055d0:	f8cb 2000 	str.w	r2, [fp]
 80055d4:	f016 0207 	ands.w	r2, r6, #7
 80055d8:	bf1c      	itt	ne
 80055da:	f1c2 0208 	rsbne	r2, r2, #8
 80055de:	18b6      	addne	r6, r6, r2
 80055e0:	44b2      	add	sl, r6
 80055e2:	4413      	add	r3, r2
 80055e4:	ea0a 0000 	and.w	r0, sl, r0
 80055e8:	ebc0 0a03 	rsb	sl, r0, r3
 80055ec:	4651      	mov	r1, sl
 80055ee:	4638      	mov	r0, r7
 80055f0:	f000 fb8a 	bl	8005d08 <_sbrk_r>
 80055f4:	1c43      	adds	r3, r0, #1
 80055f6:	bf04      	itt	eq
 80055f8:	4630      	moveq	r0, r6
 80055fa:	f04f 0a00 	moveq.w	sl, #0
 80055fe:	f8db 3000 	ldr.w	r3, [fp]
 8005602:	60ae      	str	r6, [r5, #8]
 8005604:	1b80      	subs	r0, r0, r6
 8005606:	4450      	add	r0, sl
 8005608:	4453      	add	r3, sl
 800560a:	f040 0001 	orr.w	r0, r0, #1
 800560e:	45a8      	cmp	r8, r5
 8005610:	f8cb 3000 	str.w	r3, [fp]
 8005614:	6070      	str	r0, [r6, #4]
 8005616:	d01e      	beq.n	8005656 <_malloc_r+0x3ae>
 8005618:	f1b9 0f0f 	cmp.w	r9, #15
 800561c:	d802      	bhi.n	8005624 <_malloc_r+0x37c>
 800561e:	2301      	movs	r3, #1
 8005620:	6073      	str	r3, [r6, #4]
 8005622:	e024      	b.n	800566e <_malloc_r+0x3c6>
 8005624:	f8d8 3004 	ldr.w	r3, [r8, #4]
 8005628:	f1a9 090c 	sub.w	r9, r9, #12
 800562c:	f029 0907 	bic.w	r9, r9, #7
 8005630:	f003 0301 	and.w	r3, r3, #1
 8005634:	ea49 0303 	orr.w	r3, r9, r3
 8005638:	f8c8 3004 	str.w	r3, [r8, #4]
 800563c:	eb08 0309 	add.w	r3, r8, r9
 8005640:	2205      	movs	r2, #5
 8005642:	f1b9 0f0f 	cmp.w	r9, #15
 8005646:	605a      	str	r2, [r3, #4]
 8005648:	609a      	str	r2, [r3, #8]
 800564a:	d904      	bls.n	8005656 <_malloc_r+0x3ae>
 800564c:	4638      	mov	r0, r7
 800564e:	f108 0108 	add.w	r1, r8, #8
 8005652:	f000 fc87 	bl	8005f64 <_free_r>
 8005656:	4a1b      	ldr	r2, [pc, #108]	; (80056c4 <_malloc_r+0x41c>)
 8005658:	f8db 3000 	ldr.w	r3, [fp]
 800565c:	6811      	ldr	r1, [r2, #0]
 800565e:	428b      	cmp	r3, r1
 8005660:	bf88      	it	hi
 8005662:	6013      	strhi	r3, [r2, #0]
 8005664:	4a18      	ldr	r2, [pc, #96]	; (80056c8 <_malloc_r+0x420>)
 8005666:	6811      	ldr	r1, [r2, #0]
 8005668:	428b      	cmp	r3, r1
 800566a:	bf88      	it	hi
 800566c:	6013      	strhi	r3, [r2, #0]
 800566e:	68ab      	ldr	r3, [r5, #8]
 8005670:	685a      	ldr	r2, [r3, #4]
 8005672:	f022 0203 	bic.w	r2, r2, #3
 8005676:	42a2      	cmp	r2, r4
 8005678:	ebc4 0302 	rsb	r3, r4, r2
 800567c:	d301      	bcc.n	8005682 <_malloc_r+0x3da>
 800567e:	2b0f      	cmp	r3, #15
 8005680:	dc04      	bgt.n	800568c <_malloc_r+0x3e4>
 8005682:	4638      	mov	r0, r7
 8005684:	f000 f83b 	bl	80056fe <__malloc_unlock>
 8005688:	2600      	movs	r6, #0
 800568a:	e00c      	b.n	80056a6 <_malloc_r+0x3fe>
 800568c:	68ae      	ldr	r6, [r5, #8]
 800568e:	f044 0201 	orr.w	r2, r4, #1
 8005692:	4434      	add	r4, r6
 8005694:	f043 0301 	orr.w	r3, r3, #1
 8005698:	6072      	str	r2, [r6, #4]
 800569a:	60ac      	str	r4, [r5, #8]
 800569c:	6063      	str	r3, [r4, #4]
 800569e:	4638      	mov	r0, r7
 80056a0:	f000 f82d 	bl	80056fe <__malloc_unlock>
 80056a4:	3608      	adds	r6, #8
 80056a6:	4630      	mov	r0, r6
 80056a8:	b005      	add	sp, #20
 80056aa:	e8bd 8ff0 	ldmia.w	sp!, {r4, r5, r6, r7, r8, r9, sl, fp, pc}
 80056ae:	bf00      	nop
 80056b0:	20000570 	.word	0x20000570
 80056b4:	2000053c 	.word	0x2000053c
 80056b8:	00001000 	.word	0x00001000
 80056bc:	20000574 	.word	0x20000574
 80056c0:	00000fff 	.word	0x00000fff
 80056c4:	2000056c 	.word	0x2000056c
 80056c8:	20000568 	.word	0x20000568

080056cc <memchr>:
 80056cc:	b510      	push	{r4, lr}
 80056ce:	b2c9      	uxtb	r1, r1
 80056d0:	4402      	add	r2, r0
 80056d2:	4290      	cmp	r0, r2
 80056d4:	4603      	mov	r3, r0
 80056d6:	d006      	beq.n	80056e6 <memchr+0x1a>
 80056d8:	781c      	ldrb	r4, [r3, #0]
 80056da:	428c      	cmp	r4, r1
 80056dc:	f100 0001 	add.w	r0, r0, #1
 80056e0:	d1f7      	bne.n	80056d2 <memchr+0x6>
 80056e2:	4618      	mov	r0, r3
 80056e4:	bd10      	pop	{r4, pc}
 80056e6:	2000      	movs	r0, #0
 80056e8:	bd10      	pop	{r4, pc}

080056ea <memcpy>:
 80056ea:	b510      	push	{r4, lr}
 80056ec:	2300      	movs	r3, #0
 80056ee:	4293      	cmp	r3, r2
 80056f0:	d003      	beq.n	80056fa <memcpy+0x10>
 80056f2:	5ccc      	ldrb	r4, [r1, r3]
 80056f4:	54c4      	strb	r4, [r0, r3]
 80056f6:	3301      	adds	r3, #1
 80056f8:	e7f9      	b.n	80056ee <memcpy+0x4>
 80056fa:	bd10      	pop	{r4, pc}

080056fc <__malloc_lock>:
 80056fc:	4770      	bx	lr

080056fe <__malloc_unlock>:
 80056fe:	4770      	bx	lr

08005700 <_Balloc>:
 8005700:	b570      	push	{r4, r5, r6, lr}
 8005702:	6a45      	ldr	r5, [r0, #36]	; 0x24
 8005704:	4604      	mov	r4, r0
 8005706:	460e      	mov	r6, r1
 8005708:	b93d      	cbnz	r5, 800571a <_Balloc+0x1a>
 800570a:	2010      	movs	r0, #16
 800570c:	f7ff fdc4 	bl	8005298 <malloc>
 8005710:	6260      	str	r0, [r4, #36]	; 0x24
 8005712:	6045      	str	r5, [r0, #4]
 8005714:	6085      	str	r5, [r0, #8]
 8005716:	6005      	str	r5, [r0, #0]
 8005718:	60c5      	str	r5, [r0, #12]
 800571a:	6a65      	ldr	r5, [r4, #36]	; 0x24
 800571c:	68eb      	ldr	r3, [r5, #12]
 800571e:	b143      	cbz	r3, 8005732 <_Balloc+0x32>
 8005720:	6a63      	ldr	r3, [r4, #36]	; 0x24
 8005722:	68da      	ldr	r2, [r3, #12]
 8005724:	f852 0026 	ldr.w	r0, [r2, r6, lsl #2]
 8005728:	b178      	cbz	r0, 800574a <_Balloc+0x4a>
 800572a:	6801      	ldr	r1, [r0, #0]
 800572c:	f842 1026 	str.w	r1, [r2, r6, lsl #2]
 8005730:	e017      	b.n	8005762 <_Balloc+0x62>
 8005732:	4620      	mov	r0, r4
 8005734:	2104      	movs	r1, #4
 8005736:	2221      	movs	r2, #33	; 0x21
 8005738:	f000 fb92 	bl	8005e60 <_calloc_r>
 800573c:	6a63      	ldr	r3, [r4, #36]	; 0x24
 800573e:	60e8      	str	r0, [r5, #12]
 8005740:	68db      	ldr	r3, [r3, #12]
 8005742:	2b00      	cmp	r3, #0
 8005744:	d1ec      	bne.n	8005720 <_Balloc+0x20>
 8005746:	2000      	movs	r0, #0
 8005748:	bd70      	pop	{r4, r5, r6, pc}
 800574a:	2101      	movs	r1, #1
 800574c:	fa01 f506 	lsl.w	r5, r1, r6
 8005750:	1d6a      	adds	r2, r5, #5
 8005752:	4620      	mov	r0, r4
 8005754:	0092      	lsls	r2, r2, #2
 8005756:	f000 fb83 	bl	8005e60 <_calloc_r>
 800575a:	2800      	cmp	r0, #0
 800575c:	d0f3      	beq.n	8005746 <_Balloc+0x46>
 800575e:	6046      	str	r6, [r0, #4]
 8005760:	6085      	str	r5, [r0, #8]
 8005762:	2200      	movs	r2, #0
 8005764:	6102      	str	r2, [r0, #16]
 8005766:	60c2      	str	r2, [r0, #12]
 8005768:	bd70      	pop	{r4, r5, r6, pc}

0800576a <_Bfree>:
 800576a:	b570      	push	{r4, r5, r6, lr}
 800576c:	6a44      	ldr	r4, [r0, #36]	; 0x24
 800576e:	4606      	mov	r6, r0
 8005770:	460d      	mov	r5, r1
 8005772:	b93c      	cbnz	r4, 8005784 <_Bfree+0x1a>
 8005774:	2010      	movs	r0, #16
 8005776:	f7ff fd8f 	bl	8005298 <malloc>
 800577a:	6270      	str	r0, [r6, #36]	; 0x24
 800577c:	6044      	str	r4, [r0, #4]
 800577e:	6084      	str	r4, [r0, #8]
 8005780:	6004      	str	r4, [r0, #0]
 8005782:	60c4      	str	r4, [r0, #12]
 8005784:	b13d      	cbz	r5, 8005796 <_Bfree+0x2c>
 8005786:	6a73      	ldr	r3, [r6, #36]	; 0x24
 8005788:	686a      	ldr	r2, [r5, #4]
 800578a:	68db      	ldr	r3, [r3, #12]
 800578c:	f853 1022 	ldr.w	r1, [r3, r2, lsl #2]
 8005790:	6029      	str	r1, [r5, #0]
 8005792:	f843 5022 	str.w	r5, [r3, r2, lsl #2]
 8005796:	bd70      	pop	{r4, r5, r6, pc}

08005798 <__multadd>:
 8005798:	e92d 41f0 	stmdb	sp!, {r4, r5, r6, r7, r8, lr}
 800579c:	460c      	mov	r4, r1
 800579e:	461e      	mov	r6, r3
 80057a0:	690d      	ldr	r5, [r1, #16]
 80057a2:	4607      	mov	r7, r0
 80057a4:	3114      	adds	r1, #20
 80057a6:	2300      	movs	r3, #0
 80057a8:	6808      	ldr	r0, [r1, #0]
 80057aa:	fa1f fc80 	uxth.w	ip, r0
 80057ae:	0c00      	lsrs	r0, r0, #16
 80057b0:	fb02 6c0c 	mla	ip, r2, ip, r6
 80057b4:	4350      	muls	r0, r2
 80057b6:	eb00 401c 	add.w	r0, r0, ip, lsr #16
 80057ba:	3301      	adds	r3, #1
 80057bc:	fa1f fc8c 	uxth.w	ip, ip
 80057c0:	0c06      	lsrs	r6, r0, #16
 80057c2:	42ab      	cmp	r3, r5
 80057c4:	eb0c 4000 	add.w	r0, ip, r0, lsl #16
 80057c8:	f841 0b04 	str.w	r0, [r1], #4
 80057cc:	dbec      	blt.n	80057a8 <__multadd+0x10>
 80057ce:	b1d6      	cbz	r6, 8005806 <__multadd+0x6e>
 80057d0:	68a3      	ldr	r3, [r4, #8]
 80057d2:	429d      	cmp	r5, r3
 80057d4:	db12      	blt.n	80057fc <__multadd+0x64>
 80057d6:	6861      	ldr	r1, [r4, #4]
 80057d8:	4638      	mov	r0, r7
 80057da:	3101      	adds	r1, #1
 80057dc:	f7ff ff90 	bl	8005700 <_Balloc>
 80057e0:	6922      	ldr	r2, [r4, #16]
 80057e2:	3202      	adds	r2, #2
 80057e4:	f104 010c 	add.w	r1, r4, #12
 80057e8:	4680      	mov	r8, r0
 80057ea:	0092      	lsls	r2, r2, #2
 80057ec:	300c      	adds	r0, #12
 80057ee:	f7ff ff7c 	bl	80056ea <memcpy>
 80057f2:	4621      	mov	r1, r4
 80057f4:	4638      	mov	r0, r7
 80057f6:	f7ff ffb8 	bl	800576a <_Bfree>
 80057fa:	4644      	mov	r4, r8
 80057fc:	eb04 0385 	add.w	r3, r4, r5, lsl #2
 8005800:	3501      	adds	r5, #1
 8005802:	615e      	str	r6, [r3, #20]
 8005804:	6125      	str	r5, [r4, #16]
 8005806:	4620      	mov	r0, r4
 8005808:	e8bd 81f0 	ldmia.w	sp!, {r4, r5, r6, r7, r8, pc}

0800580c <__hi0bits>:
 800580c:	0c03      	lsrs	r3, r0, #16
 800580e:	041b      	lsls	r3, r3, #16
 8005810:	b913      	cbnz	r3, 8005818 <__hi0bits+0xc>
 8005812:	0400      	lsls	r0, r0, #16
 8005814:	2310      	movs	r3, #16
 8005816:	e000      	b.n	800581a <__hi0bits+0xe>
 8005818:	2300      	movs	r3, #0
 800581a:	f010 4f7f 	tst.w	r0, #4278190080	; 0xff000000
 800581e:	bf04      	itt	eq
 8005820:	0200      	lsleq	r0, r0, #8
 8005822:	3308      	addeq	r3, #8
 8005824:	f010 4f70 	tst.w	r0, #4026531840	; 0xf0000000
 8005828:	bf04      	itt	eq
 800582a:	0100      	lsleq	r0, r0, #4
 800582c:	3304      	addeq	r3, #4
 800582e:	f010 4f40 	tst.w	r0, #3221225472	; 0xc0000000
 8005832:	bf04      	itt	eq
 8005834:	0080      	lsleq	r0, r0, #2
 8005836:	3302      	addeq	r3, #2
 8005838:	2800      	cmp	r0, #0
 800583a:	db03      	blt.n	8005844 <__hi0bits+0x38>
 800583c:	0042      	lsls	r2, r0, #1
 800583e:	d503      	bpl.n	8005848 <__hi0bits+0x3c>
 8005840:	1c58      	adds	r0, r3, #1
 8005842:	4770      	bx	lr
 8005844:	4618      	mov	r0, r3
 8005846:	4770      	bx	lr
 8005848:	2020      	movs	r0, #32
 800584a:	4770      	bx	lr

0800584c <__lo0bits>:
 800584c:	6803      	ldr	r3, [r0, #0]
 800584e:	f013 0207 	ands.w	r2, r3, #7
 8005852:	d00b      	beq.n	800586c <__lo0bits+0x20>
 8005854:	07d9      	lsls	r1, r3, #31
 8005856:	d422      	bmi.n	800589e <__lo0bits+0x52>
 8005858:	079a      	lsls	r2, r3, #30
 800585a:	d503      	bpl.n	8005864 <__lo0bits+0x18>
 800585c:	085b      	lsrs	r3, r3, #1
 800585e:	6003      	str	r3, [r0, #0]
 8005860:	2001      	movs	r0, #1
 8005862:	4770      	bx	lr
 8005864:	089b      	lsrs	r3, r3, #2
 8005866:	6003      	str	r3, [r0, #0]
 8005868:	2002      	movs	r0, #2
 800586a:	4770      	bx	lr
 800586c:	b299      	uxth	r1, r3
 800586e:	b909      	cbnz	r1, 8005874 <__lo0bits+0x28>
 8005870:	0c1b      	lsrs	r3, r3, #16
 8005872:	2210      	movs	r2, #16
 8005874:	f013 0fff 	tst.w	r3, #255	; 0xff
 8005878:	bf04      	itt	eq
 800587a:	0a1b      	lsreq	r3, r3, #8
 800587c:	3208      	addeq	r2, #8
 800587e:	0719      	lsls	r1, r3, #28
 8005880:	bf04      	itt	eq
 8005882:	091b      	lsreq	r3, r3, #4
 8005884:	3204      	addeq	r2, #4
 8005886:	0799      	lsls	r1, r3, #30
 8005888:	bf04      	itt	eq
 800588a:	089b      	lsreq	r3, r3, #2
 800588c:	3202      	addeq	r2, #2
 800588e:	07d9      	lsls	r1, r3, #31
 8005890:	d402      	bmi.n	8005898 <__lo0bits+0x4c>
 8005892:	085b      	lsrs	r3, r3, #1
 8005894:	d005      	beq.n	80058a2 <__lo0bits+0x56>
 8005896:	3201      	adds	r2, #1
 8005898:	6003      	str	r3, [r0, #0]
 800589a:	4610      	mov	r0, r2
 800589c:	4770      	bx	lr
 800589e:	2000      	movs	r0, #0
 80058a0:	4770      	bx	lr
 80058a2:	2020      	movs	r0, #32
 80058a4:	4770      	bx	lr

080058a6 <__i2b>:
 80058a6:	b510      	push	{r4, lr}
 80058a8:	460c      	mov	r4, r1
 80058aa:	2101      	movs	r1, #1
 80058ac:	f7ff ff28 	bl	8005700 <_Balloc>
 80058b0:	2201      	movs	r2, #1
 80058b2:	6144      	str	r4, [r0, #20]
 80058b4:	6102      	str	r2, [r0, #16]
 80058b6:	bd10      	pop	{r4, pc}

080058b8 <__multiply>:
 80058b8:	e92d 4ff0 	stmdb	sp!, {r4, r5, r6, r7, r8, r9, sl, fp, lr}
 80058bc:	4616      	mov	r6, r2
 80058be:	690a      	ldr	r2, [r1, #16]
 80058c0:	6933      	ldr	r3, [r6, #16]
 80058c2:	429a      	cmp	r2, r3
 80058c4:	b085      	sub	sp, #20
 80058c6:	460d      	mov	r5, r1
 80058c8:	da01      	bge.n	80058ce <__multiply+0x16>
 80058ca:	4635      	mov	r5, r6
 80058cc:	460e      	mov	r6, r1
 80058ce:	f8d5 8010 	ldr.w	r8, [r5, #16]
 80058d2:	6937      	ldr	r7, [r6, #16]
 80058d4:	68ab      	ldr	r3, [r5, #8]
 80058d6:	6869      	ldr	r1, [r5, #4]
 80058d8:	eb08 0407 	add.w	r4, r8, r7
 80058dc:	429c      	cmp	r4, r3
 80058de:	bfc8      	it	gt
 80058e0:	3101      	addgt	r1, #1
 80058e2:	f7ff ff0d 	bl	8005700 <_Balloc>
 80058e6:	f100 0314 	add.w	r3, r0, #20
 80058ea:	eb03 0184 	add.w	r1, r3, r4, lsl #2
 80058ee:	9101      	str	r1, [sp, #4]
 80058f0:	461a      	mov	r2, r3
 80058f2:	f8dd a004 	ldr.w	sl, [sp, #4]
 80058f6:	4552      	cmp	r2, sl
 80058f8:	d203      	bcs.n	8005902 <__multiply+0x4a>
 80058fa:	2100      	movs	r1, #0
 80058fc:	f842 1b04 	str.w	r1, [r2], #4
 8005900:	e7f7      	b.n	80058f2 <__multiply+0x3a>
 8005902:	f105 0114 	add.w	r1, r5, #20
 8005906:	f106 0214 	add.w	r2, r6, #20
 800590a:	eb01 0888 	add.w	r8, r1, r8, lsl #2
 800590e:	eb02 0787 	add.w	r7, r2, r7, lsl #2
 8005912:	f8cd 8008 	str.w	r8, [sp, #8]
 8005916:	9703      	str	r7, [sp, #12]
 8005918:	9e03      	ldr	r6, [sp, #12]
 800591a:	42b2      	cmp	r2, r6
 800591c:	4615      	mov	r5, r2
 800591e:	d256      	bcs.n	80059ce <__multiply+0x116>
 8005920:	f8b5 c000 	ldrh.w	ip, [r5]
 8005924:	3204      	adds	r2, #4
 8005926:	f1bc 0f00 	cmp.w	ip, #0
 800592a:	d025      	beq.n	8005978 <__multiply+0xc0>
 800592c:	460f      	mov	r7, r1
 800592e:	461d      	mov	r5, r3
 8005930:	2600      	movs	r6, #0
 8005932:	f857 9b04 	ldr.w	r9, [r7], #4
 8005936:	f8d5 8000 	ldr.w	r8, [r5]
 800593a:	fa1f fb89 	uxth.w	fp, r9
 800593e:	fa1f fa88 	uxth.w	sl, r8
 8005942:	fb0c aa0b 	mla	sl, ip, fp, sl
 8005946:	ea4f 4919 	mov.w	r9, r9, lsr #16
 800594a:	ea4f 4818 	mov.w	r8, r8, lsr #16
 800594e:	44b2      	add	sl, r6
 8005950:	fb0c 8809 	mla	r8, ip, r9, r8
 8005954:	eb08 481a 	add.w	r8, r8, sl, lsr #16
 8005958:	fa1f fa8a 	uxth.w	sl, sl
 800595c:	ea4a 4a08 	orr.w	sl, sl, r8, lsl #16
 8005960:	ea4f 4618 	mov.w	r6, r8, lsr #16
 8005964:	f8dd 8008 	ldr.w	r8, [sp, #8]
 8005968:	46ab      	mov	fp, r5
 800596a:	45b8      	cmp	r8, r7
 800596c:	f84b ab04 	str.w	sl, [fp], #4
 8005970:	d901      	bls.n	8005976 <__multiply+0xbe>
 8005972:	465d      	mov	r5, fp
 8005974:	e7dd      	b.n	8005932 <__multiply+0x7a>
 8005976:	606e      	str	r6, [r5, #4]
 8005978:	f832 8c02 	ldrh.w	r8, [r2, #-2]
 800597c:	f1b8 0f00 	cmp.w	r8, #0
 8005980:	d023      	beq.n	80059ca <__multiply+0x112>
 8005982:	681e      	ldr	r6, [r3, #0]
 8005984:	460f      	mov	r7, r1
 8005986:	461d      	mov	r5, r3
 8005988:	f04f 0900 	mov.w	r9, #0
 800598c:	f8b7 a000 	ldrh.w	sl, [r7]
 8005990:	f8b5 c002 	ldrh.w	ip, [r5, #2]
 8005994:	fb08 cc0a 	mla	ip, r8, sl, ip
 8005998:	44e1      	add	r9, ip
 800599a:	b2b6      	uxth	r6, r6
 800599c:	46ac      	mov	ip, r5
 800599e:	ea46 4609 	orr.w	r6, r6, r9, lsl #16
 80059a2:	f84c 6b04 	str.w	r6, [ip], #4
 80059a6:	f857 6b04 	ldr.w	r6, [r7], #4
 80059aa:	f8b5 a004 	ldrh.w	sl, [r5, #4]
 80059ae:	0c36      	lsrs	r6, r6, #16
 80059b0:	fb08 a606 	mla	r6, r8, r6, sl
 80059b4:	f8dd a008 	ldr.w	sl, [sp, #8]
 80059b8:	eb06 4619 	add.w	r6, r6, r9, lsr #16
 80059bc:	4557      	cmp	r7, sl
 80059be:	ea4f 4916 	mov.w	r9, r6, lsr #16
 80059c2:	d201      	bcs.n	80059c8 <__multiply+0x110>
 80059c4:	4665      	mov	r5, ip
 80059c6:	e7e1      	b.n	800598c <__multiply+0xd4>
 80059c8:	606e      	str	r6, [r5, #4]
 80059ca:	3304      	adds	r3, #4
 80059cc:	e7a4      	b.n	8005918 <__multiply+0x60>
 80059ce:	9b01      	ldr	r3, [sp, #4]
 80059d0:	2c00      	cmp	r4, #0
 80059d2:	dc03      	bgt.n	80059dc <__multiply+0x124>
 80059d4:	6104      	str	r4, [r0, #16]
 80059d6:	b005      	add	sp, #20
 80059d8:	e8bd 8ff0 	ldmia.w	sp!, {r4, r5, r6, r7, r8, r9, sl, fp, pc}
 80059dc:	f853 2d04 	ldr.w	r2, [r3, #-4]!
 80059e0:	2a00      	cmp	r2, #0
 80059e2:	d1f7      	bne.n	80059d4 <__multiply+0x11c>
 80059e4:	3c01      	subs	r4, #1
 80059e6:	e7f3      	b.n	80059d0 <__multiply+0x118>

080059e8 <__pow5mult>:
 80059e8:	f012 0303 	ands.w	r3, r2, #3
 80059ec:	e92d 41f0 	stmdb	sp!, {r4, r5, r6, r7, r8, lr}
 80059f0:	4605      	mov	r5, r0
 80059f2:	460e      	mov	r6, r1
 80059f4:	4617      	mov	r7, r2
 80059f6:	d007      	beq.n	8005a08 <__pow5mult+0x20>
 80059f8:	3b01      	subs	r3, #1
 80059fa:	4a21      	ldr	r2, [pc, #132]	; (8005a80 <__pow5mult+0x98>)
 80059fc:	f852 2023 	ldr.w	r2, [r2, r3, lsl #2]
 8005a00:	2300      	movs	r3, #0
 8005a02:	f7ff fec9 	bl	8005798 <__multadd>
 8005a06:	4606      	mov	r6, r0
 8005a08:	10bf      	asrs	r7, r7, #2
 8005a0a:	d035      	beq.n	8005a78 <__pow5mult+0x90>
 8005a0c:	6a6c      	ldr	r4, [r5, #36]	; 0x24
 8005a0e:	b93c      	cbnz	r4, 8005a20 <__pow5mult+0x38>
 8005a10:	2010      	movs	r0, #16
 8005a12:	f7ff fc41 	bl	8005298 <malloc>
 8005a16:	6268      	str	r0, [r5, #36]	; 0x24
 8005a18:	6044      	str	r4, [r0, #4]
 8005a1a:	6084      	str	r4, [r0, #8]
 8005a1c:	6004      	str	r4, [r0, #0]
 8005a1e:	60c4      	str	r4, [r0, #12]
 8005a20:	f8d5 8024 	ldr.w	r8, [r5, #36]	; 0x24
 8005a24:	f8d8 4008 	ldr.w	r4, [r8, #8]
 8005a28:	b97c      	cbnz	r4, 8005a4a <__pow5mult+0x62>
 8005a2a:	4628      	mov	r0, r5
 8005a2c:	f240 2171 	movw	r1, #625	; 0x271
 8005a30:	f7ff ff39 	bl	80058a6 <__i2b>
 8005a34:	2300      	movs	r3, #0
 8005a36:	f8c8 0008 	str.w	r0, [r8, #8]
 8005a3a:	4604      	mov	r4, r0
 8005a3c:	6003      	str	r3, [r0, #0]
 8005a3e:	e004      	b.n	8005a4a <__pow5mult+0x62>
 8005a40:	107f      	asrs	r7, r7, #1
 8005a42:	d019      	beq.n	8005a78 <__pow5mult+0x90>
 8005a44:	6820      	ldr	r0, [r4, #0]
 8005a46:	b170      	cbz	r0, 8005a66 <__pow5mult+0x7e>
 8005a48:	4604      	mov	r4, r0
 8005a4a:	07fb      	lsls	r3, r7, #31
 8005a4c:	d5f8      	bpl.n	8005a40 <__pow5mult+0x58>
 8005a4e:	4631      	mov	r1, r6
 8005a50:	4622      	mov	r2, r4
 8005a52:	4628      	mov	r0, r5
 8005a54:	f7ff ff30 	bl	80058b8 <__multiply>
 8005a58:	4631      	mov	r1, r6
 8005a5a:	4680      	mov	r8, r0
 8005a5c:	4628      	mov	r0, r5
 8005a5e:	f7ff fe84 	bl	800576a <_Bfree>
 8005a62:	4646      	mov	r6, r8
 8005a64:	e7ec      	b.n	8005a40 <__pow5mult+0x58>
 8005a66:	4628      	mov	r0, r5
 8005a68:	4621      	mov	r1, r4
 8005a6a:	4622      	mov	r2, r4
 8005a6c:	f7ff ff24 	bl	80058b8 <__multiply>
 8005a70:	2300      	movs	r3, #0
 8005a72:	6020      	str	r0, [r4, #0]
 8005a74:	6003      	str	r3, [r0, #0]
 8005a76:	e7e7      	b.n	8005a48 <__pow5mult+0x60>
 8005a78:	4630      	mov	r0, r6
 8005a7a:	e8bd 81f0 	ldmia.w	sp!, {r4, r5, r6, r7, r8, pc}
 8005a7e:	bf00      	nop
 8005a80:	08007bb8 	.word	0x08007bb8

08005a84 <__lshift>:
 8005a84:	e92d 47f0 	stmdb	sp!, {r4, r5, r6, r7, r8, r9, sl, lr}
 8005a88:	460c      	mov	r4, r1
 8005a8a:	ea4f 1a62 	mov.w	sl, r2, asr #5
 8005a8e:	6923      	ldr	r3, [r4, #16]
 8005a90:	6849      	ldr	r1, [r1, #4]
 8005a92:	eb0a 0903 	add.w	r9, sl, r3
 8005a96:	68a3      	ldr	r3, [r4, #8]
 8005a98:	4680      	mov	r8, r0
 8005a9a:	4615      	mov	r5, r2
 8005a9c:	f109 0701 	add.w	r7, r9, #1
 8005aa0:	429f      	cmp	r7, r3
 8005aa2:	dd02      	ble.n	8005aaa <__lshift+0x26>
 8005aa4:	3101      	adds	r1, #1
 8005aa6:	005b      	lsls	r3, r3, #1
 8005aa8:	e7fa      	b.n	8005aa0 <__lshift+0x1c>
 8005aaa:	4640      	mov	r0, r8
 8005aac:	f7ff fe28 	bl	8005700 <_Balloc>
 8005ab0:	2300      	movs	r3, #0
 8005ab2:	4606      	mov	r6, r0
 8005ab4:	f100 0214 	add.w	r2, r0, #20
 8005ab8:	4553      	cmp	r3, sl
 8005aba:	da04      	bge.n	8005ac6 <__lshift+0x42>
 8005abc:	2100      	movs	r1, #0
 8005abe:	f842 1023 	str.w	r1, [r2, r3, lsl #2]
 8005ac2:	3301      	adds	r3, #1
 8005ac4:	e7f8      	b.n	8005ab8 <__lshift+0x34>
 8005ac6:	6920      	ldr	r0, [r4, #16]
 8005ac8:	ea2a 71ea 	bic.w	r1, sl, sl, asr #31
 8005acc:	f104 0314 	add.w	r3, r4, #20
 8005ad0:	f015 0c1f 	ands.w	ip, r5, #31
 8005ad4:	eb02 0181 	add.w	r1, r2, r1, lsl #2
 8005ad8:	eb03 0e80 	add.w	lr, r3, r0, lsl #2
 8005adc:	d016      	beq.n	8005b0c <__lshift+0x88>
 8005ade:	f1cc 0a20 	rsb	sl, ip, #32
 8005ae2:	2500      	movs	r5, #0
 8005ae4:	6818      	ldr	r0, [r3, #0]
 8005ae6:	460a      	mov	r2, r1
 8005ae8:	fa00 f00c 	lsl.w	r0, r0, ip
 8005aec:	4305      	orrs	r5, r0
 8005aee:	f842 5b04 	str.w	r5, [r2], #4
 8005af2:	f853 5b04 	ldr.w	r5, [r3], #4
 8005af6:	4573      	cmp	r3, lr
 8005af8:	fa25 f50a 	lsr.w	r5, r5, sl
 8005afc:	d201      	bcs.n	8005b02 <__lshift+0x7e>
 8005afe:	4611      	mov	r1, r2
 8005b00:	e7f0      	b.n	8005ae4 <__lshift+0x60>
 8005b02:	604d      	str	r5, [r1, #4]
 8005b04:	b145      	cbz	r5, 8005b18 <__lshift+0x94>
 8005b06:	f109 0702 	add.w	r7, r9, #2
 8005b0a:	e005      	b.n	8005b18 <__lshift+0x94>
 8005b0c:	f853 2b04 	ldr.w	r2, [r3], #4
 8005b10:	f841 2b04 	str.w	r2, [r1], #4
 8005b14:	4573      	cmp	r3, lr
 8005b16:	d3f9      	bcc.n	8005b0c <__lshift+0x88>
 8005b18:	3f01      	subs	r7, #1
 8005b1a:	4640      	mov	r0, r8
 8005b1c:	6137      	str	r7, [r6, #16]
 8005b1e:	4621      	mov	r1, r4
 8005b20:	f7ff fe23 	bl	800576a <_Bfree>
 8005b24:	4630      	mov	r0, r6
 8005b26:	e8bd 87f0 	ldmia.w	sp!, {r4, r5, r6, r7, r8, r9, sl, pc}

08005b2a <__mcmp>:
 8005b2a:	6902      	ldr	r2, [r0, #16]
 8005b2c:	690b      	ldr	r3, [r1, #16]
 8005b2e:	1ad2      	subs	r2, r2, r3
 8005b30:	b510      	push	{r4, lr}
 8005b32:	d113      	bne.n	8005b5c <__mcmp+0x32>
 8005b34:	009c      	lsls	r4, r3, #2
 8005b36:	3014      	adds	r0, #20
 8005b38:	f101 0214 	add.w	r2, r1, #20
 8005b3c:	1903      	adds	r3, r0, r4
 8005b3e:	4422      	add	r2, r4
 8005b40:	f853 4d04 	ldr.w	r4, [r3, #-4]!
 8005b44:	f852 1d04 	ldr.w	r1, [r2, #-4]!
 8005b48:	428c      	cmp	r4, r1
 8005b4a:	d003      	beq.n	8005b54 <__mcmp+0x2a>
 8005b4c:	d208      	bcs.n	8005b60 <__mcmp+0x36>
 8005b4e:	f04f 30ff 	mov.w	r0, #4294967295
 8005b52:	bd10      	pop	{r4, pc}
 8005b54:	4298      	cmp	r0, r3
 8005b56:	d3f3      	bcc.n	8005b40 <__mcmp+0x16>
 8005b58:	2000      	movs	r0, #0
 8005b5a:	bd10      	pop	{r4, pc}
 8005b5c:	4610      	mov	r0, r2
 8005b5e:	bd10      	pop	{r4, pc}
 8005b60:	2001      	movs	r0, #1
 8005b62:	bd10      	pop	{r4, pc}

08005b64 <__mdiff>:
 8005b64:	e92d 47f0 	stmdb	sp!, {r4, r5, r6, r7, r8, r9, sl, lr}
 8005b68:	4606      	mov	r6, r0
 8005b6a:	460c      	mov	r4, r1
 8005b6c:	4608      	mov	r0, r1
 8005b6e:	4611      	mov	r1, r2
 8005b70:	4615      	mov	r5, r2
 8005b72:	f7ff ffda 	bl	8005b2a <__mcmp>
 8005b76:	1e07      	subs	r7, r0, #0
 8005b78:	d108      	bne.n	8005b8c <__mdiff+0x28>
 8005b7a:	4630      	mov	r0, r6
 8005b7c:	4639      	mov	r1, r7
 8005b7e:	f7ff fdbf 	bl	8005700 <_Balloc>
 8005b82:	2301      	movs	r3, #1
 8005b84:	6103      	str	r3, [r0, #16]
 8005b86:	6147      	str	r7, [r0, #20]
 8005b88:	e8bd 87f0 	ldmia.w	sp!, {r4, r5, r6, r7, r8, r9, sl, pc}
 8005b8c:	db01      	blt.n	8005b92 <__mdiff+0x2e>
 8005b8e:	2700      	movs	r7, #0
 8005b90:	e003      	b.n	8005b9a <__mdiff+0x36>
 8005b92:	4623      	mov	r3, r4
 8005b94:	2701      	movs	r7, #1
 8005b96:	462c      	mov	r4, r5
 8005b98:	461d      	mov	r5, r3
 8005b9a:	6861      	ldr	r1, [r4, #4]
 8005b9c:	4630      	mov	r0, r6
 8005b9e:	f7ff fdaf 	bl	8005700 <_Balloc>
 8005ba2:	6922      	ldr	r2, [r4, #16]
 8005ba4:	692b      	ldr	r3, [r5, #16]
 8005ba6:	60c7      	str	r7, [r0, #12]
 8005ba8:	3414      	adds	r4, #20
 8005baa:	f105 0614 	add.w	r6, r5, #20
 8005bae:	eb06 0a83 	add.w	sl, r6, r3, lsl #2
 8005bb2:	eb04 0c82 	add.w	ip, r4, r2, lsl #2
 8005bb6:	f100 0314 	add.w	r3, r0, #20
 8005bba:	2100      	movs	r1, #0
 8005bbc:	f854 7b04 	ldr.w	r7, [r4], #4
 8005bc0:	f856 9b04 	ldr.w	r9, [r6], #4
 8005bc4:	fa11 f187 	uxtah	r1, r1, r7
 8005bc8:	fa1f f589 	uxth.w	r5, r9
 8005bcc:	ea4f 4919 	mov.w	r9, r9, lsr #16
 8005bd0:	ebc5 0801 	rsb	r8, r5, r1
 8005bd4:	ebc9 4717 	rsb	r7, r9, r7, lsr #16
 8005bd8:	eb07 4728 	add.w	r7, r7, r8, asr #16
 8005bdc:	fa1f f888 	uxth.w	r8, r8
 8005be0:	1439      	asrs	r1, r7, #16
 8005be2:	45b2      	cmp	sl, r6
 8005be4:	ea48 4707 	orr.w	r7, r8, r7, lsl #16
 8005be8:	4625      	mov	r5, r4
 8005bea:	f843 7b04 	str.w	r7, [r3], #4
 8005bee:	d8e5      	bhi.n	8005bbc <__mdiff+0x58>
 8005bf0:	4565      	cmp	r5, ip
 8005bf2:	d20d      	bcs.n	8005c10 <__mdiff+0xac>
 8005bf4:	f855 4b04 	ldr.w	r4, [r5], #4
 8005bf8:	fa11 f684 	uxtah	r6, r1, r4
 8005bfc:	0c24      	lsrs	r4, r4, #16
 8005bfe:	eb04 4426 	add.w	r4, r4, r6, asr #16
 8005c02:	b2b6      	uxth	r6, r6
 8005c04:	1421      	asrs	r1, r4, #16
 8005c06:	ea46 4404 	orr.w	r4, r6, r4, lsl #16
 8005c0a:	f843 4b04 	str.w	r4, [r3], #4
 8005c0e:	e7ef      	b.n	8005bf0 <__mdiff+0x8c>
 8005c10:	f853 1d04 	ldr.w	r1, [r3, #-4]!
 8005c14:	b909      	cbnz	r1, 8005c1a <__mdiff+0xb6>
 8005c16:	3a01      	subs	r2, #1
 8005c18:	e7fa      	b.n	8005c10 <__mdiff+0xac>
 8005c1a:	6102      	str	r2, [r0, #16]
 8005c1c:	e8bd 87f0 	ldmia.w	sp!, {r4, r5, r6, r7, r8, r9, sl, pc}

08005c20 <__d2b>:
 8005c20:	e92d 43f7 	stmdb	sp!, {r0, r1, r2, r4, r5, r6, r7, r8, r9, lr}
 8005c24:	4689      	mov	r9, r1
 8005c26:	2101      	movs	r1, #1
 8005c28:	ec55 4b10 	vmov	r4, r5, d0
 8005c2c:	4690      	mov	r8, r2
 8005c2e:	f7ff fd67 	bl	8005700 <_Balloc>
 8005c32:	f3c5 570a 	ubfx	r7, r5, #20, #11
 8005c36:	4606      	mov	r6, r0
 8005c38:	f3c5 0313 	ubfx	r3, r5, #0, #20
 8005c3c:	b10f      	cbz	r7, 8005c42 <__d2b+0x22>
 8005c3e:	f443 1380 	orr.w	r3, r3, #1048576	; 0x100000
 8005c42:	9301      	str	r3, [sp, #4]
 8005c44:	b1d4      	cbz	r4, 8005c7c <__d2b+0x5c>
 8005c46:	a802      	add	r0, sp, #8
 8005c48:	f840 4d08 	str.w	r4, [r0, #-8]!
 8005c4c:	4668      	mov	r0, sp
 8005c4e:	f7ff fdfd 	bl	800584c <__lo0bits>
 8005c52:	9b00      	ldr	r3, [sp, #0]
 8005c54:	b148      	cbz	r0, 8005c6a <__d2b+0x4a>
 8005c56:	9a01      	ldr	r2, [sp, #4]
 8005c58:	f1c0 0120 	rsb	r1, r0, #32
 8005c5c:	fa02 f101 	lsl.w	r1, r2, r1
 8005c60:	430b      	orrs	r3, r1
 8005c62:	40c2      	lsrs	r2, r0
 8005c64:	6173      	str	r3, [r6, #20]
 8005c66:	9201      	str	r2, [sp, #4]
 8005c68:	e000      	b.n	8005c6c <__d2b+0x4c>
 8005c6a:	6173      	str	r3, [r6, #20]
 8005c6c:	9b01      	ldr	r3, [sp, #4]
 8005c6e:	61b3      	str	r3, [r6, #24]
 8005c70:	2b00      	cmp	r3, #0
 8005c72:	bf0c      	ite	eq
 8005c74:	2401      	moveq	r4, #1
 8005c76:	2402      	movne	r4, #2
 8005c78:	6134      	str	r4, [r6, #16]
 8005c7a:	e007      	b.n	8005c8c <__d2b+0x6c>
 8005c7c:	a801      	add	r0, sp, #4
 8005c7e:	f7ff fde5 	bl	800584c <__lo0bits>
 8005c82:	2401      	movs	r4, #1
 8005c84:	9b01      	ldr	r3, [sp, #4]
 8005c86:	6173      	str	r3, [r6, #20]
 8005c88:	6134      	str	r4, [r6, #16]
 8005c8a:	3020      	adds	r0, #32
 8005c8c:	b13f      	cbz	r7, 8005c9e <__d2b+0x7e>
 8005c8e:	f2a7 4733 	subw	r7, r7, #1075	; 0x433
 8005c92:	4407      	add	r7, r0
 8005c94:	f8c9 7000 	str.w	r7, [r9]
 8005c98:	f1c0 0035 	rsb	r0, r0, #53	; 0x35
 8005c9c:	e00a      	b.n	8005cb4 <__d2b+0x94>
 8005c9e:	eb06 0384 	add.w	r3, r6, r4, lsl #2
 8005ca2:	f2a0 4032 	subw	r0, r0, #1074	; 0x432
 8005ca6:	f8c9 0000 	str.w	r0, [r9]
 8005caa:	6918      	ldr	r0, [r3, #16]
 8005cac:	f7ff fdae 	bl	800580c <__hi0bits>
 8005cb0:	ebc0 1044 	rsb	r0, r0, r4, lsl #5
 8005cb4:	f8c8 0000 	str.w	r0, [r8]
 8005cb8:	4630      	mov	r0, r6
 8005cba:	b003      	add	sp, #12
 8005cbc:	e8bd 83f0 	ldmia.w	sp!, {r4, r5, r6, r7, r8, r9, pc}

08005cc0 <__fpclassifyd>:
 8005cc0:	ec51 0b10 	vmov	r0, r1, d0
 8005cc4:	f031 4300 	bics.w	r3, r1, #2147483648	; 0x80000000
 8005cc8:	b510      	push	{r4, lr}
 8005cca:	d100      	bne.n	8005cce <__fpclassifyd+0xe>
 8005ccc:	b178      	cbz	r0, 8005cee <__fpclassifyd+0x2e>
 8005cce:	4a0c      	ldr	r2, [pc, #48]	; (8005d00 <__fpclassifyd+0x40>)
 8005cd0:	f5a3 1480 	sub.w	r4, r3, #1048576	; 0x100000
 8005cd4:	4294      	cmp	r4, r2
 8005cd6:	d90c      	bls.n	8005cf2 <__fpclassifyd+0x32>
 8005cd8:	f5b3 1f80 	cmp.w	r3, #1048576	; 0x100000
 8005cdc:	d30b      	bcc.n	8005cf6 <__fpclassifyd+0x36>
 8005cde:	4a09      	ldr	r2, [pc, #36]	; (8005d04 <__fpclassifyd+0x44>)
 8005ce0:	4293      	cmp	r3, r2
 8005ce2:	d10a      	bne.n	8005cfa <__fpclassifyd+0x3a>
 8005ce4:	f1d0 0001 	rsbs	r0, r0, #1
 8005ce8:	bf38      	it	cc
 8005cea:	2000      	movcc	r0, #0
 8005cec:	bd10      	pop	{r4, pc}
 8005cee:	2002      	movs	r0, #2
 8005cf0:	bd10      	pop	{r4, pc}
 8005cf2:	2004      	movs	r0, #4
 8005cf4:	bd10      	pop	{r4, pc}
 8005cf6:	2003      	movs	r0, #3
 8005cf8:	bd10      	pop	{r4, pc}
 8005cfa:	2000      	movs	r0, #0
 8005cfc:	bd10      	pop	{r4, pc}
 8005cfe:	bf00      	nop
 8005d00:	7fdfffff 	.word	0x7fdfffff
 8005d04:	7ff00000 	.word	0x7ff00000

08005d08 <_sbrk_r>:
 8005d08:	b538      	push	{r3, r4, r5, lr}
 8005d0a:	4c06      	ldr	r4, [pc, #24]	; (8005d24 <_sbrk_r+0x1c>)
 8005d0c:	2300      	movs	r3, #0
 8005d0e:	4605      	mov	r5, r0
 8005d10:	4608      	mov	r0, r1
 8005d12:	6023      	str	r3, [r4, #0]
 8005d14:	f000 f88a 	bl	8005e2c <_sbrk>
 8005d18:	1c43      	adds	r3, r0, #1
 8005d1a:	d102      	bne.n	8005d22 <_sbrk_r+0x1a>
 8005d1c:	6823      	ldr	r3, [r4, #0]
 8005d1e:	b103      	cbz	r3, 8005d22 <_sbrk_r+0x1a>
 8005d20:	602b      	str	r3, [r5, #0]
 8005d22:	bd38      	pop	{r3, r4, r5, pc}
 8005d24:	20000768 	.word	0x20000768

08005d28 <strlen>:
 8005d28:	4603      	mov	r3, r0
 8005d2a:	f813 2b01 	ldrb.w	r2, [r3], #1
 8005d2e:	2a00      	cmp	r2, #0
 8005d30:	d1fb      	bne.n	8005d2a <strlen+0x2>
 8005d32:	1a18      	subs	r0, r3, r0
 8005d34:	3801      	subs	r0, #1
 8005d36:	4770      	bx	lr

08005d38 <__ssprint_r>:
 8005d38:	e92d 4ff7 	stmdb	sp!, {r0, r1, r2, r4, r5, r6, r7, r8, r9, sl, fp, lr}
 8005d3c:	4680      	mov	r8, r0
 8005d3e:	6890      	ldr	r0, [r2, #8]
 8005d40:	f8d2 9000 	ldr.w	r9, [r2]
 8005d44:	460c      	mov	r4, r1
 8005d46:	4615      	mov	r5, r2
 8005d48:	b118      	cbz	r0, 8005d52 <__ssprint_r+0x1a>
 8005d4a:	2300      	movs	r3, #0
 8005d4c:	9301      	str	r3, [sp, #4]
 8005d4e:	461e      	mov	r6, r3
 8005d50:	e008      	b.n	8005d64 <__ssprint_r+0x2c>
 8005d52:	6050      	str	r0, [r2, #4]
 8005d54:	e066      	b.n	8005e24 <__ssprint_r+0xec>
 8005d56:	f8d9 3000 	ldr.w	r3, [r9]
 8005d5a:	f8d9 6004 	ldr.w	r6, [r9, #4]
 8005d5e:	9301      	str	r3, [sp, #4]
 8005d60:	f109 0908 	add.w	r9, r9, #8
 8005d64:	2e00      	cmp	r6, #0
 8005d66:	d0f6      	beq.n	8005d56 <__ssprint_r+0x1e>
 8005d68:	68a7      	ldr	r7, [r4, #8]
 8005d6a:	42be      	cmp	r6, r7
 8005d6c:	d347      	bcc.n	8005dfe <__ssprint_r+0xc6>
 8005d6e:	89a2      	ldrh	r2, [r4, #12]
 8005d70:	f412 6f90 	tst.w	r2, #1152	; 0x480
 8005d74:	d041      	beq.n	8005dfa <__ssprint_r+0xc2>
 8005d76:	6823      	ldr	r3, [r4, #0]
 8005d78:	6921      	ldr	r1, [r4, #16]
 8005d7a:	ebc1 0a03 	rsb	sl, r1, r3
 8005d7e:	6963      	ldr	r3, [r4, #20]
 8005d80:	2002      	movs	r0, #2
 8005d82:	eb03 0343 	add.w	r3, r3, r3, lsl #1
 8005d86:	fb93 fbf0 	sdiv	fp, r3, r0
 8005d8a:	f10a 0001 	add.w	r0, sl, #1
 8005d8e:	4430      	add	r0, r6
 8005d90:	4583      	cmp	fp, r0
 8005d92:	bf38      	it	cc
 8005d94:	4683      	movcc	fp, r0
 8005d96:	0553      	lsls	r3, r2, #21
 8005d98:	4640      	mov	r0, r8
 8005d9a:	d50f      	bpl.n	8005dbc <__ssprint_r+0x84>
 8005d9c:	4659      	mov	r1, fp
 8005d9e:	f7ff fa83 	bl	80052a8 <_malloc_r>
 8005da2:	4607      	mov	r7, r0
 8005da4:	b198      	cbz	r0, 8005dce <__ssprint_r+0x96>
 8005da6:	4652      	mov	r2, sl
 8005da8:	6921      	ldr	r1, [r4, #16]
 8005daa:	f7ff fc9e 	bl	80056ea <memcpy>
 8005dae:	89a2      	ldrh	r2, [r4, #12]
 8005db0:	f422 6290 	bic.w	r2, r2, #1152	; 0x480
 8005db4:	f042 0280 	orr.w	r2, r2, #128	; 0x80
 8005db8:	81a2      	strh	r2, [r4, #12]
 8005dba:	e015      	b.n	8005de8 <__ssprint_r+0xb0>
 8005dbc:	465a      	mov	r2, fp
 8005dbe:	f000 f9ad 	bl	800611c <_realloc_r>
 8005dc2:	4607      	mov	r7, r0
 8005dc4:	b980      	cbnz	r0, 8005de8 <__ssprint_r+0xb0>
 8005dc6:	4640      	mov	r0, r8
 8005dc8:	6921      	ldr	r1, [r4, #16]
 8005dca:	f000 f8cb 	bl	8005f64 <_free_r>
 8005dce:	230c      	movs	r3, #12
 8005dd0:	f8c8 3000 	str.w	r3, [r8]
 8005dd4:	89a3      	ldrh	r3, [r4, #12]
 8005dd6:	f043 0340 	orr.w	r3, r3, #64	; 0x40
 8005dda:	81a3      	strh	r3, [r4, #12]
 8005ddc:	2300      	movs	r3, #0
 8005dde:	60ab      	str	r3, [r5, #8]
 8005de0:	606b      	str	r3, [r5, #4]
 8005de2:	f04f 30ff 	mov.w	r0, #4294967295
 8005de6:	e01d      	b.n	8005e24 <__ssprint_r+0xec>
 8005de8:	6127      	str	r7, [r4, #16]
 8005dea:	ebca 030b 	rsb	r3, sl, fp
 8005dee:	4457      	add	r7, sl
 8005df0:	6027      	str	r7, [r4, #0]
 8005df2:	f8c4 b014 	str.w	fp, [r4, #20]
 8005df6:	4637      	mov	r7, r6
 8005df8:	60a3      	str	r3, [r4, #8]
 8005dfa:	42be      	cmp	r6, r7
 8005dfc:	d200      	bcs.n	8005e00 <__ssprint_r+0xc8>
 8005dfe:	4637      	mov	r7, r6
 8005e00:	463a      	mov	r2, r7
 8005e02:	6820      	ldr	r0, [r4, #0]
 8005e04:	9901      	ldr	r1, [sp, #4]
 8005e06:	f000 f965 	bl	80060d4 <memmove>
 8005e0a:	68a3      	ldr	r3, [r4, #8]
 8005e0c:	1bdb      	subs	r3, r3, r7
 8005e0e:	60a3      	str	r3, [r4, #8]
 8005e10:	6823      	ldr	r3, [r4, #0]
 8005e12:	441f      	add	r7, r3
 8005e14:	68ab      	ldr	r3, [r5, #8]
 8005e16:	6027      	str	r7, [r4, #0]
 8005e18:	1b9e      	subs	r6, r3, r6
 8005e1a:	60ae      	str	r6, [r5, #8]
 8005e1c:	2e00      	cmp	r6, #0
 8005e1e:	d19a      	bne.n	8005d56 <__ssprint_r+0x1e>
 8005e20:	606e      	str	r6, [r5, #4]
 8005e22:	4630      	mov	r0, r6
 8005e24:	b003      	add	sp, #12
 8005e26:	e8bd 8ff0 	ldmia.w	sp!, {r4, r5, r6, r7, r8, r9, sl, fp, pc}
	...

08005e2c <_sbrk>:
 8005e2c:	4b09      	ldr	r3, [pc, #36]	; (8005e54 <_sbrk+0x28>)
 8005e2e:	681a      	ldr	r2, [r3, #0]
 8005e30:	b90a      	cbnz	r2, 8005e36 <_sbrk+0xa>
 8005e32:	4a09      	ldr	r2, [pc, #36]	; (8005e58 <_sbrk+0x2c>)
 8005e34:	601a      	str	r2, [r3, #0]
 8005e36:	681b      	ldr	r3, [r3, #0]
 8005e38:	466a      	mov	r2, sp
 8005e3a:	4418      	add	r0, r3
 8005e3c:	4290      	cmp	r0, r2
 8005e3e:	d905      	bls.n	8005e4c <_sbrk+0x20>
 8005e40:	4b06      	ldr	r3, [pc, #24]	; (8005e5c <_sbrk+0x30>)
 8005e42:	220c      	movs	r2, #12
 8005e44:	601a      	str	r2, [r3, #0]
 8005e46:	f04f 30ff 	mov.w	r0, #4294967295
 8005e4a:	4770      	bx	lr
 8005e4c:	4a01      	ldr	r2, [pc, #4]	; (8005e54 <_sbrk+0x28>)
 8005e4e:	6010      	str	r0, [r2, #0]
 8005e50:	4618      	mov	r0, r3
 8005e52:	4770      	bx	lr
 8005e54:	2000059c 	.word	0x2000059c
 8005e58:	2000076c 	.word	0x2000076c
 8005e5c:	20000768 	.word	0x20000768

08005e60 <_calloc_r>:
 8005e60:	b510      	push	{r4, lr}
 8005e62:	4351      	muls	r1, r2
 8005e64:	f7ff fa20 	bl	80052a8 <_malloc_r>
 8005e68:	4604      	mov	r4, r0
 8005e6a:	b320      	cbz	r0, 8005eb6 <_calloc_r+0x56>
 8005e6c:	f850 2c04 	ldr.w	r2, [r0, #-4]
 8005e70:	f022 0203 	bic.w	r2, r2, #3
 8005e74:	3a04      	subs	r2, #4
 8005e76:	2a24      	cmp	r2, #36	; 0x24
 8005e78:	d81a      	bhi.n	8005eb0 <_calloc_r+0x50>
 8005e7a:	2a13      	cmp	r2, #19
 8005e7c:	d912      	bls.n	8005ea4 <_calloc_r+0x44>
 8005e7e:	2100      	movs	r1, #0
 8005e80:	2a1b      	cmp	r2, #27
 8005e82:	6001      	str	r1, [r0, #0]
 8005e84:	6041      	str	r1, [r0, #4]
 8005e86:	d802      	bhi.n	8005e8e <_calloc_r+0x2e>
 8005e88:	f100 0308 	add.w	r3, r0, #8
 8005e8c:	e00b      	b.n	8005ea6 <_calloc_r+0x46>
 8005e8e:	2a24      	cmp	r2, #36	; 0x24
 8005e90:	6081      	str	r1, [r0, #8]
 8005e92:	60c1      	str	r1, [r0, #12]
 8005e94:	bf11      	iteee	ne
 8005e96:	f100 0310 	addne.w	r3, r0, #16
 8005e9a:	6101      	streq	r1, [r0, #16]
 8005e9c:	f100 0318 	addeq.w	r3, r0, #24
 8005ea0:	6141      	streq	r1, [r0, #20]
 8005ea2:	e000      	b.n	8005ea6 <_calloc_r+0x46>
 8005ea4:	4603      	mov	r3, r0
 8005ea6:	2200      	movs	r2, #0
 8005ea8:	601a      	str	r2, [r3, #0]
 8005eaa:	605a      	str	r2, [r3, #4]
 8005eac:	609a      	str	r2, [r3, #8]
 8005eae:	e002      	b.n	8005eb6 <_calloc_r+0x56>
 8005eb0:	2100      	movs	r1, #0
 8005eb2:	f000 f92a 	bl	800610a <memset>
 8005eb6:	4620      	mov	r0, r4
 8005eb8:	bd10      	pop	{r4, pc}
	...

08005ebc <_malloc_trim_r>:
 8005ebc:	e92d 41f0 	stmdb	sp!, {r4, r5, r6, r7, r8, lr}
 8005ec0:	4d24      	ldr	r5, [pc, #144]	; (8005f54 <_malloc_trim_r+0x98>)
 8005ec2:	4f25      	ldr	r7, [pc, #148]	; (8005f58 <_malloc_trim_r+0x9c>)
 8005ec4:	460e      	mov	r6, r1
 8005ec6:	4604      	mov	r4, r0
 8005ec8:	f7ff fc18 	bl	80056fc <__malloc_lock>
 8005ecc:	68ab      	ldr	r3, [r5, #8]
 8005ece:	685b      	ldr	r3, [r3, #4]
 8005ed0:	f023 0803 	bic.w	r8, r3, #3
 8005ed4:	f1a7 0311 	sub.w	r3, r7, #17
 8005ed8:	4443      	add	r3, r8
 8005eda:	1b9e      	subs	r6, r3, r6
 8005edc:	fbb6 f6f7 	udiv	r6, r6, r7
 8005ee0:	3e01      	subs	r6, #1
 8005ee2:	437e      	muls	r6, r7
 8005ee4:	42be      	cmp	r6, r7
 8005ee6:	da05      	bge.n	8005ef4 <_malloc_trim_r+0x38>
 8005ee8:	4620      	mov	r0, r4
 8005eea:	f7ff fc08 	bl	80056fe <__malloc_unlock>
 8005eee:	2000      	movs	r0, #0
 8005ef0:	e8bd 81f0 	ldmia.w	sp!, {r4, r5, r6, r7, r8, pc}
 8005ef4:	4620      	mov	r0, r4
 8005ef6:	2100      	movs	r1, #0
 8005ef8:	f7ff ff06 	bl	8005d08 <_sbrk_r>
 8005efc:	68ab      	ldr	r3, [r5, #8]
 8005efe:	4443      	add	r3, r8
 8005f00:	4298      	cmp	r0, r3
 8005f02:	d1f1      	bne.n	8005ee8 <_malloc_trim_r+0x2c>
 8005f04:	4620      	mov	r0, r4
 8005f06:	4271      	negs	r1, r6
 8005f08:	f7ff fefe 	bl	8005d08 <_sbrk_r>
 8005f0c:	3001      	adds	r0, #1
 8005f0e:	d110      	bne.n	8005f32 <_malloc_trim_r+0x76>
 8005f10:	4620      	mov	r0, r4
 8005f12:	2100      	movs	r1, #0
 8005f14:	f7ff fef8 	bl	8005d08 <_sbrk_r>
 8005f18:	68ab      	ldr	r3, [r5, #8]
 8005f1a:	1ac2      	subs	r2, r0, r3
 8005f1c:	2a0f      	cmp	r2, #15
 8005f1e:	dde3      	ble.n	8005ee8 <_malloc_trim_r+0x2c>
 8005f20:	490e      	ldr	r1, [pc, #56]	; (8005f5c <_malloc_trim_r+0xa0>)
 8005f22:	6809      	ldr	r1, [r1, #0]
 8005f24:	1a40      	subs	r0, r0, r1
 8005f26:	490e      	ldr	r1, [pc, #56]	; (8005f60 <_malloc_trim_r+0xa4>)
 8005f28:	f042 0201 	orr.w	r2, r2, #1
 8005f2c:	6008      	str	r0, [r1, #0]
 8005f2e:	605a      	str	r2, [r3, #4]
 8005f30:	e7da      	b.n	8005ee8 <_malloc_trim_r+0x2c>
 8005f32:	68ab      	ldr	r3, [r5, #8]
 8005f34:	ebc6 0808 	rsb	r8, r6, r8
 8005f38:	f048 0201 	orr.w	r2, r8, #1
 8005f3c:	605a      	str	r2, [r3, #4]
 8005f3e:	4b08      	ldr	r3, [pc, #32]	; (8005f60 <_malloc_trim_r+0xa4>)
 8005f40:	681a      	ldr	r2, [r3, #0]
 8005f42:	4620      	mov	r0, r4
 8005f44:	1b96      	subs	r6, r2, r6
 8005f46:	601e      	str	r6, [r3, #0]
 8005f48:	f7ff fbd9 	bl	80056fe <__malloc_unlock>
 8005f4c:	2001      	movs	r0, #1
 8005f4e:	e8bd 81f0 	ldmia.w	sp!, {r4, r5, r6, r7, r8, pc}
 8005f52:	bf00      	nop
 8005f54:	20000130 	.word	0x20000130
 8005f58:	00001000 	.word	0x00001000
 8005f5c:	2000053c 	.word	0x2000053c
 8005f60:	20000574 	.word	0x20000574

08005f64 <_free_r>:
 8005f64:	b5f8      	push	{r3, r4, r5, r6, r7, lr}
 8005f66:	4606      	mov	r6, r0
 8005f68:	460d      	mov	r5, r1
 8005f6a:	2900      	cmp	r1, #0
 8005f6c:	f000 80a9 	beq.w	80060c2 <_free_r+0x15e>
 8005f70:	f7ff fbc4 	bl	80056fc <__malloc_lock>
 8005f74:	f855 cc04 	ldr.w	ip, [r5, #-4]
 8005f78:	4c52      	ldr	r4, [pc, #328]	; (80060c4 <_free_r+0x160>)
 8005f7a:	f1a5 0308 	sub.w	r3, r5, #8
 8005f7e:	f02c 0201 	bic.w	r2, ip, #1
 8005f82:	1898      	adds	r0, r3, r2
 8005f84:	68a1      	ldr	r1, [r4, #8]
 8005f86:	6847      	ldr	r7, [r0, #4]
 8005f88:	4288      	cmp	r0, r1
 8005f8a:	f027 0703 	bic.w	r7, r7, #3
 8005f8e:	f00c 0101 	and.w	r1, ip, #1
 8005f92:	d11b      	bne.n	8005fcc <_free_r+0x68>
 8005f94:	443a      	add	r2, r7
 8005f96:	b939      	cbnz	r1, 8005fa8 <_free_r+0x44>
 8005f98:	f855 1c08 	ldr.w	r1, [r5, #-8]
 8005f9c:	1a5b      	subs	r3, r3, r1
 8005f9e:	440a      	add	r2, r1
 8005fa0:	6898      	ldr	r0, [r3, #8]
 8005fa2:	68d9      	ldr	r1, [r3, #12]
 8005fa4:	60c1      	str	r1, [r0, #12]
 8005fa6:	6088      	str	r0, [r1, #8]
 8005fa8:	f042 0101 	orr.w	r1, r2, #1
 8005fac:	6059      	str	r1, [r3, #4]
 8005fae:	60a3      	str	r3, [r4, #8]
 8005fb0:	4b45      	ldr	r3, [pc, #276]	; (80060c8 <_free_r+0x164>)
 8005fb2:	681b      	ldr	r3, [r3, #0]
 8005fb4:	429a      	cmp	r2, r3
 8005fb6:	d304      	bcc.n	8005fc2 <_free_r+0x5e>
 8005fb8:	4b44      	ldr	r3, [pc, #272]	; (80060cc <_free_r+0x168>)
 8005fba:	4630      	mov	r0, r6
 8005fbc:	6819      	ldr	r1, [r3, #0]
 8005fbe:	f7ff ff7d 	bl	8005ebc <_malloc_trim_r>
 8005fc2:	4630      	mov	r0, r6
 8005fc4:	e8bd 40f8 	ldmia.w	sp!, {r3, r4, r5, r6, r7, lr}
 8005fc8:	f7ff bb99 	b.w	80056fe <__malloc_unlock>
 8005fcc:	6047      	str	r7, [r0, #4]
 8005fce:	b979      	cbnz	r1, 8005ff0 <_free_r+0x8c>
 8005fd0:	f855 5c08 	ldr.w	r5, [r5, #-8]
 8005fd4:	1b5b      	subs	r3, r3, r5
 8005fd6:	442a      	add	r2, r5
 8005fd8:	689d      	ldr	r5, [r3, #8]
 8005fda:	f104 0c08 	add.w	ip, r4, #8
 8005fde:	4565      	cmp	r5, ip
 8005fe0:	d008      	beq.n	8005ff4 <_free_r+0x90>
 8005fe2:	f8d3 c00c 	ldr.w	ip, [r3, #12]
 8005fe6:	f8c5 c00c 	str.w	ip, [r5, #12]
 8005fea:	f8cc 5008 	str.w	r5, [ip, #8]
 8005fee:	e002      	b.n	8005ff6 <_free_r+0x92>
 8005ff0:	2100      	movs	r1, #0
 8005ff2:	e000      	b.n	8005ff6 <_free_r+0x92>
 8005ff4:	2101      	movs	r1, #1
 8005ff6:	19c5      	adds	r5, r0, r7
 8005ff8:	686d      	ldr	r5, [r5, #4]
 8005ffa:	07ed      	lsls	r5, r5, #31
 8005ffc:	d40e      	bmi.n	800601c <_free_r+0xb8>
 8005ffe:	443a      	add	r2, r7
 8006000:	6885      	ldr	r5, [r0, #8]
 8006002:	b941      	cbnz	r1, 8006016 <_free_r+0xb2>
 8006004:	4f32      	ldr	r7, [pc, #200]	; (80060d0 <_free_r+0x16c>)
 8006006:	42bd      	cmp	r5, r7
 8006008:	d105      	bne.n	8006016 <_free_r+0xb2>
 800600a:	6163      	str	r3, [r4, #20]
 800600c:	6123      	str	r3, [r4, #16]
 800600e:	2101      	movs	r1, #1
 8006010:	60dd      	str	r5, [r3, #12]
 8006012:	609d      	str	r5, [r3, #8]
 8006014:	e002      	b.n	800601c <_free_r+0xb8>
 8006016:	68c0      	ldr	r0, [r0, #12]
 8006018:	60e8      	str	r0, [r5, #12]
 800601a:	6085      	str	r5, [r0, #8]
 800601c:	f042 0001 	orr.w	r0, r2, #1
 8006020:	6058      	str	r0, [r3, #4]
 8006022:	509a      	str	r2, [r3, r2]
 8006024:	2900      	cmp	r1, #0
 8006026:	d1cc      	bne.n	8005fc2 <_free_r+0x5e>
 8006028:	f5b2 7f00 	cmp.w	r2, #512	; 0x200
 800602c:	d20e      	bcs.n	800604c <_free_r+0xe8>
 800602e:	08d2      	lsrs	r2, r2, #3
 8006030:	1091      	asrs	r1, r2, #2
 8006032:	2001      	movs	r0, #1
 8006034:	4088      	lsls	r0, r1
 8006036:	6861      	ldr	r1, [r4, #4]
 8006038:	4301      	orrs	r1, r0
 800603a:	6061      	str	r1, [r4, #4]
 800603c:	eb04 04c2 	add.w	r4, r4, r2, lsl #3
 8006040:	68a2      	ldr	r2, [r4, #8]
 8006042:	609a      	str	r2, [r3, #8]
 8006044:	60dc      	str	r4, [r3, #12]
 8006046:	60a3      	str	r3, [r4, #8]
 8006048:	60d3      	str	r3, [r2, #12]
 800604a:	e7ba      	b.n	8005fc2 <_free_r+0x5e>
 800604c:	0a51      	lsrs	r1, r2, #9
 800604e:	2904      	cmp	r1, #4
 8006050:	d802      	bhi.n	8006058 <_free_r+0xf4>
 8006052:	0991      	lsrs	r1, r2, #6
 8006054:	3138      	adds	r1, #56	; 0x38
 8006056:	e015      	b.n	8006084 <_free_r+0x120>
 8006058:	2914      	cmp	r1, #20
 800605a:	d801      	bhi.n	8006060 <_free_r+0xfc>
 800605c:	315b      	adds	r1, #91	; 0x5b
 800605e:	e011      	b.n	8006084 <_free_r+0x120>
 8006060:	2954      	cmp	r1, #84	; 0x54
 8006062:	d802      	bhi.n	800606a <_free_r+0x106>
 8006064:	0b11      	lsrs	r1, r2, #12
 8006066:	316e      	adds	r1, #110	; 0x6e
 8006068:	e00c      	b.n	8006084 <_free_r+0x120>
 800606a:	f5b1 7faa 	cmp.w	r1, #340	; 0x154
 800606e:	d802      	bhi.n	8006076 <_free_r+0x112>
 8006070:	0bd1      	lsrs	r1, r2, #15
 8006072:	3177      	adds	r1, #119	; 0x77
 8006074:	e006      	b.n	8006084 <_free_r+0x120>
 8006076:	f240 5054 	movw	r0, #1364	; 0x554
 800607a:	4281      	cmp	r1, r0
 800607c:	bf9a      	itte	ls
 800607e:	0c91      	lsrls	r1, r2, #18
 8006080:	317c      	addls	r1, #124	; 0x7c
 8006082:	217e      	movhi	r1, #126	; 0x7e
 8006084:	eb04 04c1 	add.w	r4, r4, r1, lsl #3
 8006088:	480e      	ldr	r0, [pc, #56]	; (80060c4 <_free_r+0x160>)
 800608a:	68a5      	ldr	r5, [r4, #8]
 800608c:	42a5      	cmp	r5, r4
 800608e:	d001      	beq.n	8006094 <_free_r+0x130>
 8006090:	4629      	mov	r1, r5
 8006092:	e00b      	b.n	80060ac <_free_r+0x148>
 8006094:	2201      	movs	r2, #1
 8006096:	1089      	asrs	r1, r1, #2
 8006098:	fa02 f101 	lsl.w	r1, r2, r1
 800609c:	6842      	ldr	r2, [r0, #4]
 800609e:	430a      	orrs	r2, r1
 80060a0:	6042      	str	r2, [r0, #4]
 80060a2:	4629      	mov	r1, r5
 80060a4:	e008      	b.n	80060b8 <_free_r+0x154>
 80060a6:	6889      	ldr	r1, [r1, #8]
 80060a8:	42a1      	cmp	r1, r4
 80060aa:	d004      	beq.n	80060b6 <_free_r+0x152>
 80060ac:	6848      	ldr	r0, [r1, #4]
 80060ae:	f020 0003 	bic.w	r0, r0, #3
 80060b2:	4282      	cmp	r2, r0
 80060b4:	d3f7      	bcc.n	80060a6 <_free_r+0x142>
 80060b6:	68cd      	ldr	r5, [r1, #12]
 80060b8:	60dd      	str	r5, [r3, #12]
 80060ba:	6099      	str	r1, [r3, #8]
 80060bc:	60ab      	str	r3, [r5, #8]
 80060be:	60cb      	str	r3, [r1, #12]
 80060c0:	e77f      	b.n	8005fc2 <_free_r+0x5e>
 80060c2:	bdf8      	pop	{r3, r4, r5, r6, r7, pc}
 80060c4:	20000130 	.word	0x20000130
 80060c8:	20000538 	.word	0x20000538
 80060cc:	20000570 	.word	0x20000570
 80060d0:	20000138 	.word	0x20000138

080060d4 <memmove>:
 80060d4:	4281      	cmp	r1, r0
 80060d6:	b570      	push	{r4, r5, r6, lr}
 80060d8:	d301      	bcc.n	80060de <memmove+0xa>
 80060da:	2300      	movs	r3, #0
 80060dc:	e00e      	b.n	80060fc <memmove+0x28>
 80060de:	188c      	adds	r4, r1, r2
 80060e0:	42a0      	cmp	r0, r4
 80060e2:	d2fa      	bcs.n	80060da <memmove+0x6>
 80060e4:	1885      	adds	r5, r0, r2
 80060e6:	4613      	mov	r3, r2
 80060e8:	f113 33ff 	adds.w	r3, r3, #4294967295
 80060ec:	d305      	bcc.n	80060fa <memmove+0x26>
 80060ee:	4251      	negs	r1, r2
 80060f0:	1866      	adds	r6, r4, r1
 80060f2:	4429      	add	r1, r5
 80060f4:	5cf6      	ldrb	r6, [r6, r3]
 80060f6:	54ce      	strb	r6, [r1, r3]
 80060f8:	e7f6      	b.n	80060e8 <memmove+0x14>
 80060fa:	bd70      	pop	{r4, r5, r6, pc}
 80060fc:	4293      	cmp	r3, r2
 80060fe:	d003      	beq.n	8006108 <memmove+0x34>
 8006100:	5ccc      	ldrb	r4, [r1, r3]
 8006102:	54c4      	strb	r4, [r0, r3]
 8006104:	3301      	adds	r3, #1
 8006106:	e7f9      	b.n	80060fc <memmove+0x28>
 8006108:	bd70      	pop	{r4, r5, r6, pc}

0800610a <memset>:
 800610a:	4402      	add	r2, r0
 800610c:	4603      	mov	r3, r0
 800610e:	4293      	cmp	r3, r2
 8006110:	d002      	beq.n	8006118 <memset+0xe>
 8006112:	f803 1b01 	strb.w	r1, [r3], #1
 8006116:	e7fa      	b.n	800610e <memset+0x4>
 8006118:	4770      	bx	lr
	...

0800611c <_realloc_r>:
 800611c:	e92d 4ff7 	stmdb	sp!, {r0, r1, r2, r4, r5, r6, r7, r8, r9, sl, fp, lr}
 8006120:	4681      	mov	r9, r0
 8006122:	460c      	mov	r4, r1
 8006124:	b929      	cbnz	r1, 8006132 <_realloc_r+0x16>
 8006126:	4611      	mov	r1, r2
 8006128:	b003      	add	sp, #12
 800612a:	e8bd 4ff0 	ldmia.w	sp!, {r4, r5, r6, r7, r8, r9, sl, fp, lr}
 800612e:	f7ff b8bb 	b.w	80052a8 <_malloc_r>
 8006132:	9201      	str	r2, [sp, #4]
 8006134:	f7ff fae2 	bl	80056fc <__malloc_lock>
 8006138:	9a01      	ldr	r2, [sp, #4]
 800613a:	f854 5c04 	ldr.w	r5, [r4, #-4]
 800613e:	f102 070b 	add.w	r7, r2, #11
 8006142:	2f16      	cmp	r7, #22
 8006144:	f1a4 0808 	sub.w	r8, r4, #8
 8006148:	f025 0603 	bic.w	r6, r5, #3
 800614c:	d903      	bls.n	8006156 <_realloc_r+0x3a>
 800614e:	f037 0707 	bics.w	r7, r7, #7
 8006152:	d501      	bpl.n	8006158 <_realloc_r+0x3c>
 8006154:	e002      	b.n	800615c <_realloc_r+0x40>
 8006156:	2710      	movs	r7, #16
 8006158:	4297      	cmp	r7, r2
 800615a:	d204      	bcs.n	8006166 <_realloc_r+0x4a>
 800615c:	230c      	movs	r3, #12
 800615e:	f8c9 3000 	str.w	r3, [r9]
 8006162:	2000      	movs	r0, #0
 8006164:	e17e      	b.n	8006464 <_realloc_r+0x348>
 8006166:	42be      	cmp	r6, r7
 8006168:	f280 8154 	bge.w	8006414 <_realloc_r+0x2f8>
 800616c:	49a2      	ldr	r1, [pc, #648]	; (80063f8 <_realloc_r+0x2dc>)
 800616e:	f8d1 e008 	ldr.w	lr, [r1, #8]
 8006172:	eb08 0306 	add.w	r3, r8, r6
 8006176:	4573      	cmp	r3, lr
 8006178:	468b      	mov	fp, r1
 800617a:	6858      	ldr	r0, [r3, #4]
 800617c:	d005      	beq.n	800618a <_realloc_r+0x6e>
 800617e:	f020 0101 	bic.w	r1, r0, #1
 8006182:	4419      	add	r1, r3
 8006184:	6849      	ldr	r1, [r1, #4]
 8006186:	07c9      	lsls	r1, r1, #31
 8006188:	d425      	bmi.n	80061d6 <_realloc_r+0xba>
 800618a:	f020 0003 	bic.w	r0, r0, #3
 800618e:	4573      	cmp	r3, lr
 8006190:	eb00 0106 	add.w	r1, r0, r6
 8006194:	d117      	bne.n	80061c6 <_realloc_r+0xaa>
 8006196:	f107 0c10 	add.w	ip, r7, #16
 800619a:	4561      	cmp	r1, ip
 800619c:	db1d      	blt.n	80061da <_realloc_r+0xbe>
 800619e:	eb08 0507 	add.w	r5, r8, r7
 80061a2:	1bc9      	subs	r1, r1, r7
 80061a4:	f041 0101 	orr.w	r1, r1, #1
 80061a8:	f8cb 5008 	str.w	r5, [fp, #8]
 80061ac:	6069      	str	r1, [r5, #4]
 80061ae:	f854 3c04 	ldr.w	r3, [r4, #-4]
 80061b2:	f003 0301 	and.w	r3, r3, #1
 80061b6:	431f      	orrs	r7, r3
 80061b8:	4648      	mov	r0, r9
 80061ba:	f844 7c04 	str.w	r7, [r4, #-4]
 80061be:	f7ff fa9e 	bl	80056fe <__malloc_unlock>
 80061c2:	4620      	mov	r0, r4
 80061c4:	e14e      	b.n	8006464 <_realloc_r+0x348>
 80061c6:	42b9      	cmp	r1, r7
 80061c8:	db07      	blt.n	80061da <_realloc_r+0xbe>
 80061ca:	68da      	ldr	r2, [r3, #12]
 80061cc:	689b      	ldr	r3, [r3, #8]
 80061ce:	460e      	mov	r6, r1
 80061d0:	60da      	str	r2, [r3, #12]
 80061d2:	6093      	str	r3, [r2, #8]
 80061d4:	e11e      	b.n	8006414 <_realloc_r+0x2f8>
 80061d6:	2000      	movs	r0, #0
 80061d8:	4603      	mov	r3, r0
 80061da:	07e9      	lsls	r1, r5, #31
 80061dc:	f100 80c9 	bmi.w	8006372 <_realloc_r+0x256>
 80061e0:	f854 5c08 	ldr.w	r5, [r4, #-8]
 80061e4:	ebc5 0508 	rsb	r5, r5, r8
 80061e8:	6869      	ldr	r1, [r5, #4]
 80061ea:	f021 0103 	bic.w	r1, r1, #3
 80061ee:	eb01 0a06 	add.w	sl, r1, r6
 80061f2:	2b00      	cmp	r3, #0
 80061f4:	f000 8088 	beq.w	8006308 <_realloc_r+0x1ec>
 80061f8:	4573      	cmp	r3, lr
 80061fa:	d14b      	bne.n	8006294 <_realloc_r+0x178>
 80061fc:	eb0a 0300 	add.w	r3, sl, r0
 8006200:	f107 0110 	add.w	r1, r7, #16
 8006204:	428b      	cmp	r3, r1
 8006206:	db7f      	blt.n	8006308 <_realloc_r+0x1ec>
 8006208:	46a8      	mov	r8, r5
 800620a:	68ea      	ldr	r2, [r5, #12]
 800620c:	f858 1f08 	ldr.w	r1, [r8, #8]!
 8006210:	60ca      	str	r2, [r1, #12]
 8006212:	6091      	str	r1, [r2, #8]
 8006214:	1f32      	subs	r2, r6, #4
 8006216:	2a24      	cmp	r2, #36	; 0x24
 8006218:	d825      	bhi.n	8006266 <_realloc_r+0x14a>
 800621a:	2a13      	cmp	r2, #19
 800621c:	d91b      	bls.n	8006256 <_realloc_r+0x13a>
 800621e:	6821      	ldr	r1, [r4, #0]
 8006220:	60a9      	str	r1, [r5, #8]
 8006222:	6861      	ldr	r1, [r4, #4]
 8006224:	60e9      	str	r1, [r5, #12]
 8006226:	2a1b      	cmp	r2, #27
 8006228:	d803      	bhi.n	8006232 <_realloc_r+0x116>
 800622a:	f105 0210 	add.w	r2, r5, #16
 800622e:	3408      	adds	r4, #8
 8006230:	e012      	b.n	8006258 <_realloc_r+0x13c>
 8006232:	68a1      	ldr	r1, [r4, #8]
 8006234:	6129      	str	r1, [r5, #16]
 8006236:	68e1      	ldr	r1, [r4, #12]
 8006238:	6169      	str	r1, [r5, #20]
 800623a:	2a24      	cmp	r2, #36	; 0x24
 800623c:	d003      	beq.n	8006246 <_realloc_r+0x12a>
 800623e:	f105 0218 	add.w	r2, r5, #24
 8006242:	3410      	adds	r4, #16
 8006244:	e008      	b.n	8006258 <_realloc_r+0x13c>
 8006246:	6922      	ldr	r2, [r4, #16]
 8006248:	61aa      	str	r2, [r5, #24]
 800624a:	6961      	ldr	r1, [r4, #20]
 800624c:	61e9      	str	r1, [r5, #28]
 800624e:	f105 0220 	add.w	r2, r5, #32
 8006252:	3418      	adds	r4, #24
 8006254:	e000      	b.n	8006258 <_realloc_r+0x13c>
 8006256:	4642      	mov	r2, r8
 8006258:	6821      	ldr	r1, [r4, #0]
 800625a:	6011      	str	r1, [r2, #0]
 800625c:	6861      	ldr	r1, [r4, #4]
 800625e:	6051      	str	r1, [r2, #4]
 8006260:	68a1      	ldr	r1, [r4, #8]
 8006262:	6091      	str	r1, [r2, #8]
 8006264:	e005      	b.n	8006272 <_realloc_r+0x156>
 8006266:	4640      	mov	r0, r8
 8006268:	4621      	mov	r1, r4
 800626a:	9301      	str	r3, [sp, #4]
 800626c:	f7ff ff32 	bl	80060d4 <memmove>
 8006270:	9b01      	ldr	r3, [sp, #4]
 8006272:	19ea      	adds	r2, r5, r7
 8006274:	1bdb      	subs	r3, r3, r7
 8006276:	f043 0301 	orr.w	r3, r3, #1
 800627a:	f8cb 2008 	str.w	r2, [fp, #8]
 800627e:	6053      	str	r3, [r2, #4]
 8006280:	686b      	ldr	r3, [r5, #4]
 8006282:	f003 0301 	and.w	r3, r3, #1
 8006286:	431f      	orrs	r7, r3
 8006288:	4648      	mov	r0, r9
 800628a:	606f      	str	r7, [r5, #4]
 800628c:	f7ff fa37 	bl	80056fe <__malloc_unlock>
 8006290:	4640      	mov	r0, r8
 8006292:	e0e7      	b.n	8006464 <_realloc_r+0x348>
 8006294:	eb0a 0b00 	add.w	fp, sl, r0
 8006298:	45bb      	cmp	fp, r7
 800629a:	db35      	blt.n	8006308 <_realloc_r+0x1ec>
 800629c:	68da      	ldr	r2, [r3, #12]
 800629e:	689b      	ldr	r3, [r3, #8]
 80062a0:	4628      	mov	r0, r5
 80062a2:	60da      	str	r2, [r3, #12]
 80062a4:	6093      	str	r3, [r2, #8]
 80062a6:	f850 2f08 	ldr.w	r2, [r0, #8]!
 80062aa:	68eb      	ldr	r3, [r5, #12]
 80062ac:	60d3      	str	r3, [r2, #12]
 80062ae:	609a      	str	r2, [r3, #8]
 80062b0:	1f32      	subs	r2, r6, #4
 80062b2:	2a24      	cmp	r2, #36	; 0x24
 80062b4:	d823      	bhi.n	80062fe <_realloc_r+0x1e2>
 80062b6:	2a13      	cmp	r2, #19
 80062b8:	d91a      	bls.n	80062f0 <_realloc_r+0x1d4>
 80062ba:	6823      	ldr	r3, [r4, #0]
 80062bc:	60ab      	str	r3, [r5, #8]
 80062be:	6863      	ldr	r3, [r4, #4]
 80062c0:	60eb      	str	r3, [r5, #12]
 80062c2:	2a1b      	cmp	r2, #27
 80062c4:	d803      	bhi.n	80062ce <_realloc_r+0x1b2>
 80062c6:	f105 0010 	add.w	r0, r5, #16
 80062ca:	3408      	adds	r4, #8
 80062cc:	e010      	b.n	80062f0 <_realloc_r+0x1d4>
 80062ce:	68a3      	ldr	r3, [r4, #8]
 80062d0:	612b      	str	r3, [r5, #16]
 80062d2:	68e3      	ldr	r3, [r4, #12]
 80062d4:	616b      	str	r3, [r5, #20]
 80062d6:	2a24      	cmp	r2, #36	; 0x24
 80062d8:	d003      	beq.n	80062e2 <_realloc_r+0x1c6>
 80062da:	f105 0018 	add.w	r0, r5, #24
 80062de:	3410      	adds	r4, #16
 80062e0:	e006      	b.n	80062f0 <_realloc_r+0x1d4>
 80062e2:	6923      	ldr	r3, [r4, #16]
 80062e4:	61ab      	str	r3, [r5, #24]
 80062e6:	6963      	ldr	r3, [r4, #20]
 80062e8:	61eb      	str	r3, [r5, #28]
 80062ea:	f105 0020 	add.w	r0, r5, #32
 80062ee:	3418      	adds	r4, #24
 80062f0:	6823      	ldr	r3, [r4, #0]
 80062f2:	6003      	str	r3, [r0, #0]
 80062f4:	6863      	ldr	r3, [r4, #4]
 80062f6:	6043      	str	r3, [r0, #4]
 80062f8:	68a3      	ldr	r3, [r4, #8]
 80062fa:	6083      	str	r3, [r0, #8]
 80062fc:	e002      	b.n	8006304 <_realloc_r+0x1e8>
 80062fe:	4621      	mov	r1, r4
 8006300:	f7ff fee8 	bl	80060d4 <memmove>
 8006304:	465e      	mov	r6, fp
 8006306:	e02e      	b.n	8006366 <_realloc_r+0x24a>
 8006308:	45ba      	cmp	sl, r7
 800630a:	db32      	blt.n	8006372 <_realloc_r+0x256>
 800630c:	4628      	mov	r0, r5
 800630e:	68eb      	ldr	r3, [r5, #12]
 8006310:	f850 2f08 	ldr.w	r2, [r0, #8]!
 8006314:	60d3      	str	r3, [r2, #12]
 8006316:	609a      	str	r2, [r3, #8]
 8006318:	1f32      	subs	r2, r6, #4
 800631a:	2a24      	cmp	r2, #36	; 0x24
 800631c:	d825      	bhi.n	800636a <_realloc_r+0x24e>
 800631e:	2a13      	cmp	r2, #19
 8006320:	d91a      	bls.n	8006358 <_realloc_r+0x23c>
 8006322:	6823      	ldr	r3, [r4, #0]
 8006324:	60ab      	str	r3, [r5, #8]
 8006326:	6863      	ldr	r3, [r4, #4]
 8006328:	60eb      	str	r3, [r5, #12]
 800632a:	2a1b      	cmp	r2, #27
 800632c:	d803      	bhi.n	8006336 <_realloc_r+0x21a>
 800632e:	f105 0010 	add.w	r0, r5, #16
 8006332:	3408      	adds	r4, #8
 8006334:	e010      	b.n	8006358 <_realloc_r+0x23c>
 8006336:	68a3      	ldr	r3, [r4, #8]
 8006338:	612b      	str	r3, [r5, #16]
 800633a:	68e3      	ldr	r3, [r4, #12]
 800633c:	616b      	str	r3, [r5, #20]
 800633e:	2a24      	cmp	r2, #36	; 0x24
 8006340:	d003      	beq.n	800634a <_realloc_r+0x22e>
 8006342:	f105 0018 	add.w	r0, r5, #24
 8006346:	3410      	adds	r4, #16
 8006348:	e006      	b.n	8006358 <_realloc_r+0x23c>
 800634a:	6923      	ldr	r3, [r4, #16]
 800634c:	61ab      	str	r3, [r5, #24]
 800634e:	6963      	ldr	r3, [r4, #20]
 8006350:	61eb      	str	r3, [r5, #28]
 8006352:	f105 0020 	add.w	r0, r5, #32
 8006356:	3418      	adds	r4, #24
 8006358:	6823      	ldr	r3, [r4, #0]
 800635a:	6003      	str	r3, [r0, #0]
 800635c:	6863      	ldr	r3, [r4, #4]
 800635e:	6043      	str	r3, [r0, #4]
 8006360:	68a3      	ldr	r3, [r4, #8]
 8006362:	6083      	str	r3, [r0, #8]
 8006364:	4656      	mov	r6, sl
 8006366:	46a8      	mov	r8, r5
 8006368:	e054      	b.n	8006414 <_realloc_r+0x2f8>
 800636a:	4621      	mov	r1, r4
 800636c:	f7ff feb2 	bl	80060d4 <memmove>
 8006370:	e7f8      	b.n	8006364 <_realloc_r+0x248>
 8006372:	4648      	mov	r0, r9
 8006374:	4611      	mov	r1, r2
 8006376:	f7fe ff97 	bl	80052a8 <_malloc_r>
 800637a:	4605      	mov	r5, r0
 800637c:	2800      	cmp	r0, #0
 800637e:	d044      	beq.n	800640a <_realloc_r+0x2ee>
 8006380:	f854 3c04 	ldr.w	r3, [r4, #-4]
 8006384:	f023 0301 	bic.w	r3, r3, #1
 8006388:	f1a0 0208 	sub.w	r2, r0, #8
 800638c:	4443      	add	r3, r8
 800638e:	429a      	cmp	r2, r3
 8006390:	d105      	bne.n	800639e <_realloc_r+0x282>
 8006392:	f850 3c04 	ldr.w	r3, [r0, #-4]
 8006396:	f023 0303 	bic.w	r3, r3, #3
 800639a:	441e      	add	r6, r3
 800639c:	e03a      	b.n	8006414 <_realloc_r+0x2f8>
 800639e:	1f32      	subs	r2, r6, #4
 80063a0:	2a24      	cmp	r2, #36	; 0x24
 80063a2:	d82b      	bhi.n	80063fc <_realloc_r+0x2e0>
 80063a4:	2a13      	cmp	r2, #19
 80063a6:	d91e      	bls.n	80063e6 <_realloc_r+0x2ca>
 80063a8:	6823      	ldr	r3, [r4, #0]
 80063aa:	6003      	str	r3, [r0, #0]
 80063ac:	6863      	ldr	r3, [r4, #4]
 80063ae:	6043      	str	r3, [r0, #4]
 80063b0:	2a1b      	cmp	r2, #27
 80063b2:	d804      	bhi.n	80063be <_realloc_r+0x2a2>
 80063b4:	f100 0308 	add.w	r3, r0, #8
 80063b8:	f104 0208 	add.w	r2, r4, #8
 80063bc:	e015      	b.n	80063ea <_realloc_r+0x2ce>
 80063be:	68a3      	ldr	r3, [r4, #8]
 80063c0:	6083      	str	r3, [r0, #8]
 80063c2:	68e3      	ldr	r3, [r4, #12]
 80063c4:	60c3      	str	r3, [r0, #12]
 80063c6:	2a24      	cmp	r2, #36	; 0x24
 80063c8:	d004      	beq.n	80063d4 <_realloc_r+0x2b8>
 80063ca:	f100 0310 	add.w	r3, r0, #16
 80063ce:	f104 0210 	add.w	r2, r4, #16
 80063d2:	e00a      	b.n	80063ea <_realloc_r+0x2ce>
 80063d4:	6923      	ldr	r3, [r4, #16]
 80063d6:	6103      	str	r3, [r0, #16]
 80063d8:	6961      	ldr	r1, [r4, #20]
 80063da:	6141      	str	r1, [r0, #20]
 80063dc:	f100 0318 	add.w	r3, r0, #24
 80063e0:	f104 0218 	add.w	r2, r4, #24
 80063e4:	e001      	b.n	80063ea <_realloc_r+0x2ce>
 80063e6:	4603      	mov	r3, r0
 80063e8:	4622      	mov	r2, r4
 80063ea:	6811      	ldr	r1, [r2, #0]
 80063ec:	6019      	str	r1, [r3, #0]
 80063ee:	6851      	ldr	r1, [r2, #4]
 80063f0:	6059      	str	r1, [r3, #4]
 80063f2:	6892      	ldr	r2, [r2, #8]
 80063f4:	609a      	str	r2, [r3, #8]
 80063f6:	e004      	b.n	8006402 <_realloc_r+0x2e6>
 80063f8:	20000130 	.word	0x20000130
 80063fc:	4621      	mov	r1, r4
 80063fe:	f7ff fe69 	bl	80060d4 <memmove>
 8006402:	4648      	mov	r0, r9
 8006404:	4621      	mov	r1, r4
 8006406:	f7ff fdad 	bl	8005f64 <_free_r>
 800640a:	4648      	mov	r0, r9
 800640c:	f7ff f977 	bl	80056fe <__malloc_unlock>
 8006410:	4628      	mov	r0, r5
 8006412:	e027      	b.n	8006464 <_realloc_r+0x348>
 8006414:	1bf3      	subs	r3, r6, r7
 8006416:	2b0f      	cmp	r3, #15
 8006418:	f8d8 2004 	ldr.w	r2, [r8, #4]
 800641c:	d913      	bls.n	8006446 <_realloc_r+0x32a>
 800641e:	eb08 0107 	add.w	r1, r8, r7
 8006422:	f002 0201 	and.w	r2, r2, #1
 8006426:	4317      	orrs	r7, r2
 8006428:	f043 0201 	orr.w	r2, r3, #1
 800642c:	440b      	add	r3, r1
 800642e:	f8c8 7004 	str.w	r7, [r8, #4]
 8006432:	604a      	str	r2, [r1, #4]
 8006434:	685a      	ldr	r2, [r3, #4]
 8006436:	f042 0201 	orr.w	r2, r2, #1
 800643a:	605a      	str	r2, [r3, #4]
 800643c:	4648      	mov	r0, r9
 800643e:	3108      	adds	r1, #8
 8006440:	f7ff fd90 	bl	8005f64 <_free_r>
 8006444:	e009      	b.n	800645a <_realloc_r+0x33e>
 8006446:	f002 0201 	and.w	r2, r2, #1
 800644a:	4332      	orrs	r2, r6
 800644c:	4446      	add	r6, r8
 800644e:	f8c8 2004 	str.w	r2, [r8, #4]
 8006452:	6873      	ldr	r3, [r6, #4]
 8006454:	f043 0301 	orr.w	r3, r3, #1
 8006458:	6073      	str	r3, [r6, #4]
 800645a:	4648      	mov	r0, r9
 800645c:	f7ff f94f 	bl	80056fe <__malloc_unlock>
 8006460:	f108 0008 	add.w	r0, r8, #8
 8006464:	b003      	add	sp, #12
 8006466:	e8bd 8ff0 	ldmia.w	sp!, {r4, r5, r6, r7, r8, r9, sl, fp, pc}
 800646a:	bf00      	nop
 800646c:	0000      	movs	r0, r0
	...

08006470 <cos>:
 8006470:	b51f      	push	{r0, r1, r2, r3, r4, lr}
 8006472:	ec51 0b10 	vmov	r0, r1, d0
 8006476:	4a1e      	ldr	r2, [pc, #120]	; (80064f0 <cos+0x80>)
 8006478:	f021 4300 	bic.w	r3, r1, #2147483648	; 0x80000000
 800647c:	4293      	cmp	r3, r2
 800647e:	dc02      	bgt.n	8006486 <cos+0x16>
 8006480:	ed9f 1b19 	vldr	d1, [pc, #100]	; 80064e8 <cos+0x78>
 8006484:	e016      	b.n	80064b4 <cos+0x44>
 8006486:	4a1b      	ldr	r2, [pc, #108]	; (80064f4 <cos+0x84>)
 8006488:	4293      	cmp	r3, r2
 800648a:	dd05      	ble.n	8006498 <cos+0x28>
 800648c:	ee10 2a10 	vmov	r2, s0
 8006490:	460b      	mov	r3, r1
 8006492:	f7f9 febd 	bl	8000210 <__aeabi_dsub>
 8006496:	e021      	b.n	80064dc <cos+0x6c>
 8006498:	4668      	mov	r0, sp
 800649a:	f000 fa71 	bl	8006980 <__ieee754_rem_pio2>
 800649e:	f000 0003 	and.w	r0, r0, #3
 80064a2:	2801      	cmp	r0, #1
 80064a4:	ed9d 0b00 	vldr	d0, [sp]
 80064a8:	ed9d 1b02 	vldr	d1, [sp, #8]
 80064ac:	d005      	beq.n	80064ba <cos+0x4a>
 80064ae:	2802      	cmp	r0, #2
 80064b0:	d006      	beq.n	80064c0 <cos+0x50>
 80064b2:	b970      	cbnz	r0, 80064d2 <cos+0x62>
 80064b4:	f000 fc68 	bl	8006d88 <__kernel_cos>
 80064b8:	e00e      	b.n	80064d8 <cos+0x68>
 80064ba:	f001 f8b1 	bl	8007620 <__kernel_sin>
 80064be:	e001      	b.n	80064c4 <cos+0x54>
 80064c0:	f000 fc62 	bl	8006d88 <__kernel_cos>
 80064c4:	ec53 2b10 	vmov	r2, r3, d0
 80064c8:	ee10 0a10 	vmov	r0, s0
 80064cc:	f103 4100 	add.w	r1, r3, #2147483648	; 0x80000000
 80064d0:	e004      	b.n	80064dc <cos+0x6c>
 80064d2:	2001      	movs	r0, #1
 80064d4:	f001 f8a4 	bl	8007620 <__kernel_sin>
 80064d8:	ec51 0b10 	vmov	r0, r1, d0
 80064dc:	ec41 0b10 	vmov	d0, r0, r1
 80064e0:	b005      	add	sp, #20
 80064e2:	f85d fb04 	ldr.w	pc, [sp], #4
 80064e6:	bf00      	nop
	...
 80064f0:	3fe921fb 	.word	0x3fe921fb
 80064f4:	7fefffff 	.word	0x7fefffff

080064f8 <sin>:
 80064f8:	b51f      	push	{r0, r1, r2, r3, r4, lr}
 80064fa:	ec51 0b10 	vmov	r0, r1, d0
 80064fe:	4a20      	ldr	r2, [pc, #128]	; (8006580 <sin+0x88>)
 8006500:	f021 4300 	bic.w	r3, r1, #2147483648	; 0x80000000
 8006504:	4293      	cmp	r3, r2
 8006506:	dc03      	bgt.n	8006510 <sin+0x18>
 8006508:	ed9f 1b1b 	vldr	d1, [pc, #108]	; 8006578 <sin+0x80>
 800650c:	2000      	movs	r0, #0
 800650e:	e017      	b.n	8006540 <sin+0x48>
 8006510:	4a1c      	ldr	r2, [pc, #112]	; (8006584 <sin+0x8c>)
 8006512:	4293      	cmp	r3, r2
 8006514:	dd05      	ble.n	8006522 <sin+0x2a>
 8006516:	ee10 2a10 	vmov	r2, s0
 800651a:	460b      	mov	r3, r1
 800651c:	f7f9 fe78 	bl	8000210 <__aeabi_dsub>
 8006520:	e022      	b.n	8006568 <sin+0x70>
 8006522:	4668      	mov	r0, sp
 8006524:	f000 fa2c 	bl	8006980 <__ieee754_rem_pio2>
 8006528:	f000 0003 	and.w	r0, r0, #3
 800652c:	2801      	cmp	r0, #1
 800652e:	ed9d 0b00 	vldr	d0, [sp]
 8006532:	ed9d 1b02 	vldr	d1, [sp, #8]
 8006536:	d008      	beq.n	800654a <sin+0x52>
 8006538:	2802      	cmp	r0, #2
 800653a:	d009      	beq.n	8006550 <sin+0x58>
 800653c:	b960      	cbnz	r0, 8006558 <sin+0x60>
 800653e:	2001      	movs	r0, #1
 8006540:	f001 f86e 	bl	8007620 <__kernel_sin>
 8006544:	ec51 0b10 	vmov	r0, r1, d0
 8006548:	e00e      	b.n	8006568 <sin+0x70>
 800654a:	f000 fc1d 	bl	8006d88 <__kernel_cos>
 800654e:	e7f9      	b.n	8006544 <sin+0x4c>
 8006550:	2001      	movs	r0, #1
 8006552:	f001 f865 	bl	8007620 <__kernel_sin>
 8006556:	e001      	b.n	800655c <sin+0x64>
 8006558:	f000 fc16 	bl	8006d88 <__kernel_cos>
 800655c:	ec53 2b10 	vmov	r2, r3, d0
 8006560:	ee10 0a10 	vmov	r0, s0
 8006564:	f103 4100 	add.w	r1, r3, #2147483648	; 0x80000000
 8006568:	ec41 0b10 	vmov	d0, r0, r1
 800656c:	b005      	add	sp, #20
 800656e:	f85d fb04 	ldr.w	pc, [sp], #4
 8006572:	bf00      	nop
 8006574:	f3af 8000 	nop.w
	...
 8006580:	3fe921fb 	.word	0x3fe921fb
 8006584:	7fefffff 	.word	0x7fefffff

08006588 <exp>:
 8006588:	b5f0      	push	{r4, r5, r6, r7, lr}
 800658a:	ed2d 8b02 	vpush	{d8}
 800658e:	4e38      	ldr	r6, [pc, #224]	; (8006670 <exp+0xe8>)
 8006590:	b08b      	sub	sp, #44	; 0x2c
 8006592:	ec55 4b10 	vmov	r4, r5, d0
 8006596:	f000 f873 	bl	8006680 <__ieee754_exp>
 800659a:	f996 3000 	ldrsb.w	r3, [r6]
 800659e:	eeb0 8a40 	vmov.f32	s16, s0
 80065a2:	eef0 8a60 	vmov.f32	s17, s1
 80065a6:	3301      	adds	r3, #1
 80065a8:	d050      	beq.n	800664c <exp+0xc4>
 80065aa:	ec45 4b10 	vmov	d0, r4, r5
 80065ae:	f001 f904 	bl	80077ba <finite>
 80065b2:	2800      	cmp	r0, #0
 80065b4:	d04a      	beq.n	800664c <exp+0xc4>
 80065b6:	4620      	mov	r0, r4
 80065b8:	4629      	mov	r1, r5
 80065ba:	a329      	add	r3, pc, #164	; (adr r3, 8006660 <exp+0xd8>)
 80065bc:	e9d3 2300 	ldrd	r2, r3, [r3]
 80065c0:	f7fa fa6a 	bl	8000a98 <__aeabi_dcmpgt>
 80065c4:	4607      	mov	r7, r0
 80065c6:	b1b8      	cbz	r0, 80065f8 <exp+0x70>
 80065c8:	2303      	movs	r3, #3
 80065ca:	9300      	str	r3, [sp, #0]
 80065cc:	7831      	ldrb	r1, [r6, #0]
 80065ce:	4b29      	ldr	r3, [pc, #164]	; (8006674 <exp+0xec>)
 80065d0:	9301      	str	r3, [sp, #4]
 80065d2:	2300      	movs	r3, #0
 80065d4:	9308      	str	r3, [sp, #32]
 80065d6:	e9cd 4504 	strd	r4, r5, [sp, #16]
 80065da:	e9cd 4502 	strd	r4, r5, [sp, #8]
 80065de:	b929      	cbnz	r1, 80065ec <exp+0x64>
 80065e0:	4b25      	ldr	r3, [pc, #148]	; (8006678 <exp+0xf0>)
 80065e2:	f04f 4260 	mov.w	r2, #3758096384	; 0xe0000000
 80065e6:	e9cd 2306 	strd	r2, r3, [sp, #24]
 80065ea:	e01e      	b.n	800662a <exp+0xa2>
 80065ec:	4b23      	ldr	r3, [pc, #140]	; (800667c <exp+0xf4>)
 80065ee:	2200      	movs	r2, #0
 80065f0:	e9cd 2306 	strd	r2, r3, [sp, #24]
 80065f4:	2902      	cmp	r1, #2
 80065f6:	e017      	b.n	8006628 <exp+0xa0>
 80065f8:	4620      	mov	r0, r4
 80065fa:	4629      	mov	r1, r5
 80065fc:	a31a      	add	r3, pc, #104	; (adr r3, 8006668 <exp+0xe0>)
 80065fe:	e9d3 2300 	ldrd	r2, r3, [r3]
 8006602:	f7fa fa2b 	bl	8000a5c <__aeabi_dcmplt>
 8006606:	b308      	cbz	r0, 800664c <exp+0xc4>
 8006608:	2304      	movs	r3, #4
 800660a:	9300      	str	r3, [sp, #0]
 800660c:	4b19      	ldr	r3, [pc, #100]	; (8006674 <exp+0xec>)
 800660e:	9301      	str	r3, [sp, #4]
 8006610:	2200      	movs	r2, #0
 8006612:	2300      	movs	r3, #0
 8006614:	e9cd 2306 	strd	r2, r3, [sp, #24]
 8006618:	e9cd 4504 	strd	r4, r5, [sp, #16]
 800661c:	f996 3000 	ldrsb.w	r3, [r6]
 8006620:	9708      	str	r7, [sp, #32]
 8006622:	e9cd 4502 	strd	r4, r5, [sp, #8]
 8006626:	2b02      	cmp	r3, #2
 8006628:	d003      	beq.n	8006632 <exp+0xaa>
 800662a:	4668      	mov	r0, sp
 800662c:	f001 f958 	bl	80078e0 <matherr>
 8006630:	b918      	cbnz	r0, 800663a <exp+0xb2>
 8006632:	f001 f9e1 	bl	80079f8 <__errno>
 8006636:	2322      	movs	r3, #34	; 0x22
 8006638:	6003      	str	r3, [r0, #0]
 800663a:	9b08      	ldr	r3, [sp, #32]
 800663c:	b11b      	cbz	r3, 8006646 <exp+0xbe>
 800663e:	f001 f9db 	bl	80079f8 <__errno>
 8006642:	9b08      	ldr	r3, [sp, #32]
 8006644:	6003      	str	r3, [r0, #0]
 8006646:	ed9d 0b06 	vldr	d0, [sp, #24]
 800664a:	e003      	b.n	8006654 <exp+0xcc>
 800664c:	eeb0 0a48 	vmov.f32	s0, s16
 8006650:	eef0 0a68 	vmov.f32	s1, s17
 8006654:	b00b      	add	sp, #44	; 0x2c
 8006656:	ecbd 8b02 	vpop	{d8}
 800665a:	bdf0      	pop	{r4, r5, r6, r7, pc}
 800665c:	f3af 8000 	nop.w
 8006660:	fefa39ef 	.word	0xfefa39ef
 8006664:	40862e42 	.word	0x40862e42
 8006668:	d52d3051 	.word	0xd52d3051
 800666c:	c0874910 	.word	0xc0874910
 8006670:	20000540 	.word	0x20000540
 8006674:	08007bc4 	.word	0x08007bc4
 8006678:	47efffff 	.word	0x47efffff
 800667c:	7ff00000 	.word	0x7ff00000

08006680 <__ieee754_exp>:
 8006680:	e92d 4ff7 	stmdb	sp!, {r0, r1, r2, r4, r5, r6, r7, r8, r9, sl, fp, lr}
 8006684:	ec55 4b10 	vmov	r4, r5, d0
 8006688:	48af      	ldr	r0, [pc, #700]	; (8006948 <__ieee754_exp+0x2c8>)
 800668a:	f025 4100 	bic.w	r1, r5, #2147483648	; 0x80000000
 800668e:	4281      	cmp	r1, r0
 8006690:	ea4f 76d5 	mov.w	r6, r5, lsr #31
 8006694:	d927      	bls.n	80066e6 <__ieee754_exp+0x66>
 8006696:	48ad      	ldr	r0, [pc, #692]	; (800694c <__ieee754_exp+0x2cc>)
 8006698:	4281      	cmp	r1, r0
 800669a:	ee10 0a10 	vmov	r0, s0
 800669e:	4629      	mov	r1, r5
 80066a0:	d90c      	bls.n	80066bc <__ieee754_exp+0x3c>
 80066a2:	f3c5 0313 	ubfx	r3, r5, #0, #20
 80066a6:	4323      	orrs	r3, r4
 80066a8:	d002      	beq.n	80066b0 <__ieee754_exp+0x30>
 80066aa:	4622      	mov	r2, r4
 80066ac:	462b      	mov	r3, r5
 80066ae:	e07f      	b.n	80067b0 <__ieee754_exp+0x130>
 80066b0:	2e00      	cmp	r6, #0
 80066b2:	f000 815b 	beq.w	800696c <__ieee754_exp+0x2ec>
 80066b6:	2000      	movs	r0, #0
 80066b8:	2100      	movs	r1, #0
 80066ba:	e15a      	b.n	8006972 <__ieee754_exp+0x2f2>
 80066bc:	a38c      	add	r3, pc, #560	; (adr r3, 80068f0 <__ieee754_exp+0x270>)
 80066be:	e9d3 2300 	ldrd	r2, r3, [r3]
 80066c2:	f7fa f9e9 	bl	8000a98 <__aeabi_dcmpgt>
 80066c6:	b128      	cbz	r0, 80066d4 <__ieee754_exp+0x54>
 80066c8:	a18b      	add	r1, pc, #556	; (adr r1, 80068f8 <__ieee754_exp+0x278>)
 80066ca:	e9d1 0100 	ldrd	r0, r1, [r1]
 80066ce:	4602      	mov	r2, r0
 80066d0:	460b      	mov	r3, r1
 80066d2:	e107      	b.n	80068e4 <__ieee754_exp+0x264>
 80066d4:	4620      	mov	r0, r4
 80066d6:	4629      	mov	r1, r5
 80066d8:	a389      	add	r3, pc, #548	; (adr r3, 8006900 <__ieee754_exp+0x280>)
 80066da:	e9d3 2300 	ldrd	r2, r3, [r3]
 80066de:	f7fa f9bd 	bl	8000a5c <__aeabi_dcmplt>
 80066e2:	b1e8      	cbz	r0, 8006720 <__ieee754_exp+0xa0>
 80066e4:	e7e7      	b.n	80066b6 <__ieee754_exp+0x36>
 80066e6:	4b9a      	ldr	r3, [pc, #616]	; (8006950 <__ieee754_exp+0x2d0>)
 80066e8:	4299      	cmp	r1, r3
 80066ea:	d94d      	bls.n	8006788 <__ieee754_exp+0x108>
 80066ec:	4b99      	ldr	r3, [pc, #612]	; (8006954 <__ieee754_exp+0x2d4>)
 80066ee:	4299      	cmp	r1, r3
 80066f0:	d816      	bhi.n	8006720 <__ieee754_exp+0xa0>
 80066f2:	4b99      	ldr	r3, [pc, #612]	; (8006958 <__ieee754_exp+0x2d8>)
 80066f4:	00f7      	lsls	r7, r6, #3
 80066f6:	443b      	add	r3, r7
 80066f8:	e9d3 2300 	ldrd	r2, r3, [r3]
 80066fc:	ee10 0a10 	vmov	r0, s0
 8006700:	4629      	mov	r1, r5
 8006702:	f7f9 fd85 	bl	8000210 <__aeabi_dsub>
 8006706:	4b95      	ldr	r3, [pc, #596]	; (800695c <__ieee754_exp+0x2dc>)
 8006708:	441f      	add	r7, r3
 800670a:	ed97 7b00 	vldr	d7, [r7]
 800670e:	f1c6 0801 	rsb	r8, r6, #1
 8006712:	4682      	mov	sl, r0
 8006714:	468b      	mov	fp, r1
 8006716:	ed8d 7b00 	vstr	d7, [sp]
 800671a:	ebc6 0808 	rsb	r8, r6, r8
 800671e:	e02a      	b.n	8006776 <__ieee754_exp+0xf6>
 8006720:	a379      	add	r3, pc, #484	; (adr r3, 8006908 <__ieee754_exp+0x288>)
 8006722:	e9d3 2300 	ldrd	r2, r3, [r3]
 8006726:	4620      	mov	r0, r4
 8006728:	4629      	mov	r1, r5
 800672a:	f7f9 ff25 	bl	8000578 <__aeabi_dmul>
 800672e:	4b8c      	ldr	r3, [pc, #560]	; (8006960 <__ieee754_exp+0x2e0>)
 8006730:	eb03 06c6 	add.w	r6, r3, r6, lsl #3
 8006734:	e9d6 2300 	ldrd	r2, r3, [r6]
 8006738:	f7f9 fd6c 	bl	8000214 <__adddf3>
 800673c:	f7fa f9b6 	bl	8000aac <__aeabi_d2iz>
 8006740:	4680      	mov	r8, r0
 8006742:	f7f9 feb3 	bl	80004ac <__aeabi_i2d>
 8006746:	a372      	add	r3, pc, #456	; (adr r3, 8006910 <__ieee754_exp+0x290>)
 8006748:	e9d3 2300 	ldrd	r2, r3, [r3]
 800674c:	4606      	mov	r6, r0
 800674e:	460f      	mov	r7, r1
 8006750:	f7f9 ff12 	bl	8000578 <__aeabi_dmul>
 8006754:	4602      	mov	r2, r0
 8006756:	460b      	mov	r3, r1
 8006758:	4620      	mov	r0, r4
 800675a:	4629      	mov	r1, r5
 800675c:	f7f9 fd58 	bl	8000210 <__aeabi_dsub>
 8006760:	a36d      	add	r3, pc, #436	; (adr r3, 8006918 <__ieee754_exp+0x298>)
 8006762:	e9d3 2300 	ldrd	r2, r3, [r3]
 8006766:	4682      	mov	sl, r0
 8006768:	468b      	mov	fp, r1
 800676a:	4630      	mov	r0, r6
 800676c:	4639      	mov	r1, r7
 800676e:	f7f9 ff03 	bl	8000578 <__aeabi_dmul>
 8006772:	e9cd 0100 	strd	r0, r1, [sp]
 8006776:	4650      	mov	r0, sl
 8006778:	4659      	mov	r1, fp
 800677a:	e9dd 2300 	ldrd	r2, r3, [sp]
 800677e:	f7f9 fd47 	bl	8000210 <__aeabi_dsub>
 8006782:	4604      	mov	r4, r0
 8006784:	460d      	mov	r5, r1
 8006786:	e01a      	b.n	80067be <__ieee754_exp+0x13e>
 8006788:	4b76      	ldr	r3, [pc, #472]	; (8006964 <__ieee754_exp+0x2e4>)
 800678a:	4299      	cmp	r1, r3
 800678c:	d813      	bhi.n	80067b6 <__ieee754_exp+0x136>
 800678e:	a35a      	add	r3, pc, #360	; (adr r3, 80068f8 <__ieee754_exp+0x278>)
 8006790:	e9d3 2300 	ldrd	r2, r3, [r3]
 8006794:	ee10 0a10 	vmov	r0, s0
 8006798:	4629      	mov	r1, r5
 800679a:	f7f9 fd3b 	bl	8000214 <__adddf3>
 800679e:	2200      	movs	r2, #0
 80067a0:	4b71      	ldr	r3, [pc, #452]	; (8006968 <__ieee754_exp+0x2e8>)
 80067a2:	f7fa f979 	bl	8000a98 <__aeabi_dcmpgt>
 80067a6:	b148      	cbz	r0, 80067bc <__ieee754_exp+0x13c>
 80067a8:	4b6f      	ldr	r3, [pc, #444]	; (8006968 <__ieee754_exp+0x2e8>)
 80067aa:	4620      	mov	r0, r4
 80067ac:	4629      	mov	r1, r5
 80067ae:	2200      	movs	r2, #0
 80067b0:	f7f9 fd30 	bl	8000214 <__adddf3>
 80067b4:	e0dd      	b.n	8006972 <__ieee754_exp+0x2f2>
 80067b6:	f04f 0800 	mov.w	r8, #0
 80067ba:	e000      	b.n	80067be <__ieee754_exp+0x13e>
 80067bc:	4680      	mov	r8, r0
 80067be:	4622      	mov	r2, r4
 80067c0:	462b      	mov	r3, r5
 80067c2:	4620      	mov	r0, r4
 80067c4:	4629      	mov	r1, r5
 80067c6:	f7f9 fed7 	bl	8000578 <__aeabi_dmul>
 80067ca:	a355      	add	r3, pc, #340	; (adr r3, 8006920 <__ieee754_exp+0x2a0>)
 80067cc:	e9d3 2300 	ldrd	r2, r3, [r3]
 80067d0:	4606      	mov	r6, r0
 80067d2:	460f      	mov	r7, r1
 80067d4:	f7f9 fed0 	bl	8000578 <__aeabi_dmul>
 80067d8:	a353      	add	r3, pc, #332	; (adr r3, 8006928 <__ieee754_exp+0x2a8>)
 80067da:	e9d3 2300 	ldrd	r2, r3, [r3]
 80067de:	f7f9 fd17 	bl	8000210 <__aeabi_dsub>
 80067e2:	4602      	mov	r2, r0
 80067e4:	460b      	mov	r3, r1
 80067e6:	4630      	mov	r0, r6
 80067e8:	4639      	mov	r1, r7
 80067ea:	f7f9 fec5 	bl	8000578 <__aeabi_dmul>
 80067ee:	a350      	add	r3, pc, #320	; (adr r3, 8006930 <__ieee754_exp+0x2b0>)
 80067f0:	e9d3 2300 	ldrd	r2, r3, [r3]
 80067f4:	f7f9 fd0e 	bl	8000214 <__adddf3>
 80067f8:	4602      	mov	r2, r0
 80067fa:	460b      	mov	r3, r1
 80067fc:	4630      	mov	r0, r6
 80067fe:	4639      	mov	r1, r7
 8006800:	f7f9 feba 	bl	8000578 <__aeabi_dmul>
 8006804:	a34c      	add	r3, pc, #304	; (adr r3, 8006938 <__ieee754_exp+0x2b8>)
 8006806:	e9d3 2300 	ldrd	r2, r3, [r3]
 800680a:	f7f9 fd01 	bl	8000210 <__aeabi_dsub>
 800680e:	4602      	mov	r2, r0
 8006810:	460b      	mov	r3, r1
 8006812:	4630      	mov	r0, r6
 8006814:	4639      	mov	r1, r7
 8006816:	f7f9 feaf 	bl	8000578 <__aeabi_dmul>
 800681a:	a349      	add	r3, pc, #292	; (adr r3, 8006940 <__ieee754_exp+0x2c0>)
 800681c:	e9d3 2300 	ldrd	r2, r3, [r3]
 8006820:	f7f9 fcf8 	bl	8000214 <__adddf3>
 8006824:	4602      	mov	r2, r0
 8006826:	460b      	mov	r3, r1
 8006828:	4630      	mov	r0, r6
 800682a:	4639      	mov	r1, r7
 800682c:	f7f9 fea4 	bl	8000578 <__aeabi_dmul>
 8006830:	4602      	mov	r2, r0
 8006832:	460b      	mov	r3, r1
 8006834:	4620      	mov	r0, r4
 8006836:	4629      	mov	r1, r5
 8006838:	f7f9 fcea 	bl	8000210 <__aeabi_dsub>
 800683c:	4606      	mov	r6, r0
 800683e:	460f      	mov	r7, r1
 8006840:	4620      	mov	r0, r4
 8006842:	4629      	mov	r1, r5
 8006844:	4632      	mov	r2, r6
 8006846:	463b      	mov	r3, r7
 8006848:	f1b8 0f00 	cmp.w	r8, #0
 800684c:	d11b      	bne.n	8006886 <__ieee754_exp+0x206>
 800684e:	f7f9 fe93 	bl	8000578 <__aeabi_dmul>
 8006852:	2200      	movs	r2, #0
 8006854:	4680      	mov	r8, r0
 8006856:	4689      	mov	r9, r1
 8006858:	4630      	mov	r0, r6
 800685a:	4639      	mov	r1, r7
 800685c:	f04f 4380 	mov.w	r3, #1073741824	; 0x40000000
 8006860:	f7f9 fcd6 	bl	8000210 <__aeabi_dsub>
 8006864:	4602      	mov	r2, r0
 8006866:	460b      	mov	r3, r1
 8006868:	4640      	mov	r0, r8
 800686a:	4649      	mov	r1, r9
 800686c:	f7f9 ffae 	bl	80007cc <__aeabi_ddiv>
 8006870:	4622      	mov	r2, r4
 8006872:	462b      	mov	r3, r5
 8006874:	f7f9 fccc 	bl	8000210 <__aeabi_dsub>
 8006878:	4602      	mov	r2, r0
 800687a:	460b      	mov	r3, r1
 800687c:	2000      	movs	r0, #0
 800687e:	493a      	ldr	r1, [pc, #232]	; (8006968 <__ieee754_exp+0x2e8>)
 8006880:	f7f9 fcc6 	bl	8000210 <__aeabi_dsub>
 8006884:	e075      	b.n	8006972 <__ieee754_exp+0x2f2>
 8006886:	f7f9 fe77 	bl	8000578 <__aeabi_dmul>
 800688a:	4632      	mov	r2, r6
 800688c:	4604      	mov	r4, r0
 800688e:	460d      	mov	r5, r1
 8006890:	463b      	mov	r3, r7
 8006892:	2000      	movs	r0, #0
 8006894:	f04f 4180 	mov.w	r1, #1073741824	; 0x40000000
 8006898:	f7f9 fcba 	bl	8000210 <__aeabi_dsub>
 800689c:	4602      	mov	r2, r0
 800689e:	460b      	mov	r3, r1
 80068a0:	4620      	mov	r0, r4
 80068a2:	4629      	mov	r1, r5
 80068a4:	f7f9 ff92 	bl	80007cc <__aeabi_ddiv>
 80068a8:	4602      	mov	r2, r0
 80068aa:	460b      	mov	r3, r1
 80068ac:	e9dd 0100 	ldrd	r0, r1, [sp]
 80068b0:	f7f9 fcae 	bl	8000210 <__aeabi_dsub>
 80068b4:	4652      	mov	r2, sl
 80068b6:	465b      	mov	r3, fp
 80068b8:	f7f9 fcaa 	bl	8000210 <__aeabi_dsub>
 80068bc:	460b      	mov	r3, r1
 80068be:	4602      	mov	r2, r0
 80068c0:	4929      	ldr	r1, [pc, #164]	; (8006968 <__ieee754_exp+0x2e8>)
 80068c2:	2000      	movs	r0, #0
 80068c4:	f7f9 fca4 	bl	8000210 <__aeabi_dsub>
 80068c8:	f46f 737f 	mvn.w	r3, #1020	; 0x3fc
 80068cc:	4598      	cmp	r8, r3
 80068ce:	db02      	blt.n	80068d6 <__ieee754_exp+0x256>
 80068d0:	eb01 5108 	add.w	r1, r1, r8, lsl #20
 80068d4:	e04d      	b.n	8006972 <__ieee754_exp+0x2f2>
 80068d6:	f508 787a 	add.w	r8, r8, #1000	; 0x3e8
 80068da:	eb01 5108 	add.w	r1, r1, r8, lsl #20
 80068de:	2200      	movs	r2, #0
 80068e0:	f04f 73b8 	mov.w	r3, #24117248	; 0x1700000
 80068e4:	f7f9 fe48 	bl	8000578 <__aeabi_dmul>
 80068e8:	e043      	b.n	8006972 <__ieee754_exp+0x2f2>
 80068ea:	bf00      	nop
 80068ec:	f3af 8000 	nop.w
 80068f0:	fefa39ef 	.word	0xfefa39ef
 80068f4:	40862e42 	.word	0x40862e42
 80068f8:	8800759c 	.word	0x8800759c
 80068fc:	7e37e43c 	.word	0x7e37e43c
 8006900:	d52d3051 	.word	0xd52d3051
 8006904:	c0874910 	.word	0xc0874910
 8006908:	652b82fe 	.word	0x652b82fe
 800690c:	3ff71547 	.word	0x3ff71547
 8006910:	fee00000 	.word	0xfee00000
 8006914:	3fe62e42 	.word	0x3fe62e42
 8006918:	35793c76 	.word	0x35793c76
 800691c:	3dea39ef 	.word	0x3dea39ef
 8006920:	72bea4d0 	.word	0x72bea4d0
 8006924:	3e663769 	.word	0x3e663769
 8006928:	c5d26bf1 	.word	0xc5d26bf1
 800692c:	3ebbbd41 	.word	0x3ebbbd41
 8006930:	af25de2c 	.word	0xaf25de2c
 8006934:	3f11566a 	.word	0x3f11566a
 8006938:	16bebd93 	.word	0x16bebd93
 800693c:	3f66c16c 	.word	0x3f66c16c
 8006940:	5555553e 	.word	0x5555553e
 8006944:	3fc55555 	.word	0x3fc55555
 8006948:	40862e41 	.word	0x40862e41
 800694c:	7fefffff 	.word	0x7fefffff
 8006950:	3fd62e42 	.word	0x3fd62e42
 8006954:	3ff0a2b1 	.word	0x3ff0a2b1
 8006958:	08007be8 	.word	0x08007be8
 800695c:	08007bd8 	.word	0x08007bd8
 8006960:	08007bc8 	.word	0x08007bc8
 8006964:	3e2fffff 	.word	0x3e2fffff
 8006968:	3ff00000 	.word	0x3ff00000
 800696c:	ee10 0a10 	vmov	r0, s0
 8006970:	4629      	mov	r1, r5
 8006972:	ec41 0b10 	vmov	d0, r0, r1
 8006976:	b003      	add	sp, #12
 8006978:	e8bd 8ff0 	ldmia.w	sp!, {r4, r5, r6, r7, r8, r9, sl, fp, pc}
 800697c:	f3af 8000 	nop.w

08006980 <__ieee754_rem_pio2>:
 8006980:	e92d 4ff0 	stmdb	sp!, {r4, r5, r6, r7, r8, r9, sl, fp, lr}
 8006984:	b08f      	sub	sp, #60	; 0x3c
 8006986:	ed8d 0b06 	vstr	d0, [sp, #24]
 800698a:	9907      	ldr	r1, [sp, #28]
 800698c:	f021 4800 	bic.w	r8, r1, #2147483648	; 0x80000000
 8006990:	49ad      	ldr	r1, [pc, #692]	; (8006c48 <__ieee754_rem_pio2+0x2c8>)
 8006992:	4588      	cmp	r8, r1
 8006994:	ec53 2b10 	vmov	r2, r3, d0
 8006998:	4682      	mov	sl, r0
 800699a:	dc06      	bgt.n	80069aa <__ieee754_rem_pio2+0x2a>
 800699c:	2200      	movs	r2, #0
 800699e:	2300      	movs	r3, #0
 80069a0:	ed8a 0b00 	vstr	d0, [sl]
 80069a4:	e9c0 2302 	strd	r2, r3, [r0, #8]
 80069a8:	e188      	b.n	8006cbc <__ieee754_rem_pio2+0x33c>
 80069aa:	49a8      	ldr	r1, [pc, #672]	; (8006c4c <__ieee754_rem_pio2+0x2cc>)
 80069ac:	4588      	cmp	r8, r1
 80069ae:	dc72      	bgt.n	8006a96 <__ieee754_rem_pio2+0x116>
 80069b0:	9907      	ldr	r1, [sp, #28]
 80069b2:	4ea7      	ldr	r6, [pc, #668]	; (8006c50 <__ieee754_rem_pio2+0x2d0>)
 80069b4:	2900      	cmp	r1, #0
 80069b6:	ee10 0a10 	vmov	r0, s0
 80069ba:	4619      	mov	r1, r3
 80069bc:	a394      	add	r3, pc, #592	; (adr r3, 8006c10 <__ieee754_rem_pio2+0x290>)
 80069be:	e9d3 2300 	ldrd	r2, r3, [r3]
 80069c2:	dd33      	ble.n	8006a2c <__ieee754_rem_pio2+0xac>
 80069c4:	f7f9 fc24 	bl	8000210 <__aeabi_dsub>
 80069c8:	45b0      	cmp	r8, r6
 80069ca:	4604      	mov	r4, r0
 80069cc:	460d      	mov	r5, r1
 80069ce:	d010      	beq.n	80069f2 <__ieee754_rem_pio2+0x72>
 80069d0:	a391      	add	r3, pc, #580	; (adr r3, 8006c18 <__ieee754_rem_pio2+0x298>)
 80069d2:	e9d3 2300 	ldrd	r2, r3, [r3]
 80069d6:	f7f9 fc1b 	bl	8000210 <__aeabi_dsub>
 80069da:	4602      	mov	r2, r0
 80069dc:	460b      	mov	r3, r1
 80069de:	e9ca 2300 	strd	r2, r3, [sl]
 80069e2:	4620      	mov	r0, r4
 80069e4:	4629      	mov	r1, r5
 80069e6:	f7f9 fc13 	bl	8000210 <__aeabi_dsub>
 80069ea:	a38b      	add	r3, pc, #556	; (adr r3, 8006c18 <__ieee754_rem_pio2+0x298>)
 80069ec:	e9d3 2300 	ldrd	r2, r3, [r3]
 80069f0:	e016      	b.n	8006a20 <__ieee754_rem_pio2+0xa0>
 80069f2:	a38b      	add	r3, pc, #556	; (adr r3, 8006c20 <__ieee754_rem_pio2+0x2a0>)
 80069f4:	e9d3 2300 	ldrd	r2, r3, [r3]
 80069f8:	f7f9 fc0a 	bl	8000210 <__aeabi_dsub>
 80069fc:	a38a      	add	r3, pc, #552	; (adr r3, 8006c28 <__ieee754_rem_pio2+0x2a8>)
 80069fe:	e9d3 2300 	ldrd	r2, r3, [r3]
 8006a02:	4604      	mov	r4, r0
 8006a04:	460d      	mov	r5, r1
 8006a06:	f7f9 fc03 	bl	8000210 <__aeabi_dsub>
 8006a0a:	4602      	mov	r2, r0
 8006a0c:	460b      	mov	r3, r1
 8006a0e:	e9ca 2300 	strd	r2, r3, [sl]
 8006a12:	4620      	mov	r0, r4
 8006a14:	4629      	mov	r1, r5
 8006a16:	f7f9 fbfb 	bl	8000210 <__aeabi_dsub>
 8006a1a:	a383      	add	r3, pc, #524	; (adr r3, 8006c28 <__ieee754_rem_pio2+0x2a8>)
 8006a1c:	e9d3 2300 	ldrd	r2, r3, [r3]
 8006a20:	f7f9 fbf6 	bl	8000210 <__aeabi_dsub>
 8006a24:	e9ca 0102 	strd	r0, r1, [sl, #8]
 8006a28:	2001      	movs	r0, #1
 8006a2a:	e1a1      	b.n	8006d70 <__ieee754_rem_pio2+0x3f0>
 8006a2c:	f7f9 fbf2 	bl	8000214 <__adddf3>
 8006a30:	45b0      	cmp	r8, r6
 8006a32:	4604      	mov	r4, r0
 8006a34:	460d      	mov	r5, r1
 8006a36:	d010      	beq.n	8006a5a <__ieee754_rem_pio2+0xda>
 8006a38:	a377      	add	r3, pc, #476	; (adr r3, 8006c18 <__ieee754_rem_pio2+0x298>)
 8006a3a:	e9d3 2300 	ldrd	r2, r3, [r3]
 8006a3e:	f7f9 fbe9 	bl	8000214 <__adddf3>
 8006a42:	4602      	mov	r2, r0
 8006a44:	460b      	mov	r3, r1
 8006a46:	e9ca 2300 	strd	r2, r3, [sl]
 8006a4a:	4620      	mov	r0, r4
 8006a4c:	4629      	mov	r1, r5
 8006a4e:	f7f9 fbdf 	bl	8000210 <__aeabi_dsub>
 8006a52:	a371      	add	r3, pc, #452	; (adr r3, 8006c18 <__ieee754_rem_pio2+0x298>)
 8006a54:	e9d3 2300 	ldrd	r2, r3, [r3]
 8006a58:	e016      	b.n	8006a88 <__ieee754_rem_pio2+0x108>
 8006a5a:	a371      	add	r3, pc, #452	; (adr r3, 8006c20 <__ieee754_rem_pio2+0x2a0>)
 8006a5c:	e9d3 2300 	ldrd	r2, r3, [r3]
 8006a60:	f7f9 fbd8 	bl	8000214 <__adddf3>
 8006a64:	a370      	add	r3, pc, #448	; (adr r3, 8006c28 <__ieee754_rem_pio2+0x2a8>)
 8006a66:	e9d3 2300 	ldrd	r2, r3, [r3]
 8006a6a:	4604      	mov	r4, r0
 8006a6c:	460d      	mov	r5, r1
 8006a6e:	f7f9 fbd1 	bl	8000214 <__adddf3>
 8006a72:	4602      	mov	r2, r0
 8006a74:	460b      	mov	r3, r1
 8006a76:	e9ca 2300 	strd	r2, r3, [sl]
 8006a7a:	4620      	mov	r0, r4
 8006a7c:	4629      	mov	r1, r5
 8006a7e:	f7f9 fbc7 	bl	8000210 <__aeabi_dsub>
 8006a82:	a369      	add	r3, pc, #420	; (adr r3, 8006c28 <__ieee754_rem_pio2+0x2a8>)
 8006a84:	e9d3 2300 	ldrd	r2, r3, [r3]
 8006a88:	f7f9 fbc4 	bl	8000214 <__adddf3>
 8006a8c:	e9ca 0102 	strd	r0, r1, [sl, #8]
 8006a90:	f04f 30ff 	mov.w	r0, #4294967295
 8006a94:	e16c      	b.n	8006d70 <__ieee754_rem_pio2+0x3f0>
 8006a96:	496f      	ldr	r1, [pc, #444]	; (8006c54 <__ieee754_rem_pio2+0x2d4>)
 8006a98:	4588      	cmp	r8, r1
 8006a9a:	f300 8103 	bgt.w	8006ca4 <__ieee754_rem_pio2+0x324>
 8006a9e:	f000 fe83 	bl	80077a8 <fabs>
 8006aa2:	ec55 4b10 	vmov	r4, r5, d0
 8006aa6:	ee10 0a10 	vmov	r0, s0
 8006aaa:	a361      	add	r3, pc, #388	; (adr r3, 8006c30 <__ieee754_rem_pio2+0x2b0>)
 8006aac:	e9d3 2300 	ldrd	r2, r3, [r3]
 8006ab0:	4629      	mov	r1, r5
 8006ab2:	f7f9 fd61 	bl	8000578 <__aeabi_dmul>
 8006ab6:	2200      	movs	r2, #0
 8006ab8:	4b67      	ldr	r3, [pc, #412]	; (8006c58 <__ieee754_rem_pio2+0x2d8>)
 8006aba:	f7f9 fbab 	bl	8000214 <__adddf3>
 8006abe:	f7f9 fff5 	bl	8000aac <__aeabi_d2iz>
 8006ac2:	4683      	mov	fp, r0
 8006ac4:	f7f9 fcf2 	bl	80004ac <__aeabi_i2d>
 8006ac8:	a351      	add	r3, pc, #324	; (adr r3, 8006c10 <__ieee754_rem_pio2+0x290>)
 8006aca:	e9d3 2300 	ldrd	r2, r3, [r3]
 8006ace:	e9cd 0104 	strd	r0, r1, [sp, #16]
 8006ad2:	f7f9 fd51 	bl	8000578 <__aeabi_dmul>
 8006ad6:	4602      	mov	r2, r0
 8006ad8:	460b      	mov	r3, r1
 8006ada:	4620      	mov	r0, r4
 8006adc:	4629      	mov	r1, r5
 8006ade:	f7f9 fb97 	bl	8000210 <__aeabi_dsub>
 8006ae2:	a34d      	add	r3, pc, #308	; (adr r3, 8006c18 <__ieee754_rem_pio2+0x298>)
 8006ae4:	e9d3 2300 	ldrd	r2, r3, [r3]
 8006ae8:	4604      	mov	r4, r0
 8006aea:	460d      	mov	r5, r1
 8006aec:	e9dd 0104 	ldrd	r0, r1, [sp, #16]
 8006af0:	f7f9 fd42 	bl	8000578 <__aeabi_dmul>
 8006af4:	f1bb 0f1f 	cmp.w	fp, #31
 8006af8:	4606      	mov	r6, r0
 8006afa:	460f      	mov	r7, r1
 8006afc:	4620      	mov	r0, r4
 8006afe:	4629      	mov	r1, r5
 8006b00:	dc06      	bgt.n	8006b10 <__ieee754_rem_pio2+0x190>
 8006b02:	f10b 32ff 	add.w	r2, fp, #4294967295
 8006b06:	4b55      	ldr	r3, [pc, #340]	; (8006c5c <__ieee754_rem_pio2+0x2dc>)
 8006b08:	f853 3022 	ldr.w	r3, [r3, r2, lsl #2]
 8006b0c:	4598      	cmp	r8, r3
 8006b0e:	d176      	bne.n	8006bfe <__ieee754_rem_pio2+0x27e>
 8006b10:	463b      	mov	r3, r7
 8006b12:	4632      	mov	r2, r6
 8006b14:	f7f9 fb7c 	bl	8000210 <__aeabi_dsub>
 8006b18:	ea4f 5c28 	mov.w	ip, r8, asr #20
 8006b1c:	f3c1 530a 	ubfx	r3, r1, #20, #11
 8006b20:	ebc3 030c 	rsb	r3, r3, ip
 8006b24:	2b10      	cmp	r3, #16
 8006b26:	e9ca 0100 	strd	r0, r1, [sl]
 8006b2a:	f340 809b 	ble.w	8006c64 <__ieee754_rem_pio2+0x2e4>
 8006b2e:	a33c      	add	r3, pc, #240	; (adr r3, 8006c20 <__ieee754_rem_pio2+0x2a0>)
 8006b30:	e9d3 2300 	ldrd	r2, r3, [r3]
 8006b34:	e9dd 0104 	ldrd	r0, r1, [sp, #16]
 8006b38:	f8cd c00c 	str.w	ip, [sp, #12]
 8006b3c:	f7f9 fd1c 	bl	8000578 <__aeabi_dmul>
 8006b40:	4606      	mov	r6, r0
 8006b42:	460f      	mov	r7, r1
 8006b44:	4632      	mov	r2, r6
 8006b46:	463b      	mov	r3, r7
 8006b48:	4620      	mov	r0, r4
 8006b4a:	4629      	mov	r1, r5
 8006b4c:	f7f9 fb60 	bl	8000210 <__aeabi_dsub>
 8006b50:	4680      	mov	r8, r0
 8006b52:	4689      	mov	r9, r1
 8006b54:	4620      	mov	r0, r4
 8006b56:	4629      	mov	r1, r5
 8006b58:	4642      	mov	r2, r8
 8006b5a:	464b      	mov	r3, r9
 8006b5c:	f7f9 fb58 	bl	8000210 <__aeabi_dsub>
 8006b60:	4632      	mov	r2, r6
 8006b62:	463b      	mov	r3, r7
 8006b64:	f7f9 fb54 	bl	8000210 <__aeabi_dsub>
 8006b68:	a32f      	add	r3, pc, #188	; (adr r3, 8006c28 <__ieee754_rem_pio2+0x2a8>)
 8006b6a:	e9d3 2300 	ldrd	r2, r3, [r3]
 8006b6e:	4604      	mov	r4, r0
 8006b70:	460d      	mov	r5, r1
 8006b72:	e9dd 0104 	ldrd	r0, r1, [sp, #16]
 8006b76:	f7f9 fcff 	bl	8000578 <__aeabi_dmul>
 8006b7a:	4622      	mov	r2, r4
 8006b7c:	462b      	mov	r3, r5
 8006b7e:	f7f9 fb47 	bl	8000210 <__aeabi_dsub>
 8006b82:	4606      	mov	r6, r0
 8006b84:	460f      	mov	r7, r1
 8006b86:	463b      	mov	r3, r7
 8006b88:	4640      	mov	r0, r8
 8006b8a:	4649      	mov	r1, r9
 8006b8c:	4632      	mov	r2, r6
 8006b8e:	f7f9 fb3f 	bl	8000210 <__aeabi_dsub>
 8006b92:	f8dd c00c 	ldr.w	ip, [sp, #12]
 8006b96:	f3c1 530a 	ubfx	r3, r1, #20, #11
 8006b9a:	ebc3 030c 	rsb	r3, r3, ip
 8006b9e:	2b31      	cmp	r3, #49	; 0x31
 8006ba0:	e9ca 0100 	strd	r0, r1, [sl]
 8006ba4:	dd5c      	ble.n	8006c60 <__ieee754_rem_pio2+0x2e0>
 8006ba6:	a324      	add	r3, pc, #144	; (adr r3, 8006c38 <__ieee754_rem_pio2+0x2b8>)
 8006ba8:	e9d3 2300 	ldrd	r2, r3, [r3]
 8006bac:	e9dd 0104 	ldrd	r0, r1, [sp, #16]
 8006bb0:	f7f9 fce2 	bl	8000578 <__aeabi_dmul>
 8006bb4:	4606      	mov	r6, r0
 8006bb6:	460f      	mov	r7, r1
 8006bb8:	4632      	mov	r2, r6
 8006bba:	463b      	mov	r3, r7
 8006bbc:	4640      	mov	r0, r8
 8006bbe:	4649      	mov	r1, r9
 8006bc0:	f7f9 fb26 	bl	8000210 <__aeabi_dsub>
 8006bc4:	4604      	mov	r4, r0
 8006bc6:	460d      	mov	r5, r1
 8006bc8:	4622      	mov	r2, r4
 8006bca:	462b      	mov	r3, r5
 8006bcc:	4640      	mov	r0, r8
 8006bce:	4649      	mov	r1, r9
 8006bd0:	f7f9 fb1e 	bl	8000210 <__aeabi_dsub>
 8006bd4:	4632      	mov	r2, r6
 8006bd6:	463b      	mov	r3, r7
 8006bd8:	f7f9 fb1a 	bl	8000210 <__aeabi_dsub>
 8006bdc:	a318      	add	r3, pc, #96	; (adr r3, 8006c40 <__ieee754_rem_pio2+0x2c0>)
 8006bde:	e9d3 2300 	ldrd	r2, r3, [r3]
 8006be2:	4606      	mov	r6, r0
 8006be4:	460f      	mov	r7, r1
 8006be6:	e9dd 0104 	ldrd	r0, r1, [sp, #16]
 8006bea:	f7f9 fcc5 	bl	8000578 <__aeabi_dmul>
 8006bee:	4632      	mov	r2, r6
 8006bf0:	463b      	mov	r3, r7
 8006bf2:	f7f9 fb0d 	bl	8000210 <__aeabi_dsub>
 8006bf6:	4606      	mov	r6, r0
 8006bf8:	460f      	mov	r7, r1
 8006bfa:	4620      	mov	r0, r4
 8006bfc:	4629      	mov	r1, r5
 8006bfe:	4632      	mov	r2, r6
 8006c00:	463b      	mov	r3, r7
 8006c02:	f7f9 fb05 	bl	8000210 <__aeabi_dsub>
 8006c06:	e9ca 0100 	strd	r0, r1, [sl]
 8006c0a:	e02b      	b.n	8006c64 <__ieee754_rem_pio2+0x2e4>
 8006c0c:	f3af 8000 	nop.w
 8006c10:	54400000 	.word	0x54400000
 8006c14:	3ff921fb 	.word	0x3ff921fb
 8006c18:	1a626331 	.word	0x1a626331
 8006c1c:	3dd0b461 	.word	0x3dd0b461
 8006c20:	1a600000 	.word	0x1a600000
 8006c24:	3dd0b461 	.word	0x3dd0b461
 8006c28:	2e037073 	.word	0x2e037073
 8006c2c:	3ba3198a 	.word	0x3ba3198a
 8006c30:	6dc9c883 	.word	0x6dc9c883
 8006c34:	3fe45f30 	.word	0x3fe45f30
 8006c38:	2e000000 	.word	0x2e000000
 8006c3c:	3ba3198a 	.word	0x3ba3198a
 8006c40:	252049c1 	.word	0x252049c1
 8006c44:	397b839a 	.word	0x397b839a
 8006c48:	3fe921fb 	.word	0x3fe921fb
 8006c4c:	4002d97b 	.word	0x4002d97b
 8006c50:	3ff921fb 	.word	0x3ff921fb
 8006c54:	413921fb 	.word	0x413921fb
 8006c58:	3fe00000 	.word	0x3fe00000
 8006c5c:	08007bf8 	.word	0x08007bf8
 8006c60:	4644      	mov	r4, r8
 8006c62:	464d      	mov	r5, r9
 8006c64:	e9da 8900 	ldrd	r8, r9, [sl]
 8006c68:	4620      	mov	r0, r4
 8006c6a:	4642      	mov	r2, r8
 8006c6c:	464b      	mov	r3, r9
 8006c6e:	4629      	mov	r1, r5
 8006c70:	f7f9 face 	bl	8000210 <__aeabi_dsub>
 8006c74:	4632      	mov	r2, r6
 8006c76:	463b      	mov	r3, r7
 8006c78:	f7f9 faca 	bl	8000210 <__aeabi_dsub>
 8006c7c:	9a07      	ldr	r2, [sp, #28]
 8006c7e:	2a00      	cmp	r2, #0
 8006c80:	e9ca 0102 	strd	r0, r1, [sl, #8]
 8006c84:	da73      	bge.n	8006d6e <__ieee754_rem_pio2+0x3ee>
 8006c86:	f109 4300 	add.w	r3, r9, #2147483648	; 0x80000000
 8006c8a:	f8ca 3004 	str.w	r3, [sl, #4]
 8006c8e:	f101 4300 	add.w	r3, r1, #2147483648	; 0x80000000
 8006c92:	f8ca 0008 	str.w	r0, [sl, #8]
 8006c96:	f8ca 8000 	str.w	r8, [sl]
 8006c9a:	f8ca 300c 	str.w	r3, [sl, #12]
 8006c9e:	f1cb 0000 	rsb	r0, fp, #0
 8006ca2:	e065      	b.n	8006d70 <__ieee754_rem_pio2+0x3f0>
 8006ca4:	4934      	ldr	r1, [pc, #208]	; (8006d78 <__ieee754_rem_pio2+0x3f8>)
 8006ca6:	4588      	cmp	r8, r1
 8006ca8:	dd0a      	ble.n	8006cc0 <__ieee754_rem_pio2+0x340>
 8006caa:	ee10 0a10 	vmov	r0, s0
 8006cae:	4619      	mov	r1, r3
 8006cb0:	f7f9 faae 	bl	8000210 <__aeabi_dsub>
 8006cb4:	e9ca 0102 	strd	r0, r1, [sl, #8]
 8006cb8:	e9ca 0100 	strd	r0, r1, [sl]
 8006cbc:	2000      	movs	r0, #0
 8006cbe:	e057      	b.n	8006d70 <__ieee754_rem_pio2+0x3f0>
 8006cc0:	ea4f 5628 	mov.w	r6, r8, asr #20
 8006cc4:	f2a6 4616 	subw	r6, r6, #1046	; 0x416
 8006cc8:	eba8 5506 	sub.w	r5, r8, r6, lsl #20
 8006ccc:	4610      	mov	r0, r2
 8006cce:	4629      	mov	r1, r5
 8006cd0:	ee10 4a10 	vmov	r4, s0
 8006cd4:	f7f9 feea 	bl	8000aac <__aeabi_d2iz>
 8006cd8:	f7f9 fbe8 	bl	80004ac <__aeabi_i2d>
 8006cdc:	4602      	mov	r2, r0
 8006cde:	460b      	mov	r3, r1
 8006ce0:	4620      	mov	r0, r4
 8006ce2:	4629      	mov	r1, r5
 8006ce4:	e9cd 2308 	strd	r2, r3, [sp, #32]
 8006ce8:	f7f9 fa92 	bl	8000210 <__aeabi_dsub>
 8006cec:	2200      	movs	r2, #0
 8006cee:	4b23      	ldr	r3, [pc, #140]	; (8006d7c <__ieee754_rem_pio2+0x3fc>)
 8006cf0:	f7f9 fc42 	bl	8000578 <__aeabi_dmul>
 8006cf4:	4604      	mov	r4, r0
 8006cf6:	460d      	mov	r5, r1
 8006cf8:	f7f9 fed8 	bl	8000aac <__aeabi_d2iz>
 8006cfc:	f7f9 fbd6 	bl	80004ac <__aeabi_i2d>
 8006d00:	4602      	mov	r2, r0
 8006d02:	460b      	mov	r3, r1
 8006d04:	4620      	mov	r0, r4
 8006d06:	4629      	mov	r1, r5
 8006d08:	e9cd 230a 	strd	r2, r3, [sp, #40]	; 0x28
 8006d0c:	f7f9 fa80 	bl	8000210 <__aeabi_dsub>
 8006d10:	2200      	movs	r2, #0
 8006d12:	4b1a      	ldr	r3, [pc, #104]	; (8006d7c <__ieee754_rem_pio2+0x3fc>)
 8006d14:	f7f9 fc30 	bl	8000578 <__aeabi_dmul>
 8006d18:	e9cd 010c 	strd	r0, r1, [sp, #48]	; 0x30
 8006d1c:	2403      	movs	r4, #3
 8006d1e:	a908      	add	r1, sp, #32
 8006d20:	1e65      	subs	r5, r4, #1
 8006d22:	eb01 03c5 	add.w	r3, r1, r5, lsl #3
 8006d26:	e9d3 0100 	ldrd	r0, r1, [r3]
 8006d2a:	2200      	movs	r2, #0
 8006d2c:	2300      	movs	r3, #0
 8006d2e:	f7f9 fe8b 	bl	8000a48 <__aeabi_dcmpeq>
 8006d32:	b108      	cbz	r0, 8006d38 <__ieee754_rem_pio2+0x3b8>
 8006d34:	462c      	mov	r4, r5
 8006d36:	e7f2      	b.n	8006d1e <__ieee754_rem_pio2+0x39e>
 8006d38:	2302      	movs	r3, #2
 8006d3a:	9300      	str	r3, [sp, #0]
 8006d3c:	4b10      	ldr	r3, [pc, #64]	; (8006d80 <__ieee754_rem_pio2+0x400>)
 8006d3e:	9301      	str	r3, [sp, #4]
 8006d40:	4632      	mov	r2, r6
 8006d42:	a808      	add	r0, sp, #32
 8006d44:	4651      	mov	r1, sl
 8006d46:	4623      	mov	r3, r4
 8006d48:	f000 f912 	bl	8006f70 <__kernel_rem_pio2>
 8006d4c:	9a07      	ldr	r2, [sp, #28]
 8006d4e:	2a00      	cmp	r2, #0
 8006d50:	da0e      	bge.n	8006d70 <__ieee754_rem_pio2+0x3f0>
 8006d52:	f8da 3004 	ldr.w	r3, [sl, #4]
 8006d56:	f103 4300 	add.w	r3, r3, #2147483648	; 0x80000000
 8006d5a:	f8ca 3004 	str.w	r3, [sl, #4]
 8006d5e:	f8da 300c 	ldr.w	r3, [sl, #12]
 8006d62:	f103 4300 	add.w	r3, r3, #2147483648	; 0x80000000
 8006d66:	f8ca 300c 	str.w	r3, [sl, #12]
 8006d6a:	4240      	negs	r0, r0
 8006d6c:	e000      	b.n	8006d70 <__ieee754_rem_pio2+0x3f0>
 8006d6e:	4658      	mov	r0, fp
 8006d70:	b00f      	add	sp, #60	; 0x3c
 8006d72:	e8bd 8ff0 	ldmia.w	sp!, {r4, r5, r6, r7, r8, r9, sl, fp, pc}
 8006d76:	bf00      	nop
 8006d78:	7fefffff 	.word	0x7fefffff
 8006d7c:	41700000 	.word	0x41700000
 8006d80:	08007c78 	.word	0x08007c78
 8006d84:	f3af 8000 	nop.w

08006d88 <__kernel_cos>:
 8006d88:	e92d 4ff0 	stmdb	sp!, {r4, r5, r6, r7, r8, r9, sl, fp, lr}
 8006d8c:	ec57 6b10 	vmov	r6, r7, d0
 8006d90:	f027 4900 	bic.w	r9, r7, #2147483648	; 0x80000000
 8006d94:	b085      	sub	sp, #20
 8006d96:	f1b9 5f79 	cmp.w	r9, #1044381696	; 0x3e400000
 8006d9a:	ed8d 1b00 	vstr	d1, [sp]
 8006d9e:	da07      	bge.n	8006db0 <__kernel_cos+0x28>
 8006da0:	ee10 0a10 	vmov	r0, s0
 8006da4:	4639      	mov	r1, r7
 8006da6:	f7f9 fe81 	bl	8000aac <__aeabi_d2iz>
 8006daa:	2800      	cmp	r0, #0
 8006dac:	f000 80b2 	beq.w	8006f14 <__kernel_cos+0x18c>
 8006db0:	4632      	mov	r2, r6
 8006db2:	463b      	mov	r3, r7
 8006db4:	4630      	mov	r0, r6
 8006db6:	4639      	mov	r1, r7
 8006db8:	f7f9 fbde 	bl	8000578 <__aeabi_dmul>
 8006dbc:	a35e      	add	r3, pc, #376	; (adr r3, 8006f38 <__kernel_cos+0x1b0>)
 8006dbe:	e9d3 2300 	ldrd	r2, r3, [r3]
 8006dc2:	4604      	mov	r4, r0
 8006dc4:	460d      	mov	r5, r1
 8006dc6:	f7f9 fbd7 	bl	8000578 <__aeabi_dmul>
 8006dca:	a35d      	add	r3, pc, #372	; (adr r3, 8006f40 <__kernel_cos+0x1b8>)
 8006dcc:	e9d3 2300 	ldrd	r2, r3, [r3]
 8006dd0:	f7f9 fa20 	bl	8000214 <__adddf3>
 8006dd4:	4602      	mov	r2, r0
 8006dd6:	460b      	mov	r3, r1
 8006dd8:	4620      	mov	r0, r4
 8006dda:	4629      	mov	r1, r5
 8006ddc:	f7f9 fbcc 	bl	8000578 <__aeabi_dmul>
 8006de0:	a359      	add	r3, pc, #356	; (adr r3, 8006f48 <__kernel_cos+0x1c0>)
 8006de2:	e9d3 2300 	ldrd	r2, r3, [r3]
 8006de6:	f7f9 fa13 	bl	8000210 <__aeabi_dsub>
 8006dea:	4602      	mov	r2, r0
 8006dec:	460b      	mov	r3, r1
 8006dee:	4620      	mov	r0, r4
 8006df0:	4629      	mov	r1, r5
 8006df2:	f7f9 fbc1 	bl	8000578 <__aeabi_dmul>
 8006df6:	a356      	add	r3, pc, #344	; (adr r3, 8006f50 <__kernel_cos+0x1c8>)
 8006df8:	e9d3 2300 	ldrd	r2, r3, [r3]
 8006dfc:	f7f9 fa0a 	bl	8000214 <__adddf3>
 8006e00:	4602      	mov	r2, r0
 8006e02:	460b      	mov	r3, r1
 8006e04:	4620      	mov	r0, r4
 8006e06:	4629      	mov	r1, r5
 8006e08:	f7f9 fbb6 	bl	8000578 <__aeabi_dmul>
 8006e0c:	a352      	add	r3, pc, #328	; (adr r3, 8006f58 <__kernel_cos+0x1d0>)
 8006e0e:	e9d3 2300 	ldrd	r2, r3, [r3]
 8006e12:	f7f9 f9fd 	bl	8000210 <__aeabi_dsub>
 8006e16:	4602      	mov	r2, r0
 8006e18:	460b      	mov	r3, r1
 8006e1a:	4620      	mov	r0, r4
 8006e1c:	4629      	mov	r1, r5
 8006e1e:	f7f9 fbab 	bl	8000578 <__aeabi_dmul>
 8006e22:	a34f      	add	r3, pc, #316	; (adr r3, 8006f60 <__kernel_cos+0x1d8>)
 8006e24:	e9d3 2300 	ldrd	r2, r3, [r3]
 8006e28:	f7f9 f9f4 	bl	8000214 <__adddf3>
 8006e2c:	460b      	mov	r3, r1
 8006e2e:	4602      	mov	r2, r0
 8006e30:	4629      	mov	r1, r5
 8006e32:	4620      	mov	r0, r4
 8006e34:	f7f9 fba0 	bl	8000578 <__aeabi_dmul>
 8006e38:	4b3b      	ldr	r3, [pc, #236]	; (8006f28 <__kernel_cos+0x1a0>)
 8006e3a:	4599      	cmp	r9, r3
 8006e3c:	4682      	mov	sl, r0
 8006e3e:	468b      	mov	fp, r1
 8006e40:	dc26      	bgt.n	8006e90 <__kernel_cos+0x108>
 8006e42:	4620      	mov	r0, r4
 8006e44:	4629      	mov	r1, r5
 8006e46:	2200      	movs	r2, #0
 8006e48:	4b38      	ldr	r3, [pc, #224]	; (8006f2c <__kernel_cos+0x1a4>)
 8006e4a:	f7f9 fb95 	bl	8000578 <__aeabi_dmul>
 8006e4e:	4652      	mov	r2, sl
 8006e50:	4680      	mov	r8, r0
 8006e52:	4689      	mov	r9, r1
 8006e54:	4620      	mov	r0, r4
 8006e56:	4629      	mov	r1, r5
 8006e58:	465b      	mov	r3, fp
 8006e5a:	f7f9 fb8d 	bl	8000578 <__aeabi_dmul>
 8006e5e:	e9dd 2300 	ldrd	r2, r3, [sp]
 8006e62:	4604      	mov	r4, r0
 8006e64:	460d      	mov	r5, r1
 8006e66:	4630      	mov	r0, r6
 8006e68:	4639      	mov	r1, r7
 8006e6a:	f7f9 fb85 	bl	8000578 <__aeabi_dmul>
 8006e6e:	4602      	mov	r2, r0
 8006e70:	460b      	mov	r3, r1
 8006e72:	4620      	mov	r0, r4
 8006e74:	4629      	mov	r1, r5
 8006e76:	f7f9 f9cb 	bl	8000210 <__aeabi_dsub>
 8006e7a:	4602      	mov	r2, r0
 8006e7c:	460b      	mov	r3, r1
 8006e7e:	4640      	mov	r0, r8
 8006e80:	4649      	mov	r1, r9
 8006e82:	f7f9 f9c5 	bl	8000210 <__aeabi_dsub>
 8006e86:	4602      	mov	r2, r0
 8006e88:	460b      	mov	r3, r1
 8006e8a:	2000      	movs	r0, #0
 8006e8c:	4928      	ldr	r1, [pc, #160]	; (8006f30 <__kernel_cos+0x1a8>)
 8006e8e:	e03e      	b.n	8006f0e <__kernel_cos+0x186>
 8006e90:	4b28      	ldr	r3, [pc, #160]	; (8006f34 <__kernel_cos+0x1ac>)
 8006e92:	4599      	cmp	r9, r3
 8006e94:	dc05      	bgt.n	8006ea2 <__kernel_cos+0x11a>
 8006e96:	f5a9 1300 	sub.w	r3, r9, #2097152	; 0x200000
 8006e9a:	2200      	movs	r2, #0
 8006e9c:	4690      	mov	r8, r2
 8006e9e:	4699      	mov	r9, r3
 8006ea0:	e003      	b.n	8006eaa <__kernel_cos+0x122>
 8006ea2:	f8df 90c4 	ldr.w	r9, [pc, #196]	; 8006f68 <__kernel_cos+0x1e0>
 8006ea6:	f04f 0800 	mov.w	r8, #0
 8006eaa:	4642      	mov	r2, r8
 8006eac:	464b      	mov	r3, r9
 8006eae:	2000      	movs	r0, #0
 8006eb0:	491f      	ldr	r1, [pc, #124]	; (8006f30 <__kernel_cos+0x1a8>)
 8006eb2:	f7f9 f9ad 	bl	8000210 <__aeabi_dsub>
 8006eb6:	2200      	movs	r2, #0
 8006eb8:	e9cd 0102 	strd	r0, r1, [sp, #8]
 8006ebc:	4b1b      	ldr	r3, [pc, #108]	; (8006f2c <__kernel_cos+0x1a4>)
 8006ebe:	4620      	mov	r0, r4
 8006ec0:	4629      	mov	r1, r5
 8006ec2:	f7f9 fb59 	bl	8000578 <__aeabi_dmul>
 8006ec6:	4642      	mov	r2, r8
 8006ec8:	464b      	mov	r3, r9
 8006eca:	f7f9 f9a1 	bl	8000210 <__aeabi_dsub>
 8006ece:	4652      	mov	r2, sl
 8006ed0:	4680      	mov	r8, r0
 8006ed2:	4689      	mov	r9, r1
 8006ed4:	4620      	mov	r0, r4
 8006ed6:	4629      	mov	r1, r5
 8006ed8:	465b      	mov	r3, fp
 8006eda:	f7f9 fb4d 	bl	8000578 <__aeabi_dmul>
 8006ede:	e9dd 2300 	ldrd	r2, r3, [sp]
 8006ee2:	4604      	mov	r4, r0
 8006ee4:	460d      	mov	r5, r1
 8006ee6:	4630      	mov	r0, r6
 8006ee8:	4639      	mov	r1, r7
 8006eea:	f7f9 fb45 	bl	8000578 <__aeabi_dmul>
 8006eee:	4602      	mov	r2, r0
 8006ef0:	460b      	mov	r3, r1
 8006ef2:	4620      	mov	r0, r4
 8006ef4:	4629      	mov	r1, r5
 8006ef6:	f7f9 f98b 	bl	8000210 <__aeabi_dsub>
 8006efa:	4602      	mov	r2, r0
 8006efc:	460b      	mov	r3, r1
 8006efe:	4640      	mov	r0, r8
 8006f00:	4649      	mov	r1, r9
 8006f02:	f7f9 f985 	bl	8000210 <__aeabi_dsub>
 8006f06:	4602      	mov	r2, r0
 8006f08:	460b      	mov	r3, r1
 8006f0a:	e9dd 0102 	ldrd	r0, r1, [sp, #8]
 8006f0e:	f7f9 f97f 	bl	8000210 <__aeabi_dsub>
 8006f12:	e001      	b.n	8006f18 <__kernel_cos+0x190>
 8006f14:	4906      	ldr	r1, [pc, #24]	; (8006f30 <__kernel_cos+0x1a8>)
 8006f16:	2000      	movs	r0, #0
 8006f18:	ec41 0b10 	vmov	d0, r0, r1
 8006f1c:	b005      	add	sp, #20
 8006f1e:	e8bd 8ff0 	ldmia.w	sp!, {r4, r5, r6, r7, r8, r9, sl, fp, pc}
 8006f22:	bf00      	nop
 8006f24:	f3af 8000 	nop.w
 8006f28:	3fd33332 	.word	0x3fd33332
 8006f2c:	3fe00000 	.word	0x3fe00000
 8006f30:	3ff00000 	.word	0x3ff00000
 8006f34:	3fe90000 	.word	0x3fe90000
 8006f38:	be8838d4 	.word	0xbe8838d4
 8006f3c:	bda8fae9 	.word	0xbda8fae9
 8006f40:	bdb4b1c4 	.word	0xbdb4b1c4
 8006f44:	3e21ee9e 	.word	0x3e21ee9e
 8006f48:	809c52ad 	.word	0x809c52ad
 8006f4c:	3e927e4f 	.word	0x3e927e4f
 8006f50:	19cb1590 	.word	0x19cb1590
 8006f54:	3efa01a0 	.word	0x3efa01a0
 8006f58:	16c15177 	.word	0x16c15177
 8006f5c:	3f56c16c 	.word	0x3f56c16c
 8006f60:	5555554c 	.word	0x5555554c
 8006f64:	3fa55555 	.word	0x3fa55555
 8006f68:	3fd20000 	.word	0x3fd20000
 8006f6c:	f3af 8000 	nop.w

08006f70 <__kernel_rem_pio2>:
 8006f70:	e92d 4ff0 	stmdb	sp!, {r4, r5, r6, r7, r8, r9, sl, fp, lr}
 8006f74:	f5ad 7d1b 	sub.w	sp, sp, #620	; 0x26c
 8006f78:	f1a2 0803 	sub.w	r8, r2, #3
 8006f7c:	9309      	str	r3, [sp, #36]	; 0x24
 8006f7e:	9ca4      	ldr	r4, [sp, #656]	; 0x290
 8006f80:	4bb1      	ldr	r3, [pc, #708]	; (8007248 <__kernel_rem_pio2+0x2d8>)
 8006f82:	9d09      	ldr	r5, [sp, #36]	; 0x24
 8006f84:	f853 3024 	ldr.w	r3, [r3, r4, lsl #2]
 8006f88:	9304      	str	r3, [sp, #16]
 8006f8a:	3d01      	subs	r5, #1
 8006f8c:	9506      	str	r5, [sp, #24]
 8006f8e:	46a9      	mov	r9, r5
 8006f90:	9d04      	ldr	r5, [sp, #16]
 8006f92:	900a      	str	r0, [sp, #40]	; 0x28
 8006f94:	2318      	movs	r3, #24
 8006f96:	fb98 f8f3 	sdiv	r8, r8, r3
 8006f9a:	44a9      	add	r9, r5
 8006f9c:	9d06      	ldr	r5, [sp, #24]
 8006f9e:	9108      	str	r1, [sp, #32]
 8006fa0:	ea28 78e8 	bic.w	r8, r8, r8, asr #31
 8006fa4:	ebc5 0608 	rsb	r6, r5, r8
 8006fa8:	9da5      	ldr	r5, [sp, #660]	; 0x294
 8006faa:	ea6f 0408 	mvn.w	r4, r8
 8006fae:	eb05 0786 	add.w	r7, r5, r6, lsl #2
 8006fb2:	fb03 2404 	mla	r4, r3, r4, r2
 8006fb6:	2500      	movs	r5, #0
 8006fb8:	454d      	cmp	r5, r9
 8006fba:	dc0f      	bgt.n	8006fdc <__kernel_rem_pio2+0x6c>
 8006fbc:	42f5      	cmn	r5, r6
 8006fbe:	d404      	bmi.n	8006fca <__kernel_rem_pio2+0x5a>
 8006fc0:	f857 0025 	ldr.w	r0, [r7, r5, lsl #2]
 8006fc4:	f7f9 fa72 	bl	80004ac <__aeabi_i2d>
 8006fc8:	e001      	b.n	8006fce <__kernel_rem_pio2+0x5e>
 8006fca:	2000      	movs	r0, #0
 8006fcc:	2100      	movs	r1, #0
 8006fce:	aa22      	add	r2, sp, #136	; 0x88
 8006fd0:	eb02 03c5 	add.w	r3, r2, r5, lsl #3
 8006fd4:	e9c3 0100 	strd	r0, r1, [r3]
 8006fd8:	3501      	adds	r5, #1
 8006fda:	e7ed      	b.n	8006fb8 <__kernel_rem_pio2+0x48>
 8006fdc:	2500      	movs	r5, #0
 8006fde:	9a04      	ldr	r2, [sp, #16]
 8006fe0:	4295      	cmp	r5, r2
 8006fe2:	dc26      	bgt.n	8007032 <__kernel_rem_pio2+0xc2>
 8006fe4:	f8dd a024 	ldr.w	sl, [sp, #36]	; 0x24
 8006fe8:	f8dd b028 	ldr.w	fp, [sp, #40]	; 0x28
 8006fec:	44aa      	add	sl, r5
 8006fee:	ab22      	add	r3, sp, #136	; 0x88
 8006ff0:	eb03 0aca 	add.w	sl, r3, sl, lsl #3
 8006ff4:	2600      	movs	r6, #0
 8006ff6:	2700      	movs	r7, #0
 8006ff8:	f04f 0900 	mov.w	r9, #0
 8006ffc:	9b06      	ldr	r3, [sp, #24]
 8006ffe:	4599      	cmp	r9, r3
 8007000:	dc10      	bgt.n	8007024 <__kernel_rem_pio2+0xb4>
 8007002:	e97a 2302 	ldrd	r2, r3, [sl, #-8]!
 8007006:	e8fb 0102 	ldrd	r0, r1, [fp], #8
 800700a:	f7f9 fab5 	bl	8000578 <__aeabi_dmul>
 800700e:	4602      	mov	r2, r0
 8007010:	460b      	mov	r3, r1
 8007012:	4630      	mov	r0, r6
 8007014:	4639      	mov	r1, r7
 8007016:	f7f9 f8fd 	bl	8000214 <__adddf3>
 800701a:	f109 0901 	add.w	r9, r9, #1
 800701e:	4606      	mov	r6, r0
 8007020:	460f      	mov	r7, r1
 8007022:	e7eb      	b.n	8006ffc <__kernel_rem_pio2+0x8c>
 8007024:	a99a      	add	r1, sp, #616	; 0x268
 8007026:	eb01 03c5 	add.w	r3, r1, r5, lsl #3
 800702a:	e943 6728 	strd	r6, r7, [r3, #-160]	; 0xa0
 800702e:	3501      	adds	r5, #1
 8007030:	e7d5      	b.n	8006fde <__kernel_rem_pio2+0x6e>
 8007032:	9d04      	ldr	r5, [sp, #16]
 8007034:	f8dd a010 	ldr.w	sl, [sp, #16]
 8007038:	a90e      	add	r1, sp, #56	; 0x38
 800703a:	eb01 0185 	add.w	r1, r1, r5, lsl #2
 800703e:	9da5      	ldr	r5, [sp, #660]	; 0x294
 8007040:	910b      	str	r1, [sp, #44]	; 0x2c
 8007042:	eb05 0588 	add.w	r5, r5, r8, lsl #2
 8007046:	950d      	str	r5, [sp, #52]	; 0x34
 8007048:	ea4f 09ca 	mov.w	r9, sl, lsl #3
 800704c:	ab9a      	add	r3, sp, #616	; 0x268
 800704e:	444b      	add	r3, r9
 8007050:	e953 6728 	ldrd	r6, r7, [r3, #-160]	; 0xa0
 8007054:	a972      	add	r1, sp, #456	; 0x1c8
 8007056:	f10d 0834 	add.w	r8, sp, #52	; 0x34
 800705a:	4489      	add	r9, r1
 800705c:	4655      	mov	r5, sl
 800705e:	2d00      	cmp	r5, #0
 8007060:	dd23      	ble.n	80070aa <__kernel_rem_pio2+0x13a>
 8007062:	2200      	movs	r2, #0
 8007064:	4b79      	ldr	r3, [pc, #484]	; (800724c <__kernel_rem_pio2+0x2dc>)
 8007066:	4630      	mov	r0, r6
 8007068:	4639      	mov	r1, r7
 800706a:	f7f9 fa85 	bl	8000578 <__aeabi_dmul>
 800706e:	f7f9 fd1d 	bl	8000aac <__aeabi_d2iz>
 8007072:	f7f9 fa1b 	bl	80004ac <__aeabi_i2d>
 8007076:	2200      	movs	r2, #0
 8007078:	4b75      	ldr	r3, [pc, #468]	; (8007250 <__kernel_rem_pio2+0x2e0>)
 800707a:	e9cd 0102 	strd	r0, r1, [sp, #8]
 800707e:	f7f9 fa7b 	bl	8000578 <__aeabi_dmul>
 8007082:	4602      	mov	r2, r0
 8007084:	460b      	mov	r3, r1
 8007086:	4630      	mov	r0, r6
 8007088:	4639      	mov	r1, r7
 800708a:	f7f9 f8c1 	bl	8000210 <__aeabi_dsub>
 800708e:	f7f9 fd0d 	bl	8000aac <__aeabi_d2iz>
 8007092:	e979 2302 	ldrd	r2, r3, [r9, #-8]!
 8007096:	f848 0f04 	str.w	r0, [r8, #4]!
 800709a:	e9dd 0102 	ldrd	r0, r1, [sp, #8]
 800709e:	f7f9 f8b9 	bl	8000214 <__adddf3>
 80070a2:	3d01      	subs	r5, #1
 80070a4:	4606      	mov	r6, r0
 80070a6:	460f      	mov	r7, r1
 80070a8:	e7d9      	b.n	800705e <__kernel_rem_pio2+0xee>
 80070aa:	ec47 6b10 	vmov	d0, r6, r7
 80070ae:	4620      	mov	r0, r4
 80070b0:	f000 fc1a 	bl	80078e8 <scalbn>
 80070b4:	ec57 6b10 	vmov	r6, r7, d0
 80070b8:	2200      	movs	r2, #0
 80070ba:	f04f 537f 	mov.w	r3, #1069547520	; 0x3fc00000
 80070be:	ee10 0a10 	vmov	r0, s0
 80070c2:	4639      	mov	r1, r7
 80070c4:	f7f9 fa58 	bl	8000578 <__aeabi_dmul>
 80070c8:	ec41 0b10 	vmov	d0, r0, r1
 80070cc:	f000 fb80 	bl	80077d0 <floor>
 80070d0:	2200      	movs	r2, #0
 80070d2:	ec51 0b10 	vmov	r0, r1, d0
 80070d6:	4b5f      	ldr	r3, [pc, #380]	; (8007254 <__kernel_rem_pio2+0x2e4>)
 80070d8:	f7f9 fa4e 	bl	8000578 <__aeabi_dmul>
 80070dc:	4602      	mov	r2, r0
 80070de:	460b      	mov	r3, r1
 80070e0:	4630      	mov	r0, r6
 80070e2:	4639      	mov	r1, r7
 80070e4:	f7f9 f894 	bl	8000210 <__aeabi_dsub>
 80070e8:	460f      	mov	r7, r1
 80070ea:	4606      	mov	r6, r0
 80070ec:	f7f9 fcde 	bl	8000aac <__aeabi_d2iz>
 80070f0:	9002      	str	r0, [sp, #8]
 80070f2:	f7f9 f9db 	bl	80004ac <__aeabi_i2d>
 80070f6:	4602      	mov	r2, r0
 80070f8:	460b      	mov	r3, r1
 80070fa:	4630      	mov	r0, r6
 80070fc:	4639      	mov	r1, r7
 80070fe:	f7f9 f887 	bl	8000210 <__aeabi_dsub>
 8007102:	2c00      	cmp	r4, #0
 8007104:	4606      	mov	r6, r0
 8007106:	460f      	mov	r7, r1
 8007108:	dd16      	ble.n	8007138 <__kernel_rem_pio2+0x1c8>
 800710a:	f10a 32ff 	add.w	r2, sl, #4294967295
 800710e:	ab0e      	add	r3, sp, #56	; 0x38
 8007110:	9d02      	ldr	r5, [sp, #8]
 8007112:	f853 1022 	ldr.w	r1, [r3, r2, lsl #2]
 8007116:	f1c4 0318 	rsb	r3, r4, #24
 800711a:	fa41 f003 	asr.w	r0, r1, r3
 800711e:	fa00 f303 	lsl.w	r3, r0, r3
 8007122:	1acb      	subs	r3, r1, r3
 8007124:	a90e      	add	r1, sp, #56	; 0x38
 8007126:	4405      	add	r5, r0
 8007128:	f841 3022 	str.w	r3, [r1, r2, lsl #2]
 800712c:	f1c4 0217 	rsb	r2, r4, #23
 8007130:	9502      	str	r5, [sp, #8]
 8007132:	fa43 f902 	asr.w	r9, r3, r2
 8007136:	e00f      	b.n	8007158 <__kernel_rem_pio2+0x1e8>
 8007138:	d107      	bne.n	800714a <__kernel_rem_pio2+0x1da>
 800713a:	f10a 33ff 	add.w	r3, sl, #4294967295
 800713e:	aa0e      	add	r2, sp, #56	; 0x38
 8007140:	f852 3023 	ldr.w	r3, [r2, r3, lsl #2]
 8007144:	ea4f 59e3 	mov.w	r9, r3, asr #23
 8007148:	e006      	b.n	8007158 <__kernel_rem_pio2+0x1e8>
 800714a:	2200      	movs	r2, #0
 800714c:	4b42      	ldr	r3, [pc, #264]	; (8007258 <__kernel_rem_pio2+0x2e8>)
 800714e:	f7f9 fc99 	bl	8000a84 <__aeabi_dcmpge>
 8007152:	b928      	cbnz	r0, 8007160 <__kernel_rem_pio2+0x1f0>
 8007154:	4681      	mov	r9, r0
 8007156:	e04d      	b.n	80071f4 <__kernel_rem_pio2+0x284>
 8007158:	f1b9 0f00 	cmp.w	r9, #0
 800715c:	dc02      	bgt.n	8007164 <__kernel_rem_pio2+0x1f4>
 800715e:	e049      	b.n	80071f4 <__kernel_rem_pio2+0x284>
 8007160:	f04f 0902 	mov.w	r9, #2
 8007164:	9d02      	ldr	r5, [sp, #8]
 8007166:	2300      	movs	r3, #0
 8007168:	3501      	adds	r5, #1
 800716a:	9502      	str	r5, [sp, #8]
 800716c:	aa0e      	add	r2, sp, #56	; 0x38
 800716e:	461d      	mov	r5, r3
 8007170:	4553      	cmp	r3, sl
 8007172:	da0f      	bge.n	8007194 <__kernel_rem_pio2+0x224>
 8007174:	f852 1b04 	ldr.w	r1, [r2], #4
 8007178:	b91d      	cbnz	r5, 8007182 <__kernel_rem_pio2+0x212>
 800717a:	b149      	cbz	r1, 8007190 <__kernel_rem_pio2+0x220>
 800717c:	f1c1 7180 	rsb	r1, r1, #16777216	; 0x1000000
 8007180:	e003      	b.n	800718a <__kernel_rem_pio2+0x21a>
 8007182:	f1c1 11ff 	rsb	r1, r1, #16711935	; 0xff00ff
 8007186:	f501 417f 	add.w	r1, r1, #65280	; 0xff00
 800718a:	f842 1c04 	str.w	r1, [r2, #-4]
 800718e:	2501      	movs	r5, #1
 8007190:	3301      	adds	r3, #1
 8007192:	e7ed      	b.n	8007170 <__kernel_rem_pio2+0x200>
 8007194:	2c00      	cmp	r4, #0
 8007196:	dd14      	ble.n	80071c2 <__kernel_rem_pio2+0x252>
 8007198:	2c01      	cmp	r4, #1
 800719a:	d009      	beq.n	80071b0 <__kernel_rem_pio2+0x240>
 800719c:	2c02      	cmp	r4, #2
 800719e:	d110      	bne.n	80071c2 <__kernel_rem_pio2+0x252>
 80071a0:	f10a 33ff 	add.w	r3, sl, #4294967295
 80071a4:	a90e      	add	r1, sp, #56	; 0x38
 80071a6:	f851 2023 	ldr.w	r2, [r1, r3, lsl #2]
 80071aa:	f3c2 0215 	ubfx	r2, r2, #0, #22
 80071ae:	e006      	b.n	80071be <__kernel_rem_pio2+0x24e>
 80071b0:	f10a 33ff 	add.w	r3, sl, #4294967295
 80071b4:	a90e      	add	r1, sp, #56	; 0x38
 80071b6:	f851 2023 	ldr.w	r2, [r1, r3, lsl #2]
 80071ba:	f3c2 0216 	ubfx	r2, r2, #0, #23
 80071be:	f841 2023 	str.w	r2, [r1, r3, lsl #2]
 80071c2:	f1b9 0f02 	cmp.w	r9, #2
 80071c6:	d115      	bne.n	80071f4 <__kernel_rem_pio2+0x284>
 80071c8:	4632      	mov	r2, r6
 80071ca:	463b      	mov	r3, r7
 80071cc:	2000      	movs	r0, #0
 80071ce:	4923      	ldr	r1, [pc, #140]	; (800725c <__kernel_rem_pio2+0x2ec>)
 80071d0:	f7f9 f81e 	bl	8000210 <__aeabi_dsub>
 80071d4:	4606      	mov	r6, r0
 80071d6:	460f      	mov	r7, r1
 80071d8:	b165      	cbz	r5, 80071f4 <__kernel_rem_pio2+0x284>
 80071da:	4620      	mov	r0, r4
 80071dc:	ed9f 0b18 	vldr	d0, [pc, #96]	; 8007240 <__kernel_rem_pio2+0x2d0>
 80071e0:	f000 fb82 	bl	80078e8 <scalbn>
 80071e4:	4630      	mov	r0, r6
 80071e6:	4639      	mov	r1, r7
 80071e8:	ec53 2b10 	vmov	r2, r3, d0
 80071ec:	f7f9 f810 	bl	8000210 <__aeabi_dsub>
 80071f0:	4606      	mov	r6, r0
 80071f2:	460f      	mov	r7, r1
 80071f4:	4630      	mov	r0, r6
 80071f6:	4639      	mov	r1, r7
 80071f8:	2200      	movs	r2, #0
 80071fa:	2300      	movs	r3, #0
 80071fc:	f7f9 fc24 	bl	8000a48 <__aeabi_dcmpeq>
 8007200:	2800      	cmp	r0, #0
 8007202:	d074      	beq.n	80072ee <__kernel_rem_pio2+0x37e>
 8007204:	aa0e      	add	r2, sp, #56	; 0x38
 8007206:	f10a 31ff 	add.w	r1, sl, #4294967295
 800720a:	eb02 008a 	add.w	r0, r2, sl, lsl #2
 800720e:	2300      	movs	r3, #0
 8007210:	460a      	mov	r2, r1
 8007212:	9d04      	ldr	r5, [sp, #16]
 8007214:	42aa      	cmp	r2, r5
 8007216:	db04      	blt.n	8007222 <__kernel_rem_pio2+0x2b2>
 8007218:	f850 5d04 	ldr.w	r5, [r0, #-4]!
 800721c:	3a01      	subs	r2, #1
 800721e:	432b      	orrs	r3, r5
 8007220:	e7f7      	b.n	8007212 <__kernel_rem_pio2+0x2a2>
 8007222:	2b00      	cmp	r3, #0
 8007224:	f040 81ed 	bne.w	8007602 <__kernel_rem_pio2+0x692>
 8007228:	2601      	movs	r6, #1
 800722a:	f06f 0303 	mvn.w	r3, #3
 800722e:	4373      	muls	r3, r6
 8007230:	9d0b      	ldr	r5, [sp, #44]	; 0x2c
 8007232:	58eb      	ldr	r3, [r5, r3]
 8007234:	b9a3      	cbnz	r3, 8007260 <__kernel_rem_pio2+0x2f0>
 8007236:	3601      	adds	r6, #1
 8007238:	e7f7      	b.n	800722a <__kernel_rem_pio2+0x2ba>
 800723a:	bf00      	nop
 800723c:	f3af 8000 	nop.w
 8007240:	00000000 	.word	0x00000000
 8007244:	3ff00000 	.word	0x3ff00000
 8007248:	08007d80 	.word	0x08007d80
 800724c:	3e700000 	.word	0x3e700000
 8007250:	41700000 	.word	0x41700000
 8007254:	40200000 	.word	0x40200000
 8007258:	3fe00000 	.word	0x3fe00000
 800725c:	3ff00000 	.word	0x3ff00000
 8007260:	f8dd b024 	ldr.w	fp, [sp, #36]	; 0x24
 8007264:	aa72      	add	r2, sp, #456	; 0x1c8
 8007266:	44d3      	add	fp, sl
 8007268:	a922      	add	r1, sp, #136	; 0x88
 800726a:	eb02 02ca 	add.w	r2, r2, sl, lsl #3
 800726e:	f10a 0501 	add.w	r5, sl, #1
 8007272:	eb01 0bcb 	add.w	fp, r1, fp, lsl #3
 8007276:	920c      	str	r2, [sp, #48]	; 0x30
 8007278:	2700      	movs	r7, #0
 800727a:	eb0a 0306 	add.w	r3, sl, r6
 800727e:	429d      	cmp	r5, r3
 8007280:	dc33      	bgt.n	80072ea <__kernel_rem_pio2+0x37a>
 8007282:	9b0d      	ldr	r3, [sp, #52]	; 0x34
 8007284:	f853 0025 	ldr.w	r0, [r3, r5, lsl #2]
 8007288:	f7f9 f910 	bl	80004ac <__aeabi_i2d>
 800728c:	ed9f 7ba6 	vldr	d7, [pc, #664]	; 8007528 <__kernel_rem_pio2+0x5b8>
 8007290:	eb0b 0907 	add.w	r9, fp, r7
 8007294:	e9c9 0100 	strd	r0, r1, [r9]
 8007298:	ed8d 7b02 	vstr	d7, [sp, #8]
 800729c:	f8dd c028 	ldr.w	ip, [sp, #40]	; 0x28
 80072a0:	f04f 0800 	mov.w	r8, #0
 80072a4:	9906      	ldr	r1, [sp, #24]
 80072a6:	4588      	cmp	r8, r1
 80072a8:	dc16      	bgt.n	80072d8 <__kernel_rem_pio2+0x368>
 80072aa:	e8fc 0102 	ldrd	r0, r1, [ip], #8
 80072ae:	eba9 03c8 	sub.w	r3, r9, r8, lsl #3
 80072b2:	e9d3 2300 	ldrd	r2, r3, [r3]
 80072b6:	f8cd c004 	str.w	ip, [sp, #4]
 80072ba:	f7f9 f95d 	bl	8000578 <__aeabi_dmul>
 80072be:	4602      	mov	r2, r0
 80072c0:	460b      	mov	r3, r1
 80072c2:	e9dd 0102 	ldrd	r0, r1, [sp, #8]
 80072c6:	f7f8 ffa5 	bl	8000214 <__adddf3>
 80072ca:	f108 0801 	add.w	r8, r8, #1
 80072ce:	e9cd 0102 	strd	r0, r1, [sp, #8]
 80072d2:	f8dd c004 	ldr.w	ip, [sp, #4]
 80072d6:	e7e5      	b.n	80072a4 <__kernel_rem_pio2+0x334>
 80072d8:	9b0c      	ldr	r3, [sp, #48]	; 0x30
 80072da:	ed9d 7b02 	vldr	d7, [sp, #8]
 80072de:	443b      	add	r3, r7
 80072e0:	ed83 7b02 	vstr	d7, [r3, #8]
 80072e4:	3501      	adds	r5, #1
 80072e6:	3708      	adds	r7, #8
 80072e8:	e7c7      	b.n	800727a <__kernel_rem_pio2+0x30a>
 80072ea:	469a      	mov	sl, r3
 80072ec:	e6ac      	b.n	8007048 <__kernel_rem_pio2+0xd8>
 80072ee:	ec47 6b10 	vmov	d0, r6, r7
 80072f2:	4260      	negs	r0, r4
 80072f4:	f000 faf8 	bl	80078e8 <scalbn>
 80072f8:	ec57 6b10 	vmov	r6, r7, d0
 80072fc:	ee10 0a10 	vmov	r0, s0
 8007300:	4639      	mov	r1, r7
 8007302:	2200      	movs	r2, #0
 8007304:	4b8c      	ldr	r3, [pc, #560]	; (8007538 <__kernel_rem_pio2+0x5c8>)
 8007306:	f7f9 fbbd 	bl	8000a84 <__aeabi_dcmpge>
 800730a:	b1f8      	cbz	r0, 800734c <__kernel_rem_pio2+0x3dc>
 800730c:	2200      	movs	r2, #0
 800730e:	4b8b      	ldr	r3, [pc, #556]	; (800753c <__kernel_rem_pio2+0x5cc>)
 8007310:	4630      	mov	r0, r6
 8007312:	4639      	mov	r1, r7
 8007314:	f7f9 f930 	bl	8000578 <__aeabi_dmul>
 8007318:	f7f9 fbc8 	bl	8000aac <__aeabi_d2iz>
 800731c:	4605      	mov	r5, r0
 800731e:	f7f9 f8c5 	bl	80004ac <__aeabi_i2d>
 8007322:	2200      	movs	r2, #0
 8007324:	4b84      	ldr	r3, [pc, #528]	; (8007538 <__kernel_rem_pio2+0x5c8>)
 8007326:	f7f9 f927 	bl	8000578 <__aeabi_dmul>
 800732a:	4602      	mov	r2, r0
 800732c:	460b      	mov	r3, r1
 800732e:	4630      	mov	r0, r6
 8007330:	4639      	mov	r1, r7
 8007332:	f7f8 ff6d 	bl	8000210 <__aeabi_dsub>
 8007336:	f7f9 fbb9 	bl	8000aac <__aeabi_d2iz>
 800733a:	aa0e      	add	r2, sp, #56	; 0x38
 800733c:	3418      	adds	r4, #24
 800733e:	f842 002a 	str.w	r0, [r2, sl, lsl #2]
 8007342:	f10a 0a01 	add.w	sl, sl, #1
 8007346:	f842 502a 	str.w	r5, [r2, sl, lsl #2]
 800734a:	e006      	b.n	800735a <__kernel_rem_pio2+0x3ea>
 800734c:	4630      	mov	r0, r6
 800734e:	4639      	mov	r1, r7
 8007350:	f7f9 fbac 	bl	8000aac <__aeabi_d2iz>
 8007354:	ab0e      	add	r3, sp, #56	; 0x38
 8007356:	f843 002a 	str.w	r0, [r3, sl, lsl #2]
 800735a:	4620      	mov	r0, r4
 800735c:	ed9f 0b74 	vldr	d0, [pc, #464]	; 8007530 <__kernel_rem_pio2+0x5c0>
 8007360:	f000 fac2 	bl	80078e8 <scalbn>
 8007364:	f10a 0b01 	add.w	fp, sl, #1
 8007368:	a972      	add	r1, sp, #456	; 0x1c8
 800736a:	ec55 4b10 	vmov	r4, r5, d0
 800736e:	eb01 06cb 	add.w	r6, r1, fp, lsl #3
 8007372:	4657      	mov	r7, sl
 8007374:	2f00      	cmp	r7, #0
 8007376:	db16      	blt.n	80073a6 <__kernel_rem_pio2+0x436>
 8007378:	aa0e      	add	r2, sp, #56	; 0x38
 800737a:	f852 0027 	ldr.w	r0, [r2, r7, lsl #2]
 800737e:	f7f9 f895 	bl	80004ac <__aeabi_i2d>
 8007382:	4602      	mov	r2, r0
 8007384:	460b      	mov	r3, r1
 8007386:	4620      	mov	r0, r4
 8007388:	4629      	mov	r1, r5
 800738a:	f7f9 f8f5 	bl	8000578 <__aeabi_dmul>
 800738e:	2200      	movs	r2, #0
 8007390:	e966 0102 	strd	r0, r1, [r6, #-8]!
 8007394:	4b69      	ldr	r3, [pc, #420]	; (800753c <__kernel_rem_pio2+0x5cc>)
 8007396:	4620      	mov	r0, r4
 8007398:	4629      	mov	r1, r5
 800739a:	f7f9 f8ed 	bl	8000578 <__aeabi_dmul>
 800739e:	3f01      	subs	r7, #1
 80073a0:	4604      	mov	r4, r0
 80073a2:	460d      	mov	r5, r1
 80073a4:	e7e6      	b.n	8007374 <__kernel_rem_pio2+0x404>
 80073a6:	ab72      	add	r3, sp, #456	; 0x1c8
 80073a8:	eb03 08ca 	add.w	r8, r3, sl, lsl #3
 80073ac:	2500      	movs	r5, #0
 80073ae:	ebc5 030a 	rsb	r3, r5, sl
 80073b2:	2b00      	cmp	r3, #0
 80073b4:	db28      	blt.n	8007408 <__kernel_rem_pio2+0x498>
 80073b6:	ed9f 7b5c 	vldr	d7, [pc, #368]	; 8007528 <__kernel_rem_pio2+0x5b8>
 80073ba:	ed8d 7b06 	vstr	d7, [sp, #24]
 80073be:	00ee      	lsls	r6, r5, #3
 80073c0:	ebc6 0708 	rsb	r7, r6, r8
 80073c4:	2400      	movs	r4, #0
 80073c6:	9904      	ldr	r1, [sp, #16]
 80073c8:	428c      	cmp	r4, r1
 80073ca:	dc15      	bgt.n	80073f8 <__kernel_rem_pio2+0x488>
 80073cc:	42ac      	cmp	r4, r5
 80073ce:	dc13      	bgt.n	80073f8 <__kernel_rem_pio2+0x488>
 80073d0:	4a5b      	ldr	r2, [pc, #364]	; (8007540 <__kernel_rem_pio2+0x5d0>)
 80073d2:	00e3      	lsls	r3, r4, #3
 80073d4:	441a      	add	r2, r3
 80073d6:	443b      	add	r3, r7
 80073d8:	e9d2 0100 	ldrd	r0, r1, [r2]
 80073dc:	e9d3 2300 	ldrd	r2, r3, [r3]
 80073e0:	f7f9 f8ca 	bl	8000578 <__aeabi_dmul>
 80073e4:	4602      	mov	r2, r0
 80073e6:	460b      	mov	r3, r1
 80073e8:	e9dd 0106 	ldrd	r0, r1, [sp, #24]
 80073ec:	f7f8 ff12 	bl	8000214 <__adddf3>
 80073f0:	3401      	adds	r4, #1
 80073f2:	e9cd 0106 	strd	r0, r1, [sp, #24]
 80073f6:	e7e6      	b.n	80073c6 <__kernel_rem_pio2+0x456>
 80073f8:	ed9d 7b06 	vldr	d7, [sp, #24]
 80073fc:	aa4a      	add	r2, sp, #296	; 0x128
 80073fe:	4416      	add	r6, r2
 8007400:	ed86 7b00 	vstr	d7, [r6]
 8007404:	3501      	adds	r5, #1
 8007406:	e7d2      	b.n	80073ae <__kernel_rem_pio2+0x43e>
 8007408:	9ca4      	ldr	r4, [sp, #656]	; 0x290
 800740a:	2c03      	cmp	r4, #3
 800740c:	f200 80f2 	bhi.w	80075f4 <__kernel_rem_pio2+0x684>
 8007410:	e8df f004 	tbb	[pc, r4]
 8007414:	0208080f 	.word	0x0208080f
 8007418:	a94a      	add	r1, sp, #296	; 0x128
 800741a:	eb01 08cb 	add.w	r8, r1, fp, lsl #3
 800741e:	46c3      	mov	fp, r8
 8007420:	46d4      	mov	ip, sl
 8007422:	e057      	b.n	80074d4 <__kernel_rem_pio2+0x564>
 8007424:	aa4a      	add	r2, sp, #296	; 0x128
 8007426:	eb02 05cb 	add.w	r5, r2, fp, lsl #3
 800742a:	4654      	mov	r4, sl
 800742c:	2200      	movs	r2, #0
 800742e:	2300      	movs	r3, #0
 8007430:	e01b      	b.n	800746a <__kernel_rem_pio2+0x4fa>
 8007432:	ab4a      	add	r3, sp, #296	; 0x128
 8007434:	eb03 04cb 	add.w	r4, r3, fp, lsl #3
 8007438:	2000      	movs	r0, #0
 800743a:	2100      	movs	r1, #0
 800743c:	f1ba 0f00 	cmp.w	sl, #0
 8007440:	db06      	blt.n	8007450 <__kernel_rem_pio2+0x4e0>
 8007442:	e974 2302 	ldrd	r2, r3, [r4, #-8]!
 8007446:	f7f8 fee5 	bl	8000214 <__adddf3>
 800744a:	f10a 3aff 	add.w	sl, sl, #4294967295
 800744e:	e7f5      	b.n	800743c <__kernel_rem_pio2+0x4cc>
 8007450:	f1b9 0f00 	cmp.w	r9, #0
 8007454:	d003      	beq.n	800745e <__kernel_rem_pio2+0x4ee>
 8007456:	4602      	mov	r2, r0
 8007458:	f101 4300 	add.w	r3, r1, #2147483648	; 0x80000000
 800745c:	e001      	b.n	8007462 <__kernel_rem_pio2+0x4f2>
 800745e:	4602      	mov	r2, r0
 8007460:	460b      	mov	r3, r1
 8007462:	9c08      	ldr	r4, [sp, #32]
 8007464:	e9c4 2300 	strd	r2, r3, [r4]
 8007468:	e0c4      	b.n	80075f4 <__kernel_rem_pio2+0x684>
 800746a:	2c00      	cmp	r4, #0
 800746c:	db09      	blt.n	8007482 <__kernel_rem_pio2+0x512>
 800746e:	4610      	mov	r0, r2
 8007470:	4619      	mov	r1, r3
 8007472:	e975 2302 	ldrd	r2, r3, [r5, #-8]!
 8007476:	f7f8 fecd 	bl	8000214 <__adddf3>
 800747a:	3c01      	subs	r4, #1
 800747c:	4602      	mov	r2, r0
 800747e:	460b      	mov	r3, r1
 8007480:	e7f3      	b.n	800746a <__kernel_rem_pio2+0x4fa>
 8007482:	f1b9 0f00 	cmp.w	r9, #0
 8007486:	d003      	beq.n	8007490 <__kernel_rem_pio2+0x520>
 8007488:	4610      	mov	r0, r2
 800748a:	f103 4100 	add.w	r1, r3, #2147483648	; 0x80000000
 800748e:	e001      	b.n	8007494 <__kernel_rem_pio2+0x524>
 8007490:	4610      	mov	r0, r2
 8007492:	4619      	mov	r1, r3
 8007494:	9d08      	ldr	r5, [sp, #32]
 8007496:	e9c5 0100 	strd	r0, r1, [r5]
 800749a:	e9dd 014a 	ldrd	r0, r1, [sp, #296]	; 0x128
 800749e:	f7f8 feb7 	bl	8000210 <__aeabi_dsub>
 80074a2:	2401      	movs	r4, #1
 80074a4:	4554      	cmp	r4, sl
 80074a6:	dc08      	bgt.n	80074ba <__kernel_rem_pio2+0x54a>
 80074a8:	aa4a      	add	r2, sp, #296	; 0x128
 80074aa:	eb02 03c4 	add.w	r3, r2, r4, lsl #3
 80074ae:	e9d3 2300 	ldrd	r2, r3, [r3]
 80074b2:	f7f8 feaf 	bl	8000214 <__adddf3>
 80074b6:	3401      	adds	r4, #1
 80074b8:	e7f4      	b.n	80074a4 <__kernel_rem_pio2+0x534>
 80074ba:	f1b9 0f00 	cmp.w	r9, #0
 80074be:	d003      	beq.n	80074c8 <__kernel_rem_pio2+0x558>
 80074c0:	4602      	mov	r2, r0
 80074c2:	f101 4300 	add.w	r3, r1, #2147483648	; 0x80000000
 80074c6:	e001      	b.n	80074cc <__kernel_rem_pio2+0x55c>
 80074c8:	4602      	mov	r2, r0
 80074ca:	460b      	mov	r3, r1
 80074cc:	9c08      	ldr	r4, [sp, #32]
 80074ce:	e9c4 2302 	strd	r2, r3, [r4, #8]
 80074d2:	e08f      	b.n	80075f4 <__kernel_rem_pio2+0x684>
 80074d4:	f1bc 0f00 	cmp.w	ip, #0
 80074d8:	dd34      	ble.n	8007544 <__kernel_rem_pio2+0x5d4>
 80074da:	ed1b 7b04 	vldr	d7, [fp, #-16]
 80074de:	e95b 6702 	ldrd	r6, r7, [fp, #-8]
 80074e2:	f10c 3cff 	add.w	ip, ip, #4294967295
 80074e6:	ec51 0b17 	vmov	r0, r1, d7
 80074ea:	4632      	mov	r2, r6
 80074ec:	463b      	mov	r3, r7
 80074ee:	f8cd c004 	str.w	ip, [sp, #4]
 80074f2:	ed8d 7b04 	vstr	d7, [sp, #16]
 80074f6:	f7f8 fe8d 	bl	8000214 <__adddf3>
 80074fa:	4604      	mov	r4, r0
 80074fc:	460d      	mov	r5, r1
 80074fe:	4622      	mov	r2, r4
 8007500:	462b      	mov	r3, r5
 8007502:	e9dd 0104 	ldrd	r0, r1, [sp, #16]
 8007506:	f7f8 fe83 	bl	8000210 <__aeabi_dsub>
 800750a:	4602      	mov	r2, r0
 800750c:	460b      	mov	r3, r1
 800750e:	4630      	mov	r0, r6
 8007510:	4639      	mov	r1, r7
 8007512:	f7f8 fe7f 	bl	8000214 <__adddf3>
 8007516:	e96b 0102 	strd	r0, r1, [fp, #-8]!
 800751a:	f8dd c004 	ldr.w	ip, [sp, #4]
 800751e:	e94b 4502 	strd	r4, r5, [fp, #-8]
 8007522:	e7d7      	b.n	80074d4 <__kernel_rem_pio2+0x564>
 8007524:	f3af 8000 	nop.w
	...
 8007534:	3ff00000 	.word	0x3ff00000
 8007538:	41700000 	.word	0x41700000
 800753c:	3e700000 	.word	0x3e700000
 8007540:	08007d90 	.word	0x08007d90
 8007544:	46c3      	mov	fp, r8
 8007546:	46d4      	mov	ip, sl
 8007548:	f1bc 0f01 	cmp.w	ip, #1
 800754c:	dd24      	ble.n	8007598 <__kernel_rem_pio2+0x628>
 800754e:	ed1b 7b02 	vldr	d7, [fp, #-8]
 8007552:	e95b 6704 	ldrd	r6, r7, [fp, #-16]
 8007556:	f10c 3cff 	add.w	ip, ip, #4294967295
 800755a:	ec53 2b17 	vmov	r2, r3, d7
 800755e:	4630      	mov	r0, r6
 8007560:	4639      	mov	r1, r7
 8007562:	f8cd c004 	str.w	ip, [sp, #4]
 8007566:	ed8d 7b04 	vstr	d7, [sp, #16]
 800756a:	f7f8 fe53 	bl	8000214 <__adddf3>
 800756e:	4604      	mov	r4, r0
 8007570:	460d      	mov	r5, r1
 8007572:	4622      	mov	r2, r4
 8007574:	462b      	mov	r3, r5
 8007576:	4630      	mov	r0, r6
 8007578:	4639      	mov	r1, r7
 800757a:	f7f8 fe49 	bl	8000210 <__aeabi_dsub>
 800757e:	4602      	mov	r2, r0
 8007580:	460b      	mov	r3, r1
 8007582:	e9dd 0104 	ldrd	r0, r1, [sp, #16]
 8007586:	f7f8 fe45 	bl	8000214 <__adddf3>
 800758a:	e96b 0102 	strd	r0, r1, [fp, #-8]!
 800758e:	f8dd c004 	ldr.w	ip, [sp, #4]
 8007592:	e94b 4502 	strd	r4, r5, [fp, #-8]
 8007596:	e7d7      	b.n	8007548 <__kernel_rem_pio2+0x5d8>
 8007598:	4644      	mov	r4, r8
 800759a:	2000      	movs	r0, #0
 800759c:	2100      	movs	r1, #0
 800759e:	f1ba 0f01 	cmp.w	sl, #1
 80075a2:	dd06      	ble.n	80075b2 <__kernel_rem_pio2+0x642>
 80075a4:	e974 2302 	ldrd	r2, r3, [r4, #-8]!
 80075a8:	f7f8 fe34 	bl	8000214 <__adddf3>
 80075ac:	f10a 3aff 	add.w	sl, sl, #4294967295
 80075b0:	e7f5      	b.n	800759e <__kernel_rem_pio2+0x62e>
 80075b2:	f1b9 0f00 	cmp.w	r9, #0
 80075b6:	d10c      	bne.n	80075d2 <__kernel_rem_pio2+0x662>
 80075b8:	ac9a      	add	r4, sp, #616	; 0x268
 80075ba:	e974 2350 	ldrd	r2, r3, [r4, #-320]!	; 0x140
 80075be:	9d08      	ldr	r5, [sp, #32]
 80075c0:	e9c5 2300 	strd	r2, r3, [r5]
 80075c4:	e9d4 2302 	ldrd	r2, r3, [r4, #8]
 80075c8:	e9c5 0104 	strd	r0, r1, [r5, #16]
 80075cc:	e9c5 2302 	strd	r2, r3, [r5, #8]
 80075d0:	e010      	b.n	80075f4 <__kernel_rem_pio2+0x684>
 80075d2:	9c08      	ldr	r4, [sp, #32]
 80075d4:	9b4a      	ldr	r3, [sp, #296]	; 0x128
 80075d6:	6023      	str	r3, [r4, #0]
 80075d8:	9b4b      	ldr	r3, [sp, #300]	; 0x12c
 80075da:	6120      	str	r0, [r4, #16]
 80075dc:	f103 4300 	add.w	r3, r3, #2147483648	; 0x80000000
 80075e0:	6063      	str	r3, [r4, #4]
 80075e2:	9b4c      	ldr	r3, [sp, #304]	; 0x130
 80075e4:	60a3      	str	r3, [r4, #8]
 80075e6:	9b4d      	ldr	r3, [sp, #308]	; 0x134
 80075e8:	f103 4300 	add.w	r3, r3, #2147483648	; 0x80000000
 80075ec:	60e3      	str	r3, [r4, #12]
 80075ee:	f101 4300 	add.w	r3, r1, #2147483648	; 0x80000000
 80075f2:	6163      	str	r3, [r4, #20]
 80075f4:	9d02      	ldr	r5, [sp, #8]
 80075f6:	f005 0007 	and.w	r0, r5, #7
 80075fa:	f50d 7d1b 	add.w	sp, sp, #620	; 0x26c
 80075fe:	e8bd 8ff0 	ldmia.w	sp!, {r4, r5, r6, r7, r8, r9, sl, fp, pc}
 8007602:	3c18      	subs	r4, #24
 8007604:	468a      	mov	sl, r1
 8007606:	a90e      	add	r1, sp, #56	; 0x38
 8007608:	f851 302a 	ldr.w	r3, [r1, sl, lsl #2]
 800760c:	2b00      	cmp	r3, #0
 800760e:	f47f aea4 	bne.w	800735a <__kernel_rem_pio2+0x3ea>
 8007612:	f10a 3aff 	add.w	sl, sl, #4294967295
 8007616:	3c18      	subs	r4, #24
 8007618:	e7f5      	b.n	8007606 <__kernel_rem_pio2+0x696>
 800761a:	bf00      	nop
 800761c:	f3af 8000 	nop.w

08007620 <__kernel_sin>:
 8007620:	e92d 4ff0 	stmdb	sp!, {r4, r5, r6, r7, r8, r9, sl, fp, lr}
 8007624:	ec55 4b10 	vmov	r4, r5, d0
 8007628:	f025 4300 	bic.w	r3, r5, #2147483648	; 0x80000000
 800762c:	b085      	sub	sp, #20
 800762e:	f1b3 5f79 	cmp.w	r3, #1044381696	; 0x3e400000
 8007632:	ed8d 1b00 	vstr	d1, [sp]
 8007636:	4682      	mov	sl, r0
 8007638:	da07      	bge.n	800764a <__kernel_sin+0x2a>
 800763a:	ee10 0a10 	vmov	r0, s0
 800763e:	4629      	mov	r1, r5
 8007640:	f7f9 fa34 	bl	8000aac <__aeabi_d2iz>
 8007644:	2800      	cmp	r0, #0
 8007646:	f000 808c 	beq.w	8007762 <__kernel_sin+0x142>
 800764a:	4622      	mov	r2, r4
 800764c:	462b      	mov	r3, r5
 800764e:	4620      	mov	r0, r4
 8007650:	4629      	mov	r1, r5
 8007652:	f7f8 ff91 	bl	8000578 <__aeabi_dmul>
 8007656:	4622      	mov	r2, r4
 8007658:	462b      	mov	r3, r5
 800765a:	4606      	mov	r6, r0
 800765c:	460f      	mov	r7, r1
 800765e:	f7f8 ff8b 	bl	8000578 <__aeabi_dmul>
 8007662:	a346      	add	r3, pc, #280	; (adr r3, 800777c <__kernel_sin+0x15c>)
 8007664:	e9d3 2300 	ldrd	r2, r3, [r3]
 8007668:	4680      	mov	r8, r0
 800766a:	4689      	mov	r9, r1
 800766c:	4630      	mov	r0, r6
 800766e:	4639      	mov	r1, r7
 8007670:	f7f8 ff82 	bl	8000578 <__aeabi_dmul>
 8007674:	a343      	add	r3, pc, #268	; (adr r3, 8007784 <__kernel_sin+0x164>)
 8007676:	e9d3 2300 	ldrd	r2, r3, [r3]
 800767a:	f7f8 fdc9 	bl	8000210 <__aeabi_dsub>
 800767e:	4602      	mov	r2, r0
 8007680:	460b      	mov	r3, r1
 8007682:	4630      	mov	r0, r6
 8007684:	4639      	mov	r1, r7
 8007686:	f7f8 ff77 	bl	8000578 <__aeabi_dmul>
 800768a:	a340      	add	r3, pc, #256	; (adr r3, 800778c <__kernel_sin+0x16c>)
 800768c:	e9d3 2300 	ldrd	r2, r3, [r3]
 8007690:	f7f8 fdc0 	bl	8000214 <__adddf3>
 8007694:	4602      	mov	r2, r0
 8007696:	460b      	mov	r3, r1
 8007698:	4630      	mov	r0, r6
 800769a:	4639      	mov	r1, r7
 800769c:	f7f8 ff6c 	bl	8000578 <__aeabi_dmul>
 80076a0:	a33c      	add	r3, pc, #240	; (adr r3, 8007794 <__kernel_sin+0x174>)
 80076a2:	e9d3 2300 	ldrd	r2, r3, [r3]
 80076a6:	f7f8 fdb3 	bl	8000210 <__aeabi_dsub>
 80076aa:	4602      	mov	r2, r0
 80076ac:	460b      	mov	r3, r1
 80076ae:	4630      	mov	r0, r6
 80076b0:	4639      	mov	r1, r7
 80076b2:	f7f8 ff61 	bl	8000578 <__aeabi_dmul>
 80076b6:	a339      	add	r3, pc, #228	; (adr r3, 800779c <__kernel_sin+0x17c>)
 80076b8:	e9d3 2300 	ldrd	r2, r3, [r3]
 80076bc:	f7f8 fdaa 	bl	8000214 <__adddf3>
 80076c0:	e9cd 0102 	strd	r0, r1, [sp, #8]
 80076c4:	f1ba 0f00 	cmp.w	sl, #0
 80076c8:	d117      	bne.n	80076fa <__kernel_sin+0xda>
 80076ca:	e9dd 2302 	ldrd	r2, r3, [sp, #8]
 80076ce:	4630      	mov	r0, r6
 80076d0:	4639      	mov	r1, r7
 80076d2:	f7f8 ff51 	bl	8000578 <__aeabi_dmul>
 80076d6:	a326      	add	r3, pc, #152	; (adr r3, 8007770 <__kernel_sin+0x150>)
 80076d8:	e9d3 2300 	ldrd	r2, r3, [r3]
 80076dc:	f7f8 fd98 	bl	8000210 <__aeabi_dsub>
 80076e0:	4602      	mov	r2, r0
 80076e2:	460b      	mov	r3, r1
 80076e4:	4640      	mov	r0, r8
 80076e6:	4649      	mov	r1, r9
 80076e8:	f7f8 ff46 	bl	8000578 <__aeabi_dmul>
 80076ec:	4602      	mov	r2, r0
 80076ee:	460b      	mov	r3, r1
 80076f0:	4620      	mov	r0, r4
 80076f2:	4629      	mov	r1, r5
 80076f4:	f7f8 fd8e 	bl	8000214 <__adddf3>
 80076f8:	e035      	b.n	8007766 <__kernel_sin+0x146>
 80076fa:	e9dd 0100 	ldrd	r0, r1, [sp]
 80076fe:	2200      	movs	r2, #0
 8007700:	4b1d      	ldr	r3, [pc, #116]	; (8007778 <__kernel_sin+0x158>)
 8007702:	f7f8 ff39 	bl	8000578 <__aeabi_dmul>
 8007706:	e9dd 2302 	ldrd	r2, r3, [sp, #8]
 800770a:	4682      	mov	sl, r0
 800770c:	468b      	mov	fp, r1
 800770e:	4640      	mov	r0, r8
 8007710:	4649      	mov	r1, r9
 8007712:	f7f8 ff31 	bl	8000578 <__aeabi_dmul>
 8007716:	4602      	mov	r2, r0
 8007718:	460b      	mov	r3, r1
 800771a:	4650      	mov	r0, sl
 800771c:	4659      	mov	r1, fp
 800771e:	f7f8 fd77 	bl	8000210 <__aeabi_dsub>
 8007722:	4602      	mov	r2, r0
 8007724:	460b      	mov	r3, r1
 8007726:	4630      	mov	r0, r6
 8007728:	4639      	mov	r1, r7
 800772a:	f7f8 ff25 	bl	8000578 <__aeabi_dmul>
 800772e:	e9dd 2300 	ldrd	r2, r3, [sp]
 8007732:	f7f8 fd6d 	bl	8000210 <__aeabi_dsub>
 8007736:	a30e      	add	r3, pc, #56	; (adr r3, 8007770 <__kernel_sin+0x150>)
 8007738:	e9d3 2300 	ldrd	r2, r3, [r3]
 800773c:	4606      	mov	r6, r0
 800773e:	460f      	mov	r7, r1
 8007740:	4640      	mov	r0, r8
 8007742:	4649      	mov	r1, r9
 8007744:	f7f8 ff18 	bl	8000578 <__aeabi_dmul>
 8007748:	4602      	mov	r2, r0
 800774a:	460b      	mov	r3, r1
 800774c:	4630      	mov	r0, r6
 800774e:	4639      	mov	r1, r7
 8007750:	f7f8 fd60 	bl	8000214 <__adddf3>
 8007754:	4602      	mov	r2, r0
 8007756:	460b      	mov	r3, r1
 8007758:	4620      	mov	r0, r4
 800775a:	4629      	mov	r1, r5
 800775c:	f7f8 fd58 	bl	8000210 <__aeabi_dsub>
 8007760:	e001      	b.n	8007766 <__kernel_sin+0x146>
 8007762:	4620      	mov	r0, r4
 8007764:	4629      	mov	r1, r5
 8007766:	ec41 0b10 	vmov	d0, r0, r1
 800776a:	b005      	add	sp, #20
 800776c:	e8bd 8ff0 	ldmia.w	sp!, {r4, r5, r6, r7, r8, r9, sl, fp, pc}
 8007770:	55555549 	.word	0x55555549
 8007774:	3fc55555 	.word	0x3fc55555
 8007778:	3fe00000 	.word	0x3fe00000
 800777c:	5acfd57c 	.word	0x5acfd57c
 8007780:	3de5d93a 	.word	0x3de5d93a
 8007784:	8a2b9ceb 	.word	0x8a2b9ceb
 8007788:	3e5ae5e6 	.word	0x3e5ae5e6
 800778c:	57b1fe7d 	.word	0x57b1fe7d
 8007790:	3ec71de3 	.word	0x3ec71de3
 8007794:	19c161d5 	.word	0x19c161d5
 8007798:	3f2a01a0 	.word	0x3f2a01a0
 800779c:	1110f8a6 	.word	0x1110f8a6
 80077a0:	3f811111 	.word	0x3f811111
 80077a4:	f3af 8000 	nop.w

080077a8 <fabs>:
 80077a8:	ec51 0b10 	vmov	r0, r1, d0
 80077ac:	ec53 2b10 	vmov	r2, r3, d0
 80077b0:	f021 4300 	bic.w	r3, r1, #2147483648	; 0x80000000
 80077b4:	ec43 2b10 	vmov	d0, r2, r3
 80077b8:	4770      	bx	lr

080077ba <finite>:
 80077ba:	ec53 2b10 	vmov	r2, r3, d0
 80077be:	f043 4000 	orr.w	r0, r3, #2147483648	; 0x80000000
 80077c2:	f500 1080 	add.w	r0, r0, #1048576	; 0x100000
 80077c6:	0fc0      	lsrs	r0, r0, #31
 80077c8:	4770      	bx	lr
 80077ca:	0000      	movs	r0, r0
 80077cc:	0000      	movs	r0, r0
	...

080077d0 <floor>:
 80077d0:	ec51 0b10 	vmov	r0, r1, d0
 80077d4:	e92d 47f0 	stmdb	sp!, {r4, r5, r6, r7, r8, r9, sl, lr}
 80077d8:	f3c1 590a 	ubfx	r9, r1, #20, #11
 80077dc:	f2a9 38ff 	subw	r8, r9, #1023	; 0x3ff
 80077e0:	f1b8 0f13 	cmp.w	r8, #19
 80077e4:	ee10 4a10 	vmov	r4, s0
 80077e8:	460d      	mov	r5, r1
 80077ea:	460e      	mov	r6, r1
 80077ec:	4607      	mov	r7, r0
 80077ee:	dc35      	bgt.n	800785c <floor+0x8c>
 80077f0:	f1b8 0f00 	cmp.w	r8, #0
 80077f4:	da15      	bge.n	8007822 <floor+0x52>
 80077f6:	a336      	add	r3, pc, #216	; (adr r3, 80078d0 <floor+0x100>)
 80077f8:	e9d3 2300 	ldrd	r2, r3, [r3]
 80077fc:	f7f8 fd0a 	bl	8000214 <__adddf3>
 8007800:	2200      	movs	r2, #0
 8007802:	2300      	movs	r3, #0
 8007804:	f7f9 f948 	bl	8000a98 <__aeabi_dcmpgt>
 8007808:	2800      	cmp	r0, #0
 800780a:	d05a      	beq.n	80078c2 <floor+0xf2>
 800780c:	2d00      	cmp	r5, #0
 800780e:	da56      	bge.n	80078be <floor+0xee>
 8007810:	f025 4300 	bic.w	r3, r5, #2147483648	; 0x80000000
 8007814:	4323      	orrs	r3, r4
 8007816:	4b30      	ldr	r3, [pc, #192]	; (80078d8 <floor+0x108>)
 8007818:	f04f 0700 	mov.w	r7, #0
 800781c:	bf18      	it	ne
 800781e:	461e      	movne	r6, r3
 8007820:	e04f      	b.n	80078c2 <floor+0xf2>
 8007822:	4b2e      	ldr	r3, [pc, #184]	; (80078dc <floor+0x10c>)
 8007824:	fa43 f908 	asr.w	r9, r3, r8
 8007828:	ea09 0301 	and.w	r3, r9, r1
 800782c:	4303      	orrs	r3, r0
 800782e:	d04a      	beq.n	80078c6 <floor+0xf6>
 8007830:	a327      	add	r3, pc, #156	; (adr r3, 80078d0 <floor+0x100>)
 8007832:	e9d3 2300 	ldrd	r2, r3, [r3]
 8007836:	f7f8 fced 	bl	8000214 <__adddf3>
 800783a:	2200      	movs	r2, #0
 800783c:	2300      	movs	r3, #0
 800783e:	f7f9 f92b 	bl	8000a98 <__aeabi_dcmpgt>
 8007842:	2800      	cmp	r0, #0
 8007844:	d03d      	beq.n	80078c2 <floor+0xf2>
 8007846:	2d00      	cmp	r5, #0
 8007848:	da04      	bge.n	8007854 <floor+0x84>
 800784a:	f44f 1680 	mov.w	r6, #1048576	; 0x100000
 800784e:	fa46 f608 	asr.w	r6, r6, r8
 8007852:	442e      	add	r6, r5
 8007854:	ea26 0609 	bic.w	r6, r6, r9
 8007858:	2700      	movs	r7, #0
 800785a:	e032      	b.n	80078c2 <floor+0xf2>
 800785c:	f1b8 0f33 	cmp.w	r8, #51	; 0x33
 8007860:	dd08      	ble.n	8007874 <floor+0xa4>
 8007862:	f5b8 6f80 	cmp.w	r8, #1024	; 0x400
 8007866:	d12e      	bne.n	80078c6 <floor+0xf6>
 8007868:	ee10 2a10 	vmov	r2, s0
 800786c:	460b      	mov	r3, r1
 800786e:	f7f8 fcd1 	bl	8000214 <__adddf3>
 8007872:	e028      	b.n	80078c6 <floor+0xf6>
 8007874:	f2a9 4313 	subw	r3, r9, #1043	; 0x413
 8007878:	f04f 3aff 	mov.w	sl, #4294967295
 800787c:	fa2a fa03 	lsr.w	sl, sl, r3
 8007880:	ea1a 0f00 	tst.w	sl, r0
 8007884:	d01f      	beq.n	80078c6 <floor+0xf6>
 8007886:	a312      	add	r3, pc, #72	; (adr r3, 80078d0 <floor+0x100>)
 8007888:	e9d3 2300 	ldrd	r2, r3, [r3]
 800788c:	f7f8 fcc2 	bl	8000214 <__adddf3>
 8007890:	2200      	movs	r2, #0
 8007892:	2300      	movs	r3, #0
 8007894:	f7f9 f900 	bl	8000a98 <__aeabi_dcmpgt>
 8007898:	b198      	cbz	r0, 80078c2 <floor+0xf2>
 800789a:	2d00      	cmp	r5, #0
 800789c:	da0c      	bge.n	80078b8 <floor+0xe8>
 800789e:	f1b8 0f14 	cmp.w	r8, #20
 80078a2:	d008      	beq.n	80078b6 <floor+0xe6>
 80078a4:	f5c9 6986 	rsb	r9, r9, #1072	; 0x430
 80078a8:	f109 0903 	add.w	r9, r9, #3
 80078ac:	2701      	movs	r7, #1
 80078ae:	fa07 f709 	lsl.w	r7, r7, r9
 80078b2:	193f      	adds	r7, r7, r4
 80078b4:	d300      	bcc.n	80078b8 <floor+0xe8>
 80078b6:	1c6e      	adds	r6, r5, #1
 80078b8:	ea27 070a 	bic.w	r7, r7, sl
 80078bc:	e001      	b.n	80078c2 <floor+0xf2>
 80078be:	2700      	movs	r7, #0
 80078c0:	463e      	mov	r6, r7
 80078c2:	4631      	mov	r1, r6
 80078c4:	4638      	mov	r0, r7
 80078c6:	ec41 0b10 	vmov	d0, r0, r1
 80078ca:	e8bd 87f0 	ldmia.w	sp!, {r4, r5, r6, r7, r8, r9, sl, pc}
 80078ce:	bf00      	nop
 80078d0:	8800759c 	.word	0x8800759c
 80078d4:	7e37e43c 	.word	0x7e37e43c
 80078d8:	bff00000 	.word	0xbff00000
 80078dc:	000fffff 	.word	0x000fffff

080078e0 <matherr>:
 80078e0:	2000      	movs	r0, #0
 80078e2:	4770      	bx	lr
 80078e4:	0000      	movs	r0, r0
	...

080078e8 <scalbn>:
 80078e8:	b538      	push	{r3, r4, r5, lr}
 80078ea:	eeb0 1a40 	vmov.f32	s2, s0
 80078ee:	eef0 1a60 	vmov.f32	s3, s1
 80078f2:	ec53 2b10 	vmov	r2, r3, d0
 80078f6:	f3c3 510a 	ubfx	r1, r3, #20, #11
 80078fa:	4604      	mov	r4, r0
 80078fc:	461d      	mov	r5, r3
 80078fe:	b9a1      	cbnz	r1, 800792a <scalbn+0x42>
 8007900:	f023 4300 	bic.w	r3, r3, #2147483648	; 0x80000000
 8007904:	4313      	orrs	r3, r2
 8007906:	ec51 0b10 	vmov	r0, r1, d0
 800790a:	d052      	beq.n	80079b2 <scalbn+0xca>
 800790c:	4b2e      	ldr	r3, [pc, #184]	; (80079c8 <scalbn+0xe0>)
 800790e:	4d2f      	ldr	r5, [pc, #188]	; (80079cc <scalbn+0xe4>)
 8007910:	2200      	movs	r2, #0
 8007912:	f7f8 fe31 	bl	8000578 <__aeabi_dmul>
 8007916:	42ac      	cmp	r4, r5
 8007918:	ec41 0b11 	vmov	d1, r0, r1
 800791c:	460b      	mov	r3, r1
 800791e:	db37      	blt.n	8007990 <scalbn+0xa8>
 8007920:	f3c3 510a 	ubfx	r1, r3, #20, #11
 8007924:	461d      	mov	r5, r3
 8007926:	3936      	subs	r1, #54	; 0x36
 8007928:	e00b      	b.n	8007942 <scalbn+0x5a>
 800792a:	f240 73ff 	movw	r3, #2047	; 0x7ff
 800792e:	4299      	cmp	r1, r3
 8007930:	d107      	bne.n	8007942 <scalbn+0x5a>
 8007932:	ec51 0b10 	vmov	r0, r1, d0
 8007936:	ee10 2a10 	vmov	r2, s0
 800793a:	460b      	mov	r3, r1
 800793c:	f7f8 fc6a 	bl	8000214 <__adddf3>
 8007940:	e037      	b.n	80079b2 <scalbn+0xca>
 8007942:	190b      	adds	r3, r1, r4
 8007944:	f240 72fe 	movw	r2, #2046	; 0x7fe
 8007948:	4293      	cmp	r3, r2
 800794a:	dc11      	bgt.n	8007970 <scalbn+0x88>
 800794c:	2b00      	cmp	r3, #0
 800794e:	dd08      	ble.n	8007962 <scalbn+0x7a>
 8007950:	f025 45ff 	bic.w	r5, r5, #2139095040	; 0x7f800000
 8007954:	f425 05e0 	bic.w	r5, r5, #7340032	; 0x700000
 8007958:	ec51 0b11 	vmov	r0, r1, d1
 800795c:	ea45 5103 	orr.w	r1, r5, r3, lsl #20
 8007960:	e027      	b.n	80079b2 <scalbn+0xca>
 8007962:	f113 0f35 	cmn.w	r3, #53	; 0x35
 8007966:	da17      	bge.n	8007998 <scalbn+0xb0>
 8007968:	f24c 3350 	movw	r3, #50000	; 0xc350
 800796c:	429c      	cmp	r4, r3
 800796e:	dd09      	ble.n	8007984 <scalbn+0x9c>
 8007970:	ed9f 0b11 	vldr	d0, [pc, #68]	; 80079b8 <scalbn+0xd0>
 8007974:	f000 f830 	bl	80079d8 <copysign>
 8007978:	a30f      	add	r3, pc, #60	; (adr r3, 80079b8 <scalbn+0xd0>)
 800797a:	e9d3 2300 	ldrd	r2, r3, [r3]
 800797e:	ec51 0b10 	vmov	r0, r1, d0
 8007982:	e014      	b.n	80079ae <scalbn+0xc6>
 8007984:	ed9f 0b0e 	vldr	d0, [pc, #56]	; 80079c0 <scalbn+0xd8>
 8007988:	f000 f826 	bl	80079d8 <copysign>
 800798c:	ec51 0b10 	vmov	r0, r1, d0
 8007990:	a30b      	add	r3, pc, #44	; (adr r3, 80079c0 <scalbn+0xd8>)
 8007992:	e9d3 2300 	ldrd	r2, r3, [r3]
 8007996:	e00a      	b.n	80079ae <scalbn+0xc6>
 8007998:	f025 45ff 	bic.w	r5, r5, #2139095040	; 0x7f800000
 800799c:	3336      	adds	r3, #54	; 0x36
 800799e:	f425 05e0 	bic.w	r5, r5, #7340032	; 0x700000
 80079a2:	ec51 0b11 	vmov	r0, r1, d1
 80079a6:	ea45 5103 	orr.w	r1, r5, r3, lsl #20
 80079aa:	4b09      	ldr	r3, [pc, #36]	; (80079d0 <scalbn+0xe8>)
 80079ac:	2200      	movs	r2, #0
 80079ae:	f7f8 fde3 	bl	8000578 <__aeabi_dmul>
 80079b2:	ec41 0b10 	vmov	d0, r0, r1
 80079b6:	bd38      	pop	{r3, r4, r5, pc}
 80079b8:	8800759c 	.word	0x8800759c
 80079bc:	7e37e43c 	.word	0x7e37e43c
 80079c0:	c2f8f359 	.word	0xc2f8f359
 80079c4:	01a56e1f 	.word	0x01a56e1f
 80079c8:	43500000 	.word	0x43500000
 80079cc:	ffff3cb0 	.word	0xffff3cb0
 80079d0:	3c900000 	.word	0x3c900000
 80079d4:	f3af 8000 	nop.w

080079d8 <copysign>:
 80079d8:	b530      	push	{r4, r5, lr}
 80079da:	ec51 0b10 	vmov	r0, r1, d0
 80079de:	ec55 4b11 	vmov	r4, r5, d1
 80079e2:	ec53 2b10 	vmov	r2, r3, d0
 80079e6:	f005 4000 	and.w	r0, r5, #2147483648	; 0x80000000
 80079ea:	f021 4100 	bic.w	r1, r1, #2147483648	; 0x80000000
 80079ee:	ea40 0301 	orr.w	r3, r0, r1
 80079f2:	ec43 2b10 	vmov	d0, r2, r3
 80079f6:	bd30      	pop	{r4, r5, pc}

080079f8 <__errno>:
 80079f8:	4b01      	ldr	r3, [pc, #4]	; (8007a00 <__errno+0x8>)
 80079fa:	6818      	ldr	r0, [r3, #0]
 80079fc:	4770      	bx	lr
 80079fe:	bf00      	nop
 8007a00:	200000f4 	.word	0x200000f4

08007a04 <_init>:
 8007a04:	b5f8      	push	{r3, r4, r5, r6, r7, lr}
 8007a06:	bf00      	nop
 8007a08:	bcf8      	pop	{r3, r4, r5, r6, r7}
 8007a0a:	bc08      	pop	{r3}
 8007a0c:	469e      	mov	lr, r3
 8007a0e:	4770      	bx	lr

08007a10 <_fini>:
 8007a10:	b5f8      	push	{r3, r4, r5, r6, r7, lr}
 8007a12:	bf00      	nop
 8007a14:	bcf8      	pop	{r3, r4, r5, r6, r7}
 8007a16:	bc08      	pop	{r3}
 8007a18:	469e      	mov	lr, r3
 8007a1a:	4770      	bx	lr
